
App.elf:     file format elf32-avr

Sections:
Idx Name          Size      VMA       LMA       File off  Algn
  0 .data         0000000c  00800100  0000701a  000070ce  2**0
                  CONTENTS, ALLOC, LOAD, DATA
  1 .text         0000701a  00000000  00000000  000000b4  2**1
                  CONTENTS, ALLOC, LOAD, READONLY, CODE
  2 .bss          000001a3  0080010c  0080010c  000070da  2**0
                  ALLOC
  3 .eeprom       000002bf  00810000  00810000  000070da  2**0
                  CONTENTS, ALLOC, LOAD, DATA
  4 .comment      0000005c  00000000  00000000  00007399  2**0
                  CONTENTS, READONLY
  5 .note.gnu.avr.deviceinfo 0000003c  00000000  00000000  000073f8  2**2
                  CONTENTS, READONLY
  6 .debug_aranges 00000428  00000000  00000000  00007434  2**0
                  CONTENTS, READONLY, DEBUGGING
  7 .debug_info   00004d6a  00000000  00000000  0000785c  2**0
                  CONTENTS, READONLY, DEBUGGING
  8 .debug_abbrev 0000183f  00000000  00000000  0000c5c6  2**0
                  CONTENTS, READONLY, DEBUGGING
  9 .debug_line   00002f39  00000000  00000000  0000de05  2**0
                  CONTENTS, READONLY, DEBUGGING
 10 .debug_frame  00000f20  00000000  00000000  00010d40  2**2
                  CONTENTS, READONLY, DEBUGGING
 11 .debug_str    000012ad  00000000  00000000  00011c60  2**0
                  CONTENTS, READONLY, DEBUGGING
 12 .debug_loc    00001fd5  00000000  00000000  00012f0d  2**0
                  CONTENTS, READONLY, DEBUGGING
 13 .debug_ranges 00000390  00000000  00000000  00014ee2  2**0
                  CONTENTS, READONLY, DEBUGGING

Disassembly of section .text:

00000000 <__vectors>:
       0:	4a c6       	rjmp	.+3220   	; 0xc96 <__ctors_end>
       2:	00 00       	nop
       4:	71 c6       	rjmp	.+3298   	; 0xce8 <__bad_interrupt>
       6:	00 00       	nop
       8:	6f c6       	rjmp	.+3294   	; 0xce8 <__bad_interrupt>
       a:	00 00       	nop
       c:	6d c6       	rjmp	.+3290   	; 0xce8 <__bad_interrupt>
       e:	00 00       	nop
      10:	6b c6       	rjmp	.+3286   	; 0xce8 <__bad_interrupt>
      12:	00 00       	nop
      14:	69 c6       	rjmp	.+3282   	; 0xce8 <__bad_interrupt>
      16:	00 00       	nop
      18:	67 c6       	rjmp	.+3278   	; 0xce8 <__bad_interrupt>
      1a:	00 00       	nop
      1c:	65 c6       	rjmp	.+3274   	; 0xce8 <__bad_interrupt>
      1e:	00 00       	nop
      20:	63 c6       	rjmp	.+3270   	; 0xce8 <__bad_interrupt>
      22:	00 00       	nop
      24:	61 c6       	rjmp	.+3266   	; 0xce8 <__bad_interrupt>
      26:	00 00       	nop
      28:	5f c6       	rjmp	.+3262   	; 0xce8 <__bad_interrupt>
      2a:	00 00       	nop
      2c:	5d c6       	rjmp	.+3258   	; 0xce8 <__bad_interrupt>
      2e:	00 00       	nop
      30:	0c 94 d3 2f 	jmp	0x5fa6	; 0x5fa6 <__vector_12>
      34:	59 c6       	rjmp	.+3250   	; 0xce8 <__bad_interrupt>
      36:	00 00       	nop
      38:	57 c6       	rjmp	.+3246   	; 0xce8 <__bad_interrupt>
      3a:	00 00       	nop
      3c:	55 c6       	rjmp	.+3242   	; 0xce8 <__bad_interrupt>
      3e:	00 00       	nop
      40:	53 c6       	rjmp	.+3238   	; 0xce8 <__bad_interrupt>
      42:	00 00       	nop
      44:	51 c6       	rjmp	.+3234   	; 0xce8 <__bad_interrupt>
      46:	00 00       	nop
      48:	0c 94 62 10 	jmp	0x20c4	; 0x20c4 <__vector_18>
      4c:	4d c6       	rjmp	.+3226   	; 0xce8 <__bad_interrupt>
      4e:	00 00       	nop
      50:	4b c6       	rjmp	.+3222   	; 0xce8 <__bad_interrupt>
      52:	00 00       	nop
      54:	e4 c6       	rjmp	.+3528   	; 0xe1e <__vector_21>
      56:	00 00       	nop
      58:	47 c6       	rjmp	.+3214   	; 0xce8 <__bad_interrupt>
      5a:	00 00       	nop
      5c:	45 c6       	rjmp	.+3210   	; 0xce8 <__bad_interrupt>
      5e:	00 00       	nop
      60:	43 c6       	rjmp	.+3206   	; 0xce8 <__bad_interrupt>
      62:	00 00       	nop
      64:	41 c6       	rjmp	.+3202   	; 0xce8 <__bad_interrupt>
      66:	00 00       	nop
      68:	3f c6       	rjmp	.+3198   	; 0xce8 <__bad_interrupt>
      6a:	00 00       	nop
      6c:	3d c6       	rjmp	.+3194   	; 0xce8 <__bad_interrupt>
      6e:	00 00       	nop
      70:	3b c6       	rjmp	.+3190   	; 0xce8 <__bad_interrupt>
      72:	00 00       	nop
      74:	39 c6       	rjmp	.+3186   	; 0xce8 <__bad_interrupt>
      76:	00 00       	nop
      78:	0c 94 32 11 	jmp	0x2264	; 0x2264 <__vector_30>
      7c:	35 c6       	rjmp	.+3178   	; 0xce8 <__bad_interrupt>
      7e:	00 00       	nop
      80:	33 c6       	rjmp	.+3174   	; 0xce8 <__bad_interrupt>
      82:	00 00       	nop
      84:	31 c6       	rjmp	.+3170   	; 0xce8 <__bad_interrupt>
      86:	00 00       	nop
      88:	2f c6       	rjmp	.+3166   	; 0xce8 <__bad_interrupt>
	...

0000008c <__trampolines_end>:
      8c:	44 4d       	sbci	r20, 0xD4	; 212
      8e:	58 20       	and	r5, r8
      90:	63 68       	ori	r22, 0x83	; 131
      92:	2e 20       	and	r2, r14
      94:	25 33       	cpi	r18, 0x35	; 53
      96:	64 2d       	mov	r22, r4
      98:	25 33       	cpi	r18, 0x35	; 53
      9a:	64 3a       	cpi	r22, 0xA4	; 164
	...

0000009d <_ZZN3App9dmxScreenEvE3__c_0>:
      9d:	25 32 64 20 00                                      %2d .

000000a2 <_ZZN3App9dmxScreenEvE3__c_1>:
      a2:	46 4c 20 00                                         FL .

000000a6 <_ZZN3App9dmxScreenEvE3__c_2>:
      a6:	25 32 64 20 00                                      %2d .

000000ab <_ZZN3App9dmxScreenEvE3__c_3>:
      ab:	46 4c 20 00                                         FL .

000000af <_ZZN3App9dmxScreenEvE3__c_4>:
      af:	25 32 64 20 00                                      %2d .

000000b4 <_ZZN3App9dmxScreenEvE3__c_5>:
      b4:	46 4c 20 00                                         FL .

000000b8 <_ZZN3App11localScreenEvE3__c>:
      b8:	3e 25 30 32 64 3c 00                                >%02d<.

000000bf <_ZZN3App11localScreenEvE3__c_0>:
      bf:	20 25 30 32 64 20 00                                 %02d .

000000c6 <_ZZN3App11localScreenEvE3__c_1>:
      c6:	20 25 30 32 64 20 00                                 %02d .

000000cd <_ZZN3App11localScreenEvE3__c_2>:
      cd:	20 46 4c 20 00                                       FL .

000000d2 <_ZZN3App11localScreenEvE3__c_3>:
      d2:	3e 25 30 32 64 3c 00                                >%02d<.

000000d9 <_ZZN3App11localScreenEvE3__c_4>:
      d9:	20 25 30 32 64 20 00                                 %02d .

000000e0 <_ZZN3App11localScreenEvE3__c_5>:
      e0:	20 25 30 32 64 20 00                                 %02d .

000000e7 <_ZZN3App11localScreenEvE3__c_6>:
      e7:	20 46 4c 20 00                                       FL .

000000ec <_ZZN3App11localScreenEvE3__c_7>:
      ec:	3e 25 30 32 64 3c 00                                >%02d<.

000000f3 <_ZZN3App11localScreenEvE3__c_8>:
      f3:	20 25 30 32 64 20 00                                 %02d .

000000fa <_ZZN3App11localScreenEvE3__c_9>:
      fa:	20 25 30 32 64 20 00                                 %02d .

00000101 <_ZZN3App11localScreenEvE3__c_10>:
     101:	20 46 4c 20 00                                       FL .

00000106 <_ZZN3App11localScreenEvE3__c_11>:
     106:	3e 25 30 32 64 3c 00                                >%02d<.

0000010d <_ZZN3App11localScreenEvE3__c_12>:
     10d:	20 25 30 32 64 20 00                                 %02d .

00000114 <_ZZN3App11localScreenEvE3__c_13>:
     114:	20 25 30 32 64 20 00                                 %02d .

0000011b <_ZZN3App11localScreenEvE3__c_14>:
     11b:	20 46 4c 20 00                                       FL .

00000120 <_ZZN3App11localScreenEvE3__c_15>:
     120:	3e 25 30 32 64 3c 00                                >%02d<.

00000127 <_ZZN3App11localScreenEvE3__c_16>:
     127:	20 25 30 32 64 20 00                                 %02d .

0000012e <_ZZN3App11localScreenEvE3__c_17>:
     12e:	20 25 30 32 64 20 00                                 %02d .

00000135 <_ZZN3App11localScreenEvE3__c_18>:
     135:	20 46 4c 20 00                                       FL .

0000013a <_ZZN3App11localScreenEvE3__c_19>:
     13a:	3e 25 30 32 64 3c 00                                >%02d<.

00000141 <_ZZN3App11localScreenEvE3__c_20>:
     141:	20 25 30 32 64 20 00                                 %02d .

00000148 <_ZZN3App11localScreenEvE3__c_21>:
     148:	20 25 30 32 64 20 00                                 %02d .

0000014f <_ZZN3App11localScreenEvE3__c_22>:
     14f:	20 46 4c 20 00                                       FL .

00000154 <_ZZN3App3runEvE3__c>:
     154:	45 6c 73 69 73 20 64 69 67 69 74 61 6c 20 2b 2b     Elsis digital ++
	...

00000165 <_ZZN3App3runEvE3__c_0>:
     165:	20 20 20 20 56 20 20 25 64 2e 25 64 20 20 20 20         V  %d.%d    
     175:	20 20 20 20 00                                          .

0000017a <_ZZN3App3runEvE3__c_1>:
     17a:	20 2e 2e 2e 62 6f 6f 74 69 6e 67 2e 2e 2e 20 20      ...booting...  
	...

0000018b <_ZN5Curve6cPowerE>:
     18b:	00 03 05 07 08 0a 0b 0c 0d 0e 0f 10 11 12 13 14     ................
     19b:	15 16 17 18 19 19 1a 1b 1c 1d 1d 1e 1f 20 20 21     .............  !
     1ab:	22 23 23 24 25 25 26 27 28 28 29 2a 2a 2b 2c 2c     "##$%%&'(()**+,,
     1bb:	2d 2e 2e 2f 30 30 31 32 32 33 33 34 35 35 36 37     -../001223345567
     1cb:	37 38 38 39 3a 3a 3b 3c 3c 3d 3d 3e 3f 3f 40 40     7889::;<<==>??@@
     1db:	41 42 42 43 43 44 45 45 46 46 47 47 48 49 49 4a     ABBCCDEEFFGGHIIJ
     1eb:	4a 4b 4c 4c 4d 4d 4e 4f 4f 50 50 51 51 52 53 53     JKLLMMNOOPPQQRSS
     1fb:	54 54 55 56 56 57 57 58 59 59 5a 5a 5b 5c 5c 5d     TTUVVWWXYYZZ[\\]
     20b:	5d 5e 5f 5f 60 60 61 62 62 63 63 64 65 65 66 66     ]^__``abbccdeeff
     21b:	67 68 68 69 6a 6a 6b 6b 6c 6d 6d 6e 6f 6f 70 70     ghhijjkklmmnoopp
     22b:	71 72 72 73 74 74 75 76 76 77 78 78 79 7a 7a 7b     qrrsttuvvwxxyzz{
     23b:	7c 7d 7d 7e 7f 7f 80 81 81 82 83 84 84 85 86 87     |}}~............
     24b:	87 88 89 8a 8b 8b 8c 8d 8e 8f 8f 90 91 92 93 94     ................
     25b:	95 95 96 97 98 99 9a 9b 9c 9d 9e 9f a0 a1 a2 a3     ................
     26b:	a4 a5 a6 a8 a9 aa ab ac ae af b0 b2 b3 b5 b6 b8     ................
     27b:	ba bb bd bf c1 c3 c5 c7 ca cc d0 d3 d7 dd e4 ff     ................

0000028b <_ZN5Curve3outE>:
     28b:	00 03 05 06 08 09 0a 0c 0d 0e 10 11 12 13 14 16     ................
     29b:	17 18 19 1a 1c 1c 1e 1f 20 21 22 23 24 26 26 28     ........ !"#$&&(
     2ab:	29 2a 2b 2c 2d 2e 2f 30 31 33 33 34 35 37 38 38     )*+,-./013345788
     2bb:	39 3b 3c 3d 3e 3f 3f 41 42 43 44 45 46 47 48 49     9;<=>??ABCDEFGHI
     2cb:	4a 4b 4c 4d 4e 4f 50 51 52 53 54 55 56 57 58 59     JKLMNOPQRSTUVWXY
     2db:	5a 5b 5b 5c 5e 5f 60 61 62 63 64 65 66 66 67 68     Z[[\^_`abcdeffgh
     2eb:	6a 6b 6c 6d 6e 6e 6f 70 71 73 74 74 75 76 77 78     jklmnnopqsttuvwx
     2fb:	7a 7a 7b 7c 7d 7e 7f 80 81 82 82 83 85 86 87 87     zz{|}~..........
     30b:	88 8a 8b 8b 8c 8d 8f 8f 90 91 92 93 94 95 96 97     ................
     31b:	98 99 9a 9b 9c 9c 9d 9f 9f a0 a1 a3 a3 a4 a5 a6     ................
     32b:	a7 a8 a9 aa ab ab ac ae ae af b1 b1 b2 b3 b4 b5     ................
     33b:	b6 b7 b8 b8 b9 bb bb bc be be bf c1 c1 c2 c3 c4     ................
     34b:	c5 c6 c7 c8 c9 ca ca cb cd cd ce cf d0 d1 d2 d3     ................
     35b:	d3 d4 d6 d6 d7 d8 d9 db db dc dd de de df e1 e1     ................
     36b:	e2 e3 e4 e6 e6 e7 e8 e9 ea eb eb ec ee ee ef f0     ................
     37b:	f1 f2 f3 f3 f4 f6 f7 f8 f8 f9 fa fb fc fd fe ff     ................
     38b:	10 10 11 12 13 14 15 16 17 18 19 1a 1b 1c 1d 1e     ................
     39b:	1e 1f 20 21 22 23 24 25 26 27 28 29 2a 2b 2c 2d     .. !"#$%&'()*+,-
     3ab:	2d 2e 2f 30 31 32 33 34 35 36 37 38 39 3a 3b 3c     -./0123456789:;<
     3bb:	3c 3d 3e 3f 40 41 42 43 44 45 46 47 48 49 4a 4b     <=>?@ABCDEFGHIJK
     3cb:	4b 4c 4d 4e 4f 50 51 52 53 54 55 56 57 58 59 5a     KLMNOPQRSTUVWXYZ
     3db:	5a 5b 5c 5d 5e 5f 60 61 62 63 64 65 66 67 68 69     Z[\]^_`abcdefghi
     3eb:	69 6a 6b 6c 6d 6e 6f 70 71 72 73 74 75 76 77 78     ijklmnopqrstuvwx
     3fb:	78 79 7a 7b 7c 7d 7e 7f 80 81 82 83 84 85 86 87     xyz{|}~.........
     40b:	87 88 89 8a 8b 8c 8d 8e 8f 90 91 92 93 94 95 96     ................
     41b:	96 97 98 99 9a 9b 9c 9d 9e 9f a0 a1 a2 a3 a4 a5     ................
     42b:	a5 a6 a7 a8 a9 aa ab ac ad ae af b0 b1 b2 b3 b4     ................
     43b:	b4 b5 b6 b7 b8 b9 ba bb bc bd be bf c0 c1 c2 c3     ................
     44b:	c3 c4 c5 c6 c7 c8 c9 ca cb cc cd ce cf d0 d1 d2     ................
     45b:	d2 d3 d4 d5 d6 d7 d8 d9 da db dc dd de df e0 e1     ................
     46b:	e1 e2 e3 e4 e5 e6 e7 e8 e9 ea eb ec ed ee ef f0     ................
     47b:	f0 f1 f2 f3 f4 f5 f6 f7 f8 f9 fa fb fc fd fe ff     ................
     48b:	00 22 22 23 24 25 26 27 28 28 29 2a 2b 2c 2d 2e     .""#$%&'(()*+,-.
     49b:	2f 2f 30 31 32 33 34 35 36 36 37 38 39 3a 3b 3c     //01234566789:;<
     4ab:	3c 3d 3e 3f 40 41 42 43 43 44 45 46 47 48 49 4a     <=>?@ABCCDEFGHIJ
     4bb:	4a 4b 4c 4d 4e 4f 50 50 51 52 53 54 55 56 57 57     JKLMNOPPQRSTUVWW
     4cb:	58 59 5a 5b 5c 5d 5e 5e 5f 60 61 62 63 64 64 65     XYZ[\]^^_`abcdde
     4db:	66 67 68 69 6a 6b 6b 6c 6d 6e 6f 70 71 72 72 73     fghijkklmnopqrrs
     4eb:	74 75 76 77 78 79 79 7a 7b 7c 7d 7e 7f 7f 80 81     tuvwxyyz{|}~....
     4fb:	82 83 84 85 86 86 87 88 89 8a 8b 8c 8d 8d 8e 8f     ................
     50b:	90 91 92 93 93 94 95 96 97 98 99 9a 9a 9b 9c 9d     ................
     51b:	9e 9f a0 a1 a1 a2 a3 a4 a5 a6 a7 a7 a8 a9 aa ab     ................
     52b:	ac ad ae ae af b0 b1 b2 b3 b4 b5 b5 b6 b7 b8 b9     ................
     53b:	ba bb bc bc bd be bf c0 c1 c2 c2 c3 c4 c5 c6 c7     ................
     54b:	c8 c9 c9 ca cb cc cd ce cf d0 d0 d1 d2 d3 d4 d5     ................
     55b:	d6 d6 d7 d8 d9 da db dc dd dd de df e0 e1 e2 e3     ................
     56b:	e4 e4 e5 e6 e7 e8 e9 ea ea eb ec ed ee ef f0 f1     ................
     57b:	f1 f2 f3 f4 f5 f6 f7 f8 f8 f9 fa fb fc fd fe ff     ................
     58b:	00 22 22 23 24 25 26 27 28 28 29 2a 2b 2c 2d 2e     .""#$%&'(()*+,-.
     59b:	2f 2f 30 31 32 33 34 35 36 36 37 38 39 3a 3b 3c     //01234566789:;<
     5ab:	3c 3d 3e 3f 40 41 42 43 43 44 45 46 47 48 49 4a     <=>?@ABCCDEFGHIJ
     5bb:	4a 4b 4c 4d 4e 4f 50 50 51 52 53 54 55 56 57 57     JKLMNOPPQRSTUVWW
     5cb:	58 59 5a 5b 5c 5d 5e 5e 5f 60 61 62 63 64 64 65     XYZ[\]^^_`abcdde
     5db:	66 67 68 69 6a 6b 6b 6c 6d 6e 6f 70 71 72 72 73     fghijkklmnopqrrs
     5eb:	74 75 76 77 78 79 79 7a 7b 7c 7d 7e 7f 7f 80 81     tuvwxyyz{|}~....
     5fb:	82 83 84 85 86 86 87 88 89 8a 8b 8c 8d 8d 8e 8f     ................
     60b:	90 91 92 93 93 94 95 96 97 98 99 9a 9a 9b 9c 9d     ................
     61b:	9e 9f a0 a1 a1 a2 a3 a4 a5 a6 a7 a7 a8 a9 aa ab     ................
     62b:	ac ad ae ae af b0 b1 b2 b3 b4 b5 b5 b6 b7 b8 b9     ................
     63b:	ba bb bc bc bd be bf c0 c1 c2 c2 c3 c4 c5 c6 c7     ................
     64b:	c8 c9 c9 ca cb cc cd ce cf d0 d0 d1 d2 d3 d4 d5     ................
     65b:	d6 d6 d7 d8 d9 da db dc dd dd de df e0 e1 e2 e3     ................
     66b:	e4 e4 e5 e6 e7 e8 e9 ea ea eb ec ed ee ef f0 f1     ................
     67b:	f1 f2 f3 f4 f5 f6 f7 f8 f8 f9 fa fb fc fd fe ff     ................
	...
     6eb:	ff ff ff ff ff ff ff ff ff ff ff ff ff ff ff ff     ................
     6fb:	ff ff ff ff ff ff ff ff ff ff ff ff ff ff ff ff     ................
     70b:	ff ff ff ff ff ff ff ff ff ff ff ff ff ff ff ff     ................
     71b:	ff ff ff ff ff ff ff ff ff ff ff ff ff ff ff ff     ................
     72b:	ff ff ff ff ff ff ff ff ff ff ff ff ff ff ff ff     ................
     73b:	ff ff ff ff ff ff ff ff ff ff ff ff ff ff ff ff     ................
     74b:	ff ff ff ff ff ff ff ff ff ff ff ff ff ff ff ff     ................
     75b:	ff ff ff ff ff ff ff ff ff ff ff ff ff ff ff ff     ................
     76b:	ff ff ff ff ff ff ff ff ff ff ff ff ff ff ff ff     ................
     77b:	ff ff ff ff ff ff ff ff ff ff ff ff ff ff ff ff     ................

0000078b <_ZZN5Menue4baseEvE3__c>:
     78b:	20 20 4d 61 69 6e 20 20 20 20 20 20 20 20 20 20       Main          
	...

0000079c <_ZZN5Menue4baseEvE3__c_0>:
     79c:	20 20 20 20 20 20 20 4d 65 6e 75 20 20 20 20 20            Menu     
	...

000007ad <_ZZN5Menue4baseEvE3__c_1>:
     7ad:	4d 65 6d 20 20 20 50 6c 61 79 20 20 20 53 74 70     Mem   Play   Stp
	...

000007be <_ZZN5Menue3memEvE3__c>:
     7be:	20 20 20 20 4d 65 6d 6f 72 79 20 20 20 20 20 20         Memory      
	...

000007cf <_ZZN5Menue3memEvE3__c_0>:
     7cf:	20 20 43 75 72 72 65 6e 74 20 25 64 20 20 20 20       Current %d    
     7df:	20 00                                                .

000007e1 <_ZZN5Menue3memEvE3__c_1>:
     7e1:	45 64 69 74 20 20 53 74 6f 20 20 20 53 74 6f 2b     Edit  Sto   Sto+
	...

000007f2 <_ZZN5Menue3memEvE3__c_2>:
     7f2:	20 20 53 74 6f 72 65 64 20 74 6f 3a 20 20 20 20       Stored to:    
	...

00000803 <_ZZN5Menue3memEvE3__c_3>:
     803:	20 20 20 20 20 20 20 20 20 20 25 64 20 20 20 20               %d    
     813:	20 00                                                .

00000815 <_ZZN5Menue3memEvE3__c_4>:
     815:	20 20 20 20 45 73 63 61 70 65 64 20 20 20 20 20         Escaped     
	...

00000826 <_ZZN5Menue3memEvE3__c_5>:
     826:	20 20 20 20 20 20 20 20 20 20 20 20 20 20 20 20                     
	...

00000837 <_ZZN5Menue3memEvE3__c_6>:
     837:	20 20 53 74 6f 72 65 64 20 74 6f 3a 20 20 20 20       Stored to:    
	...

00000848 <_ZZN5Menue3memEvE3__c_7>:
     848:	20 20 20 20 20 20 20 20 20 20 25 64 20 20 20 20               %d    
     858:	20 00                                                .

0000085a <_ZZN5Menue3memEvE3__c_8>:
     85a:	20 20 20 20 4d 65 6d 6f 72 79 20 20 20 20 20 20         Memory      
	...

0000086b <_ZZN5Menue3memEvE3__c_9>:
     86b:	20 20 20 20 20 20 20 66 75 6c 6c 20 20 20 20 20            full     
	...

0000087c <_ZZN5Menue10memStoreToEvE3__c>:
     87c:	20 20 20 20 20 4d 65 6d 6f 72 79 20 20 20 20 20          Memory     
	...

0000088d <_ZZN5Menue10memStoreToEvE3__c_0>:
     88d:	20 20 20 43 75 72 72 65 6e 74 3a 20 20 25 32 64        Current:  %2d
     89d:	20 20 00                                              .

000008a0 <_ZZN5Menue10memStoreToEvE3__c_1>:
     8a0:	20 20 20 53 74 6f 72 65 20 74 6f 3a 20 25 32 64        Store to: %2d
     8b0:	20 20 00                                              .

000008b3 <_ZZN5Menue7memEditEvE3__c>:
     8b3:	20 20 20 20 4d 65 6d 6f 72 79 20 20 20 20 20 20         Memory      
	...

000008c4 <_ZZN5Menue7memEditEvE3__c_0>:
     8c4:	20 20 20 20 20 45 64 69 74 20 20 20 20 20 20 20          Edit       
	...

000008d5 <_ZZN5Menue7memEditEvE3__c_1>:
     8d5:	54 69 6d 65 20 20 20 44 65 6c 20 20 20 43 6c 72     Time   Del   Clr
	...

000008e6 <_ZZN5Menue7memEditEvE3__c_2>:
     8e6:	20 53 65 6c 65 63 74 20 6d 65 6d 6f 72 79 20 20      Select memory  
	...

000008f7 <_ZZN5Menue7memEditEvE3__c_3>:
     8f7:	20 74 6f 20 65 64 69 74 20 74 69 6d 65 20 20 20      to edit time   
	...

00000908 <_ZZN5Menue7memEditEvE3__c_4>:
     908:	20 20 53 70 65 63 69 66 79 20 6e 65 77 20 20 20       Specify new   
	...

00000919 <_ZZN5Menue7memEditEvE3__c_5>:
     919:	20 20 20 20 20 74 69 6d 65 20 20 20 20 20 20 20          time       
	...

0000092a <_ZZN5Menue7memEditEvE3__c_6>:
     92a:	20 53 65 6c 65 63 74 20 6d 65 6d 6f 72 79 20 20      Select memory  
	...

0000093b <_ZZN5Menue7memEditEvE3__c_7>:
     93b:	20 20 20 74 6f 20 64 65 6c 65 74 65 20 20 20 20        to delete    
	...

0000094c <_ZZN5Menue7memEditEvE3__c_8>:
     94c:	20 20 50 72 65 73 73 20 45 6e 74 65 72 20 20 20       Press Enter   
	...

0000095d <_ZZN5Menue7memEditEvE3__c_9>:
     95d:	20 74 6f 20 64 65 6c 65 74 65 20 6d 25 64 20 20      to delete m%d  
     96d:	20 00                                                .

0000096f <_ZZN5Menue7memEditEvE3__c_10>:
     96f:	20 6f 72 20 70 72 65 73 73 20 45 73 63 61 70 65      or press Escape
	...

00000980 <_ZZN5Menue7memEditEvE3__c_11>:
     980:	20 20 20 74 6f 20 63 61 6e 63 65 6c 20 20 20 20        to cancel    
	...

00000991 <_ZZN5Menue7memEditEvE3__c_12>:
     991:	20 50 72 65 73 73 20 45 6e 74 65 72 20 74 6f 20      Press Enter to 
	...

000009a2 <_ZZN5Menue7memEditEvE3__c_13>:
     9a2:	20 63 6c 65 61 72 20 6d 65 6d 6d 6f 72 69 65 73      clear memmories
	...

000009b3 <_ZZN5Menue7memEditEvE3__c_14>:
     9b3:	20 6f 72 20 70 72 65 73 73 20 45 73 63 61 70 65      or press Escape
	...

000009c4 <_ZZN5Menue7memEditEvE3__c_15>:
     9c4:	20 20 20 74 6f 20 63 61 6e 63 65 6c 20 20 20 20        to cancel    
	...

000009d5 <_ZZN5Menue7memEditEvE3__c_16>:
     9d5:	20 20 20 20 70 72 6f 63 65 65 64 20 20 20 20 20         proceed     
	...

000009e6 <_ZZN5Menue7memEditEvE3__c_17>:
     9e6:	20 20 43 6c 65 61 72 69 6e 67 20 61 6c 6c 20 20       Clearing all  
	...

000009f7 <_ZZN5Menue7memEditEvE3__c_18>:
     9f7:	20 20 20 20 6d 65 6d 6d 6f 72 69 65 73 20 20 20         memmories   
	...

00000a08 <_ZZN5Menue14memNonExistentEiE3__c>:
     a08:	20 20 20 4d 65 6d 6f 72 79 20 20 25 32 64 20 20        Memory  %2d  
     a18:	20 00                                                .

00000a1a <_ZZN5Menue14memNonExistentEiE3__c_0>:
     a1a:	20 20 20 20 64 6f 65 73 20 6e 6f 74 20 20 20 20         does not    
	...

00000a2b <_ZZN5Menue14memNonExistentEiE3__c_1>:
     a2b:	20 20 20 20 20 65 78 69 73 74 21 20 20 20 20 20          exist!     
	...

00000a3c <_ZZN5Menue4playEvE3__c>:
     a3c:	20 20 20 50 6c 61 79 62 61 63 6b 20 20 20 20 20        Playback     
	...

00000a4d <_ZZN5Menue4playEvE3__c_0>:
     a4d:	20 20 4e 65 78 74 20 20 20 20 25 64 20 20 20 20       Next    %d    
     a5d:	20 00                                                .

00000a5f <_ZZN5Menue4playEvE3__c_1>:
     a5f:	42 61 63 6b 20 20 20 54 6f 20 20 20 4e 65 78 74     Back   To   Next
	...

00000a70 <_ZZN5Menue4playEvE3__c_2>:
     a70:	20 20 20 53 65 6c 65 63 74 20 6e 65 78 74 20 20        Select next  
	...

00000a81 <_ZZN5Menue9playXfadeEvE3__c>:
     a81:	20 20 43 72 6f 73 73 66 61 64 65 20 20 20 20 20       Crossfade     
	...

00000a92 <_ZZN5Menue9playXfadeEvE3__c_0>:
     a92:	20 20 70 65 72 63 65 6e 74 20 3d 20 20 20 20 20       percent =     
     aa2:	20 00                                                .

00000aa4 <_ZZN5Menue9playXfadeEvE3__c_1>:
     aa4:	42 61 63 6b 20 20 48 6f 6c 64 20 20 20 47 6f 20     Back  Hold   Go 
	...

00000ab5 <_ZZN5Menue9playXfadeEvE3__c_2>:
     ab5:	25 32 64 00                                         %2d.

00000ab9 <_ZZN5Menue9playXfadeEvE3__c_3>:
     ab9:	46 4c 00                                            FL.

00000abc <_ZZN5Menue5setupEvE3__c>:
     abc:	20 43 6f 6e 66 69 67 75 72 61 74 69 6f 6e 20 20      Configuration  
	...

00000acd <_ZZN5Menue5setupEvE3__c_0>:
     acd:	20 20 20 20 20 53 65 74 75 70 20 20 20 20 20 20          Setup      
	...

00000ade <_ZZN5Menue5setupEvE3__c_1>:
     ade:	44 6d 78 20 20 20 43 75 72 76 20 20 44 69 61 67     Dmx   Curv  Diag
	...

00000aef <_ZZN5Menue8setupDmxEvE3__c>:
     aef:	20 43 6f 6e 66 69 67 75 72 65 20 20 20 20 20 20      Configure      
	...

00000b00 <_ZZN5Menue8setupDmxEvE3__c_0>:
     b00:	20 20 20 20 44 4d 58 20 61 64 64 72 65 73 73 20         DMX address 
	...

00000b11 <_ZZN5Menue10setupCurveEvE3__c>:
     b11:	20 20 4f 75 74 70 75 74 20 63 75 72 76 65 20 20       Output curve  
	...

00000b22 <_ZZN5Menue10setupCurveEvE3__c_0>:
     b22:	20 20 20 20 20 20 74 79 70 65 20 20 20 20 20 20           type      
	...

00000b33 <_ZZN5Menue10setupCurveEvE3__c_1>:
     b33:	3e 25 30 32 64 3c 00                                >%02d<.

00000b3a <_ZZN5Menue10setupCurveEvE3__c_2>:
     b3a:	20 25 30 32 64 20 00                                 %02d .

00000b41 <_ZZN5Menue10setupCurveEvE3__c_3>:
     b41:	20 25 31 64 20 00                                    %1d .

00000b47 <_ZZN5Menue13voltageScreenEvE3__c>:
     b47:	20 20 4c 69 76 65 20 76 6f 6c 74 61 67 65 20 20       Live voltage  
	...

00000b58 <_ZZN5Menue13voltageScreenEvE3__c_0>:
     b58:	4c 31 3d 25 33 64 56 00                             L1=%3dV.

00000b60 <_ZZN5Menue13voltageScreenEvE3__c_1>:
     b60:	4c 32 3d 25 33 64 56 00                             L2=%3dV.

00000b68 <_ZZN5Menue13voltageScreenEvE3__c_2>:
     b68:	4c 33 3d 25 33 64 56 00                             L3=%3dV.

00000b70 <_ZZN5Menue13setupTimeBaseEvE3__c>:
     b70:	20 54 69 6d 65 62 61 73 65 20 73 65 74 75 70 20      Timebase setup 
	...

00000b81 <_ZZN5Menue13setupTimeBaseEvE3__c_0>:
     b81:	20 20 20 20 20 20 20 20 20 20 20 20 20 20 20 20                     
	...

00000b92 <_ZZN5Menue13setupTimeBaseEvE3__c_1>:
     b92:	4e 65 74 2e 20 50 53 20 20 20 20 20 20 20 20 20     Net. PS         
	...

00000ba3 <_ZZN5Menue13setupTimeBaseEvE3__c_2>:
     ba3:	41 67 72 2e 20 50 53 20 20 20 20 20 20 20 20 20     Agr. PS         
	...

00000bb4 <_ZZN5Menue13setupTimeBaseEvE3__c_3>:
     bb4:	20 20 3c 3c 20 20 00                                  <<  .

00000bbb <_ZZN5Menue13setupTimeBaseEvE3__c_4>:
     bbb:	20 20 20 20 20 20 00                                      .

00000bc2 <_ZZN5Menue13setupTimeBaseEvE3__c_5>:
     bc2:	20 20 20 20 20 20 00                                      .

00000bc9 <_ZZN5Menue13setupTimeBaseEvE3__c_6>:
     bc9:	20 20 3c 3c 20 20 00                                  <<  .

00000bd0 <_ZZN5Menue8debugWinEvE3__c>:
     bd0:	20 20 44 65 62 75 67 20 20 00                         Debug  .

00000bda <_ZZN5Menue8debugWinEvE3__c_0>:
     bda:	4c 31 3d 25 33 64 56 00                             L1=%3dV.

00000be2 <_ZZN5Menue8debugWinEvE3__c_1>:
     be2:	4c 32 3d 25 33 64 56 00                             L2=%3dV.

00000bea <_ZZN5Menue8debugWinEvE3__c_2>:
     bea:	4c 33 3d 25 33 64 56 00                             L3=%3dV.

00000bf2 <_ZZN5Menue9setupVrefEvE3__c>:
     bf2:	20 52 65 66 65 72 65 6e 63 65 20 20 20 20 20 20      Reference      
	...

00000c03 <_ZZN5Menue9setupVrefEvE3__c_0>:
     c03:	20 20 20 20 76 6f 6c 74 61 67 65 73 20 20 20 20         voltages    
	...

00000c14 <_ZZN5Menue9setupVrefEvE3__c_1>:
     c14:	3e 4c 25 64 3c 00                                   >L%d<.

00000c1a <_ZZN5Menue9setupVrefEvE3__c_2>:
     c1a:	20 4c 25 64 20 00                                    L%d .

00000c20 <_ZZN5Menue9setupVrefEvE3__c_3>:
     c20:	25 33 64 00                                         %3d.

00000c24 <_ZZN5Menue6doEditERjhhjjE3__c>:
     c24:	25 30 33 64 00                                      %03d.

00000c29 <_ZZN5Menue6doEditERjhhjjE3__c_0>:
     c29:	25 30 34 64 00                                      %04d.

00000c2e <_ZZN5Menue9memSelectEvE3__c>:
     c2e:	20 20 20 43 75 72 72 65 6e 74 3a 20 25 32 64 20        Current: %2d 
     c3e:	20 20 00                                              .

00000c41 <_ZZN5Menue9memSelectEvE3__c_0>:
     c41:	20 20 20 53 65 6c 65 63 74 20 3a 20 25 32 64 20        Select : %2d 
     c51:	20 20 00                                              .

00000c54 <_ZN3Spi8phaseTabE>:
     c54:	00 01 06 07 0c 0d 12 13 02 03 08 09 0e 0f 14 15     ................
     c64:	04 05 0a 0b 10 11 16 17                             ........

00000c6c <_ZN3Spi8phasePtrE>:
     c6c:	00 00 01 01 02 02 00 00 01 01 02 02 00 00 01 01     ................
     c7c:	02 02 00 00 01 01 02 02                             ........

00000c84 <__ctors_start>:
     c84:	5c 07       	cpc	r21, r28
     c86:	c8 0d       	add	r28, r8
     c88:	42 0e       	add	r4, r18
     c8a:	3b 12       	cpse	r3, r27
     c8c:	3a 13       	cpse	r19, r26
     c8e:	8d 15       	cp	r24, r13
     c90:	e0 2c       	mov	r14, r0
     c92:	33 30       	cpi	r19, 0x03	; 3
     c94:	a1 32       	cpi	r26, 0x21	; 33

00000c96 <__ctors_end>:
     c96:	11 24       	eor	r1, r1
     c98:	1f be       	out	0x3f, r1	; 63
     c9a:	cf ef       	ldi	r28, 0xFF	; 255
     c9c:	d0 e1       	ldi	r29, 0x10	; 16
     c9e:	de bf       	out	0x3e, r29	; 62
     ca0:	cd bf       	out	0x3d, r28	; 61

00000ca2 <__do_copy_data>:
     ca2:	11 e0       	ldi	r17, 0x01	; 1
     ca4:	a0 e0       	ldi	r26, 0x00	; 0
     ca6:	b1 e0       	ldi	r27, 0x01	; 1
     ca8:	ea e1       	ldi	r30, 0x1A	; 26
     caa:	f0 e7       	ldi	r31, 0x70	; 112
     cac:	00 e0       	ldi	r16, 0x00	; 0
     cae:	0b bf       	out	0x3b, r16	; 59
     cb0:	02 c0       	rjmp	.+4      	; 0xcb6 <__do_copy_data+0x14>
     cb2:	07 90       	elpm	r0, Z+
     cb4:	0d 92       	st	X+, r0
     cb6:	ac 30       	cpi	r26, 0x0C	; 12
     cb8:	b1 07       	cpc	r27, r17
     cba:	d9 f7       	brne	.-10     	; 0xcb2 <__do_copy_data+0x10>

00000cbc <__do_clear_bss>:
     cbc:	22 e0       	ldi	r18, 0x02	; 2
     cbe:	ac e0       	ldi	r26, 0x0C	; 12
     cc0:	b1 e0       	ldi	r27, 0x01	; 1
     cc2:	01 c0       	rjmp	.+2      	; 0xcc6 <.do_clear_bss_start>

00000cc4 <.do_clear_bss_loop>:
     cc4:	1d 92       	st	X+, r1

00000cc6 <.do_clear_bss_start>:
     cc6:	af 3a       	cpi	r26, 0xAF	; 175
     cc8:	b2 07       	cpc	r27, r18
     cca:	e1 f7       	brne	.-8      	; 0xcc4 <.do_clear_bss_loop>

00000ccc <__do_global_ctors>:
     ccc:	16 e0       	ldi	r17, 0x06	; 6
     cce:	cb e4       	ldi	r28, 0x4B	; 75
     cd0:	d6 e0       	ldi	r29, 0x06	; 6
     cd2:	04 c0       	rjmp	.+8      	; 0xcdc <__do_global_ctors+0x10>
     cd4:	21 97       	sbiw	r28, 0x01	; 1
     cd6:	fe 01       	movw	r30, r28
     cd8:	0e 94 1e 33 	call	0x663c	; 0x663c <__tablejump2__>
     cdc:	c2 34       	cpi	r28, 0x42	; 66
     cde:	d1 07       	cpc	r29, r17
     ce0:	c9 f7       	brne	.-14     	; 0xcd4 <__do_global_ctors+0x8>
     ce2:	23 d7       	rcall	.+3654   	; 0x1b2a <main>
     ce4:	0c 94 0b 38 	jmp	0x7016	; 0x7016 <_exit>

00000ce8 <__bad_interrupt>:
     ce8:	8b c9       	rjmp	.-3306   	; 0x0 <__vectors>

00000cea <_ZN3AdcC1Ev>:
Adc Adc::adc;
volatile unsigned int Adc::rms[3];
volatile unsigned int Adc::val[3];
unsigned char Adc::ms;

Adc::Adc()
     cea:	cf 93       	push	r28
     cec:	df 93       	push	r29
     cee:	00 d0       	rcall	.+0      	; 0xcf0 <_ZN3AdcC1Ev+0x6>
     cf0:	cd b7       	in	r28, 0x3d	; 61
     cf2:	de b7       	in	r29, 0x3e	; 62
     cf4:	9a 83       	std	Y+2, r25	; 0x02
     cf6:	89 83       	std	Y+1, r24	; 0x01
{
}
     cf8:	0f 90       	pop	r0
     cfa:	0f 90       	pop	r0
     cfc:	df 91       	pop	r29
     cfe:	cf 91       	pop	r28
     d00:	08 95       	ret

00000d02 <_ZN3Adc4scanEv>:

void Adc::scan()
{
     d02:	cf 93       	push	r28
     d04:	df 93       	push	r29
     d06:	cd b7       	in	r28, 0x3d	; 61
     d08:	de b7       	in	r29, 0x3e	; 62
    ADMUX = 0xC0; // internal 2.56V reference, chan 0
     d0a:	87 e2       	ldi	r24, 0x27	; 39
     d0c:	90 e0       	ldi	r25, 0x00	; 0
     d0e:	20 ec       	ldi	r18, 0xC0	; 192
     d10:	fc 01       	movw	r30, r24
     d12:	20 83       	st	Z, r18
    ADCSR = 0xCF; // prescaler 128, start
     d14:	86 e2       	ldi	r24, 0x26	; 38
     d16:	90 e0       	ldi	r25, 0x00	; 0
     d18:	2f ec       	ldi	r18, 0xCF	; 207
     d1a:	fc 01       	movw	r30, r24
     d1c:	20 83       	st	Z, r18
}    
     d1e:	df 91       	pop	r29
     d20:	cf 91       	pop	r28
     d22:	08 95       	ret

00000d24 <_ZN3Adc6adcIntEv>:

void Adc::adcInt()
{
     d24:	cf 93       	push	r28
     d26:	df 93       	push	r29
     d28:	00 d0       	rcall	.+0      	; 0xd2a <_ZN3Adc6adcIntEv+0x6>
     d2a:	cd b7       	in	r28, 0x3d	; 61
     d2c:	de b7       	in	r29, 0x3e	; 62
    unsigned char ad = ADMUX & 0x07;
     d2e:	87 e2       	ldi	r24, 0x27	; 39
     d30:	90 e0       	ldi	r25, 0x00	; 0
     d32:	fc 01       	movw	r30, r24
     d34:	80 81       	ld	r24, Z
     d36:	87 70       	andi	r24, 0x07	; 7
     d38:	89 83       	std	Y+1, r24	; 0x01
    if ( ms < 10 ) {
     d3a:	80 91 19 01 	lds	r24, 0x0119
     d3e:	8a 30       	cpi	r24, 0x0A	; 10
     d40:	78 f5       	brcc	.+94     	; 0xda0 <_ZN3Adc6adcIntEv+0x7c>
        unsigned char sreg = SREG; // save interrupt state
     d42:	8f e5       	ldi	r24, 0x5F	; 95
     d44:	90 e0       	ldi	r25, 0x00	; 0
     d46:	fc 01       	movw	r30, r24
     d48:	80 81       	ld	r24, Z
     d4a:	8a 83       	std	Y+2, r24	; 0x02
        cli(); // disable
     d4c:	f8 94       	cli
        val[ad] += ADC;
     d4e:	84 e2       	ldi	r24, 0x24	; 36
     d50:	90 e0       	ldi	r25, 0x00	; 0
     d52:	fc 01       	movw	r30, r24
     d54:	20 81       	ld	r18, Z
     d56:	31 81       	ldd	r19, Z+1	; 0x01
     d58:	89 81       	ldd	r24, Y+1	; 0x01
     d5a:	88 2f       	mov	r24, r24
     d5c:	90 e0       	ldi	r25, 0x00	; 0
     d5e:	49 81       	ldd	r20, Y+1	; 0x01
     d60:	44 2f       	mov	r20, r20
     d62:	50 e0       	ldi	r21, 0x00	; 0
     d64:	44 0f       	add	r20, r20
     d66:	55 1f       	adc	r21, r21
     d68:	4d 5e       	subi	r20, 0xED	; 237
     d6a:	5e 4f       	sbci	r21, 0xFE	; 254
     d6c:	fa 01       	movw	r30, r20
     d6e:	40 81       	ld	r20, Z
     d70:	51 81       	ldd	r21, Z+1	; 0x01
     d72:	24 0f       	add	r18, r20
     d74:	35 1f       	adc	r19, r21
     d76:	88 0f       	add	r24, r24
     d78:	99 1f       	adc	r25, r25
     d7a:	8d 5e       	subi	r24, 0xED	; 237
     d7c:	9e 4f       	sbci	r25, 0xFE	; 254
     d7e:	fc 01       	movw	r30, r24
     d80:	31 83       	std	Z+1, r19	; 0x01
     d82:	20 83       	st	Z, r18
        SREG = sreg; // restore interrupt state
     d84:	8f e5       	ldi	r24, 0x5F	; 95
     d86:	90 e0       	ldi	r25, 0x00	; 0
     d88:	2a 81       	ldd	r18, Y+2	; 0x02
     d8a:	fc 01       	movw	r30, r24
     d8c:	20 83       	st	Z, r18
        if ( ad == 2 ) ms++;
     d8e:	89 81       	ldd	r24, Y+1	; 0x01
     d90:	82 30       	cpi	r24, 0x02	; 2
     d92:	29 f4       	brne	.+10     	; 0xd9e <_ZN3Adc6adcIntEv+0x7a>
     d94:	80 91 19 01 	lds	r24, 0x0119
     d98:	8f 5f       	subi	r24, 0xFF	; 255
     d9a:	80 93 19 01 	sts	0x0119, r24
     d9e:	23 c0       	rjmp	.+70     	; 0xde6 <_ZN3Adc6adcIntEv+0xc2>
    }
    else {
        rms[ad] = val[ad];
     da0:	89 81       	ldd	r24, Y+1	; 0x01
     da2:	88 2f       	mov	r24, r24
     da4:	90 e0       	ldi	r25, 0x00	; 0
     da6:	29 81       	ldd	r18, Y+1	; 0x01
     da8:	22 2f       	mov	r18, r18
     daa:	30 e0       	ldi	r19, 0x00	; 0
     dac:	22 0f       	add	r18, r18
     dae:	33 1f       	adc	r19, r19
     db0:	2d 5e       	subi	r18, 0xED	; 237
     db2:	3e 4f       	sbci	r19, 0xFE	; 254
     db4:	f9 01       	movw	r30, r18
     db6:	20 81       	ld	r18, Z
     db8:	31 81       	ldd	r19, Z+1	; 0x01
     dba:	88 0f       	add	r24, r24
     dbc:	99 1f       	adc	r25, r25
     dbe:	83 5f       	subi	r24, 0xF3	; 243
     dc0:	9e 4f       	sbci	r25, 0xFE	; 254
     dc2:	fc 01       	movw	r30, r24
     dc4:	31 83       	std	Z+1, r19	; 0x01
     dc6:	20 83       	st	Z, r18
        val[ad] = 0;
     dc8:	89 81       	ldd	r24, Y+1	; 0x01
     dca:	88 2f       	mov	r24, r24
     dcc:	90 e0       	ldi	r25, 0x00	; 0
     dce:	88 0f       	add	r24, r24
     dd0:	99 1f       	adc	r25, r25
     dd2:	8d 5e       	subi	r24, 0xED	; 237
     dd4:	9e 4f       	sbci	r25, 0xFE	; 254
     dd6:	fc 01       	movw	r30, r24
     dd8:	11 82       	std	Z+1, r1	; 0x01
     dda:	10 82       	st	Z, r1
        if ( ad == 2 ) ms = 0;
     ddc:	89 81       	ldd	r24, Y+1	; 0x01
     dde:	82 30       	cpi	r24, 0x02	; 2
     de0:	11 f4       	brne	.+4      	; 0xde6 <_ZN3Adc6adcIntEv+0xc2>
     de2:	10 92 19 01 	sts	0x0119, r1
    }
    ADMUX = 0xC0 | ( ++ad );
     de6:	87 e2       	ldi	r24, 0x27	; 39
     de8:	90 e0       	ldi	r25, 0x00	; 0
     dea:	29 81       	ldd	r18, Y+1	; 0x01
     dec:	2f 5f       	subi	r18, 0xFF	; 255
     dee:	29 83       	std	Y+1, r18	; 0x01
     df0:	29 81       	ldd	r18, Y+1	; 0x01
     df2:	20 6c       	ori	r18, 0xC0	; 192
     df4:	fc 01       	movw	r30, r24
     df6:	20 83       	st	Z, r18
    if ( ad < 3 ) ADCSR = 0xCF;
     df8:	89 81       	ldd	r24, Y+1	; 0x01
     dfa:	83 30       	cpi	r24, 0x03	; 3
     dfc:	30 f4       	brcc	.+12     	; 0xe0a <_ZN3Adc6adcIntEv+0xe6>
     dfe:	86 e2       	ldi	r24, 0x26	; 38
     e00:	90 e0       	ldi	r25, 0x00	; 0
     e02:	2f ec       	ldi	r18, 0xCF	; 207
     e04:	fc 01       	movw	r30, r24
     e06:	20 83       	st	Z, r18
     e08:	05 c0       	rjmp	.+10     	; 0xe14 <_ZN3Adc6adcIntEv+0xf0>
    else ADCSR = 0x66;
     e0a:	86 e2       	ldi	r24, 0x26	; 38
     e0c:	90 e0       	ldi	r25, 0x00	; 0
     e0e:	26 e6       	ldi	r18, 0x66	; 102
     e10:	fc 01       	movw	r30, r24
     e12:	20 83       	st	Z, r18
}
     e14:	0f 90       	pop	r0
     e16:	0f 90       	pop	r0
     e18:	df 91       	pop	r29
     e1a:	cf 91       	pop	r28
     e1c:	08 95       	ret

00000e1e <__vector_21>:

ISR( ADC_vect ) // use interrupt here to be interruptable
{
     e1e:	1f 92       	push	r1
     e20:	0f 92       	push	r0
     e22:	00 90 5f 00 	lds	r0, 0x005F
     e26:	0f 92       	push	r0
     e28:	11 24       	eor	r1, r1
     e2a:	00 90 5b 00 	lds	r0, 0x005B
     e2e:	0f 92       	push	r0
     e30:	2f 93       	push	r18
     e32:	3f 93       	push	r19
     e34:	4f 93       	push	r20
     e36:	5f 93       	push	r21
     e38:	6f 93       	push	r22
     e3a:	7f 93       	push	r23
     e3c:	8f 93       	push	r24
     e3e:	9f 93       	push	r25
     e40:	af 93       	push	r26
     e42:	bf 93       	push	r27
     e44:	ef 93       	push	r30
     e46:	ff 93       	push	r31
     e48:	cf 93       	push	r28
     e4a:	df 93       	push	r29
     e4c:	cd b7       	in	r28, 0x3d	; 61
     e4e:	de b7       	in	r29, 0x3e	; 62
       Adc::adcInt();
     e50:	69 df       	rcall	.-302    	; 0xd24 <_ZN3Adc6adcIntEv>
}
     e52:	df 91       	pop	r29
     e54:	cf 91       	pop	r28
     e56:	ff 91       	pop	r31
     e58:	ef 91       	pop	r30
     e5a:	bf 91       	pop	r27
     e5c:	af 91       	pop	r26
     e5e:	9f 91       	pop	r25
     e60:	8f 91       	pop	r24
     e62:	7f 91       	pop	r23
     e64:	6f 91       	pop	r22
     e66:	5f 91       	pop	r21
     e68:	4f 91       	pop	r20
     e6a:	3f 91       	pop	r19
     e6c:	2f 91       	pop	r18
     e6e:	0f 90       	pop	r0
     e70:	00 92 5b 00 	sts	0x005B, r0
     e74:	0f 90       	pop	r0
     e76:	00 92 5f 00 	sts	0x005F, r0
     e7a:	0f 90       	pop	r0
     e7c:	1f 90       	pop	r1
     e7e:	18 95       	reti

00000e80 <_Z41__static_initialization_and_destruction_0ii>:
     e80:	cf 93       	push	r28
     e82:	df 93       	push	r29
     e84:	00 d0       	rcall	.+0      	; 0xe86 <_Z41__static_initialization_and_destruction_0ii+0x6>
     e86:	00 d0       	rcall	.+0      	; 0xe88 <_Z41__static_initialization_and_destruction_0ii+0x8>
     e88:	cd b7       	in	r28, 0x3d	; 61
     e8a:	de b7       	in	r29, 0x3e	; 62
     e8c:	9a 83       	std	Y+2, r25	; 0x02
     e8e:	89 83       	std	Y+1, r24	; 0x01
     e90:	7c 83       	std	Y+4, r23	; 0x04
     e92:	6b 83       	std	Y+3, r22	; 0x03
     e94:	89 81       	ldd	r24, Y+1	; 0x01
     e96:	9a 81       	ldd	r25, Y+2	; 0x02
     e98:	01 97       	sbiw	r24, 0x01	; 1
     e9a:	39 f4       	brne	.+14     	; 0xeaa <_Z41__static_initialization_and_destruction_0ii+0x2a>
     e9c:	8b 81       	ldd	r24, Y+3	; 0x03
     e9e:	9c 81       	ldd	r25, Y+4	; 0x04
     ea0:	01 96       	adiw	r24, 0x01	; 1
     ea2:	19 f4       	brne	.+6      	; 0xeaa <_Z41__static_initialization_and_destruction_0ii+0x2a>

//
// static class instance and members
//

Adc Adc::adc;
     ea4:	8c e0       	ldi	r24, 0x0C	; 12
     ea6:	91 e0       	ldi	r25, 0x01	; 1
     ea8:	20 df       	rcall	.-448    	; 0xcea <_ZN3AdcC1Ev>
}

ISR( ADC_vect ) // use interrupt here to be interruptable
{
       Adc::adcInt();
}
     eaa:	0f 90       	pop	r0
     eac:	0f 90       	pop	r0
     eae:	0f 90       	pop	r0
     eb0:	0f 90       	pop	r0
     eb2:	df 91       	pop	r29
     eb4:	cf 91       	pop	r28
     eb6:	08 95       	ret

00000eb8 <_GLOBAL__sub_I__ZN3Adc3adcE>:
     eb8:	cf 93       	push	r28
     eba:	df 93       	push	r29
     ebc:	cd b7       	in	r28, 0x3d	; 61
     ebe:	de b7       	in	r29, 0x3e	; 62
     ec0:	6f ef       	ldi	r22, 0xFF	; 255
     ec2:	7f ef       	ldi	r23, 0xFF	; 255
     ec4:	81 e0       	ldi	r24, 0x01	; 1
     ec6:	90 e0       	ldi	r25, 0x00	; 0
     ec8:	db df       	rcall	.-74     	; 0xe80 <_Z41__static_initialization_and_destruction_0ii>
     eca:	df 91       	pop	r29
     ecc:	cf 91       	pop	r28
     ece:	08 95       	ret

00000ed0 <_ZN3AppC1Ev>:
// Static class instances and members
//

App App::app;

App::App()
     ed0:	cf 93       	push	r28
     ed2:	df 93       	push	r29
     ed4:	00 d0       	rcall	.+0      	; 0xed6 <_ZN3AppC1Ev+0x6>
     ed6:	cd b7       	in	r28, 0x3d	; 61
     ed8:	de b7       	in	r29, 0x3e	; 62
     eda:	9a 83       	std	Y+2, r25	; 0x02
     edc:	89 83       	std	Y+1, r24	; 0x01
{
}
     ede:	0f 90       	pop	r0
     ee0:	0f 90       	pop	r0
     ee2:	df 91       	pop	r29
     ee4:	cf 91       	pop	r28
     ee6:	08 95       	ret

00000ee8 <_ZN3App9dmxScreenEv>:
//
// base screen output
//

void App::dmxScreen()           // output screen when DMX is active
{
     ee8:	cf 93       	push	r28
     eea:	df 93       	push	r29
     eec:	cd b7       	in	r28, 0x3d	; 61
     eee:	de b7       	in	r29, 0x3e	; 62
     ef0:	2f 97       	sbiw	r28, 0x0f	; 15
     ef2:	0f b6       	in	r0, 0x3f	; 63
     ef4:	f8 94       	cli
     ef6:	de bf       	out	0x3e, r29	; 62
     ef8:	0f be       	out	0x3f, r0	; 63
     efa:	cd bf       	out	0x3d, r28	; 61
     efc:	99 87       	std	Y+9, r25	; 0x09
     efe:	88 87       	std	Y+8, r24	; 0x08
   
    unsigned char rr, pg, page = 0, x , percent;
     f00:	1a 82       	std	Y+2, r1	; 0x02
    int key;
    Lcd::lcd.clear();
     f02:	8e e9       	ldi	r24, 0x9E	; 158
     f04:	91 e0       	ldi	r25, 0x01	; 1
     f06:	0e 94 5d 15 	call	0x2aba	; 0x2aba <_ZN3Lcd5clearEv>
    while (Dmx::valid) {
     f0a:	36 c1       	rjmp	.+620    	; 0x1178 <__stack+0x79>
		wdt_reset();
     f0c:	a8 95       	wdr
        pg = page * 12;
     f0e:	9a 81       	ldd	r25, Y+2	; 0x02
     f10:	89 2f       	mov	r24, r25
     f12:	88 0f       	add	r24, r24
     f14:	89 0f       	add	r24, r25
     f16:	88 0f       	add	r24, r24
     f18:	88 0f       	add	r24, r24
     f1a:	8b 83       	std	Y+3, r24	; 0x03
        printfLcd(0, 0, "DMX ch. %3d-%3d:", Nvr::setup.dmxAddr + pg,
     f1c:	20 91 c5 01 	lds	r18, 0x01C5
     f20:	30 91 c6 01 	lds	r19, 0x01C6
     f24:	8b 81       	ldd	r24, Y+3	; 0x03
     f26:	88 2f       	mov	r24, r24
     f28:	90 e0       	ldi	r25, 0x00	; 0
     f2a:	82 0f       	add	r24, r18
     f2c:	93 1f       	adc	r25, r19
     f2e:	ac 01       	movw	r20, r24
     f30:	45 5f       	subi	r20, 0xF5	; 245
     f32:	5f 4f       	sbci	r21, 0xFF	; 255
     f34:	20 91 c5 01 	lds	r18, 0x01C5
     f38:	30 91 c6 01 	lds	r19, 0x01C6
     f3c:	8b 81       	ldd	r24, Y+3	; 0x03
     f3e:	88 2f       	mov	r24, r24
     f40:	90 e0       	ldi	r25, 0x00	; 0
     f42:	28 0f       	add	r18, r24
     f44:	39 1f       	adc	r19, r25
     f46:	8c e8       	ldi	r24, 0x8C	; 140
     f48:	90 e0       	ldi	r25, 0x00	; 0
                  Nvr::setup.dmxAddr + 11 + pg);
     f4a:	65 2f       	mov	r22, r21
     f4c:	6f 93       	push	r22
     f4e:	4f 93       	push	r20
     f50:	43 2f       	mov	r20, r19
     f52:	4f 93       	push	r20
     f54:	2f 93       	push	r18
     f56:	29 2f       	mov	r18, r25
     f58:	2f 93       	push	r18
     f5a:	8f 93       	push	r24
     f5c:	1f 92       	push	r1
     f5e:	1f 92       	push	r1
     f60:	8e e9       	ldi	r24, 0x9E	; 158
     f62:	91 e0       	ldi	r25, 0x01	; 1
     f64:	89 2f       	mov	r24, r25
     f66:	8f 93       	push	r24
     f68:	8e e9       	ldi	r24, 0x9E	; 158
     f6a:	91 e0       	ldi	r25, 0x01	; 1
     f6c:	8f 93       	push	r24
     f6e:	0e 94 3f 15 	call	0x2a7e	; 0x2a7e <_ZN3Lcd5printEhhPKcz>
     f72:	8d b7       	in	r24, 0x3d	; 61
     f74:	9e b7       	in	r25, 0x3e	; 62
     f76:	0a 96       	adiw	r24, 0x0a	; 10
     f78:	0f b6       	in	r0, 0x3f	; 63
     f7a:	f8 94       	cli
     f7c:	de bf       	out	0x3e, r29	; 62
     f7e:	0f be       	out	0x3f, r0	; 63
     f80:	cd bf       	out	0x3d, r28	; 61
        for (rr = 0; rr < 4; rr++) {
     f82:	19 82       	std	Y+1, r1	; 0x01
     f84:	cf c0       	rjmp	.+414    	; 0x1124 <__stack+0x25>
            x = rr * 3 + 5;
     f86:	99 81       	ldd	r25, Y+1	; 0x01
     f88:	89 2f       	mov	r24, r25
     f8a:	88 0f       	add	r24, r24
     f8c:	89 0f       	add	r24, r25
     f8e:	8b 5f       	subi	r24, 0xFB	; 251
     f90:	8c 83       	std	Y+4, r24	; 0x04
            percent = (unsigned char) (Dmx::inVal[rr + pg] * 100 / 255);
     f92:	89 81       	ldd	r24, Y+1	; 0x01
     f94:	28 2f       	mov	r18, r24
     f96:	30 e0       	ldi	r19, 0x00	; 0
     f98:	8b 81       	ldd	r24, Y+3	; 0x03
     f9a:	88 2f       	mov	r24, r24
     f9c:	90 e0       	ldi	r25, 0x00	; 0
     f9e:	82 0f       	add	r24, r18
     fa0:	93 1f       	adc	r25, r19
     fa2:	8c 59       	subi	r24, 0x9C	; 156
     fa4:	9e 4f       	sbci	r25, 0xFE	; 254
     fa6:	fc 01       	movw	r30, r24
     fa8:	80 81       	ld	r24, Z
     faa:	88 2f       	mov	r24, r24
     fac:	90 e0       	ldi	r25, 0x00	; 0
     fae:	24 e6       	ldi	r18, 0x64	; 100
     fb0:	28 9f       	mul	r18, r24
     fb2:	a0 01       	movw	r20, r0
     fb4:	29 9f       	mul	r18, r25
     fb6:	50 0d       	add	r21, r0
     fb8:	11 24       	eor	r1, r1
     fba:	2f ef       	ldi	r18, 0xFF	; 255
     fbc:	30 e0       	ldi	r19, 0x00	; 0
     fbe:	ca 01       	movw	r24, r20
     fc0:	b9 01       	movw	r22, r18
     fc2:	0e 94 bc 32 	call	0x6578	; 0x6578 <__divmodhi4>
     fc6:	cb 01       	movw	r24, r22
     fc8:	8d 83       	std	Y+5, r24	; 0x05
            Lcd::lcd.goTo(1, x);
     fca:	4c 81       	ldd	r20, Y+4	; 0x04
     fcc:	61 e0       	ldi	r22, 0x01	; 1
     fce:	8e e9       	ldi	r24, 0x9E	; 158
     fd0:	91 e0       	ldi	r25, 0x01	; 1
     fd2:	0e 94 04 15 	call	0x2a08	; 0x2a08 <_ZN3Lcd4goToEhh>
            if (percent < 100)
     fd6:	8d 81       	ldd	r24, Y+5	; 0x05
     fd8:	84 36       	cpi	r24, 0x64	; 100
     fda:	90 f4       	brcc	.+36     	; 0x1000 <_ZN3App9dmxScreenEv+0x118>
                printfL("%2d ", percent);
     fdc:	8d 81       	ldd	r24, Y+5	; 0x05
     fde:	28 2f       	mov	r18, r24
     fe0:	30 e0       	ldi	r19, 0x00	; 0
     fe2:	8d e9       	ldi	r24, 0x9D	; 157
     fe4:	90 e0       	ldi	r25, 0x00	; 0
     fe6:	43 2f       	mov	r20, r19
     fe8:	4f 93       	push	r20
     fea:	2f 93       	push	r18
     fec:	29 2f       	mov	r18, r25
     fee:	2f 93       	push	r18
     ff0:	8f 93       	push	r24
     ff2:	0e 94 bf 33 	call	0x677e	; 0x677e <printf_P>
     ff6:	0f 90       	pop	r0
     ff8:	0f 90       	pop	r0
     ffa:	0f 90       	pop	r0
     ffc:	0f 90       	pop	r0
     ffe:	09 c0       	rjmp	.+18     	; 0x1012 <_ZN3App9dmxScreenEv+0x12a>
            else
                printfL("FL ");
    1000:	82 ea       	ldi	r24, 0xA2	; 162
    1002:	90 e0       	ldi	r25, 0x00	; 0
    1004:	29 2f       	mov	r18, r25
    1006:	2f 93       	push	r18
    1008:	8f 93       	push	r24
    100a:	0e 94 bf 33 	call	0x677e	; 0x677e <printf_P>
    100e:	0f 90       	pop	r0
    1010:	0f 90       	pop	r0
            Lcd::lcd.goTo(2, x);
    1012:	4c 81       	ldd	r20, Y+4	; 0x04
    1014:	62 e0       	ldi	r22, 0x02	; 2
    1016:	8e e9       	ldi	r24, 0x9E	; 158
    1018:	91 e0       	ldi	r25, 0x01	; 1
    101a:	0e 94 04 15 	call	0x2a08	; 0x2a08 <_ZN3Lcd4goToEhh>
            percent =(unsigned char) (Dmx::inVal[rr + 4 + pg] * 100 / 255);
    101e:	89 81       	ldd	r24, Y+1	; 0x01
    1020:	88 2f       	mov	r24, r24
    1022:	90 e0       	ldi	r25, 0x00	; 0
    1024:	9c 01       	movw	r18, r24
    1026:	2c 5f       	subi	r18, 0xFC	; 252
    1028:	3f 4f       	sbci	r19, 0xFF	; 255
    102a:	8b 81       	ldd	r24, Y+3	; 0x03
    102c:	88 2f       	mov	r24, r24
    102e:	90 e0       	ldi	r25, 0x00	; 0
    1030:	82 0f       	add	r24, r18
    1032:	93 1f       	adc	r25, r19
    1034:	8c 59       	subi	r24, 0x9C	; 156
    1036:	9e 4f       	sbci	r25, 0xFE	; 254
    1038:	fc 01       	movw	r30, r24
    103a:	80 81       	ld	r24, Z
    103c:	88 2f       	mov	r24, r24
    103e:	90 e0       	ldi	r25, 0x00	; 0
    1040:	24 e6       	ldi	r18, 0x64	; 100
    1042:	28 9f       	mul	r18, r24
    1044:	a0 01       	movw	r20, r0
    1046:	29 9f       	mul	r18, r25
    1048:	50 0d       	add	r21, r0
    104a:	11 24       	eor	r1, r1
    104c:	2f ef       	ldi	r18, 0xFF	; 255
    104e:	30 e0       	ldi	r19, 0x00	; 0
    1050:	ca 01       	movw	r24, r20
    1052:	b9 01       	movw	r22, r18
    1054:	0e 94 bc 32 	call	0x6578	; 0x6578 <__divmodhi4>
    1058:	cb 01       	movw	r24, r22
    105a:	8d 83       	std	Y+5, r24	; 0x05
            if (percent < 100)
    105c:	8d 81       	ldd	r24, Y+5	; 0x05
    105e:	84 36       	cpi	r24, 0x64	; 100
    1060:	90 f4       	brcc	.+36     	; 0x1086 <_ZN3App9dmxScreenEv+0x19e>
                printfL("%2d ", percent);
    1062:	8d 81       	ldd	r24, Y+5	; 0x05
    1064:	28 2f       	mov	r18, r24
    1066:	30 e0       	ldi	r19, 0x00	; 0
    1068:	86 ea       	ldi	r24, 0xA6	; 166
    106a:	90 e0       	ldi	r25, 0x00	; 0
    106c:	43 2f       	mov	r20, r19
    106e:	4f 93       	push	r20
    1070:	2f 93       	push	r18
    1072:	29 2f       	mov	r18, r25
    1074:	2f 93       	push	r18
    1076:	8f 93       	push	r24
    1078:	0e 94 bf 33 	call	0x677e	; 0x677e <printf_P>
    107c:	0f 90       	pop	r0
    107e:	0f 90       	pop	r0
    1080:	0f 90       	pop	r0
    1082:	0f 90       	pop	r0
    1084:	09 c0       	rjmp	.+18     	; 0x1098 <_ZN3App9dmxScreenEv+0x1b0>
            else
                printfL("FL ");
    1086:	8b ea       	ldi	r24, 0xAB	; 171
    1088:	90 e0       	ldi	r25, 0x00	; 0
    108a:	29 2f       	mov	r18, r25
    108c:	2f 93       	push	r18
    108e:	8f 93       	push	r24
    1090:	0e 94 bf 33 	call	0x677e	; 0x677e <printf_P>
    1094:	0f 90       	pop	r0
    1096:	0f 90       	pop	r0
            percent = (unsigned char) (Dmx::inVal[rr + 8 + pg] * 100 / 255);
    1098:	89 81       	ldd	r24, Y+1	; 0x01
    109a:	88 2f       	mov	r24, r24
    109c:	90 e0       	ldi	r25, 0x00	; 0
    109e:	9c 01       	movw	r18, r24
    10a0:	28 5f       	subi	r18, 0xF8	; 248
    10a2:	3f 4f       	sbci	r19, 0xFF	; 255
    10a4:	8b 81       	ldd	r24, Y+3	; 0x03
    10a6:	88 2f       	mov	r24, r24
    10a8:	90 e0       	ldi	r25, 0x00	; 0
    10aa:	82 0f       	add	r24, r18
    10ac:	93 1f       	adc	r25, r19
    10ae:	8c 59       	subi	r24, 0x9C	; 156
    10b0:	9e 4f       	sbci	r25, 0xFE	; 254
    10b2:	fc 01       	movw	r30, r24
    10b4:	80 81       	ld	r24, Z
    10b6:	88 2f       	mov	r24, r24
    10b8:	90 e0       	ldi	r25, 0x00	; 0
    10ba:	24 e6       	ldi	r18, 0x64	; 100
    10bc:	28 9f       	mul	r18, r24
    10be:	a0 01       	movw	r20, r0
    10c0:	29 9f       	mul	r18, r25
    10c2:	50 0d       	add	r21, r0
    10c4:	11 24       	eor	r1, r1
    10c6:	2f ef       	ldi	r18, 0xFF	; 255
    10c8:	30 e0       	ldi	r19, 0x00	; 0
    10ca:	ca 01       	movw	r24, r20
    10cc:	b9 01       	movw	r22, r18
    10ce:	0e 94 bc 32 	call	0x6578	; 0x6578 <__divmodhi4>
    10d2:	cb 01       	movw	r24, r22
    10d4:	8d 83       	std	Y+5, r24	; 0x05
            Lcd::lcd.goTo(3, x);
    10d6:	4c 81       	ldd	r20, Y+4	; 0x04
    10d8:	63 e0       	ldi	r22, 0x03	; 3
    10da:	8e e9       	ldi	r24, 0x9E	; 158
    10dc:	91 e0       	ldi	r25, 0x01	; 1
    10de:	0e 94 04 15 	call	0x2a08	; 0x2a08 <_ZN3Lcd4goToEhh>
            if (percent < 100)
    10e2:	8d 81       	ldd	r24, Y+5	; 0x05
    10e4:	84 36       	cpi	r24, 0x64	; 100
    10e6:	90 f4       	brcc	.+36     	; 0x110c <__stack+0xd>
                printfL("%2d ", percent);
    10e8:	8d 81       	ldd	r24, Y+5	; 0x05
    10ea:	28 2f       	mov	r18, r24
    10ec:	30 e0       	ldi	r19, 0x00	; 0
    10ee:	8f ea       	ldi	r24, 0xAF	; 175
    10f0:	90 e0       	ldi	r25, 0x00	; 0
    10f2:	43 2f       	mov	r20, r19
    10f4:	4f 93       	push	r20
    10f6:	2f 93       	push	r18
    10f8:	29 2f       	mov	r18, r25
    10fa:	2f 93       	push	r18
    10fc:	8f 93       	push	r24
    10fe:	0e 94 bf 33 	call	0x677e	; 0x677e <printf_P>
    1102:	0f 90       	pop	r0
    1104:	0f 90       	pop	r0
    1106:	0f 90       	pop	r0
    1108:	0f 90       	pop	r0
    110a:	09 c0       	rjmp	.+18     	; 0x111e <__stack+0x1f>
            else
                printfL("FL ");
    110c:	84 eb       	ldi	r24, 0xB4	; 180
    110e:	90 e0       	ldi	r25, 0x00	; 0
    1110:	29 2f       	mov	r18, r25
    1112:	2f 93       	push	r18
    1114:	8f 93       	push	r24
    1116:	0e 94 bf 33 	call	0x677e	; 0x677e <printf_P>
    111a:	0f 90       	pop	r0
    111c:	0f 90       	pop	r0
    while (Dmx::valid) {
		wdt_reset();
        pg = page * 12;
        printfLcd(0, 0, "DMX ch. %3d-%3d:", Nvr::setup.dmxAddr + pg,
                  Nvr::setup.dmxAddr + 11 + pg);
        for (rr = 0; rr < 4; rr++) {
    111e:	89 81       	ldd	r24, Y+1	; 0x01
    1120:	8f 5f       	subi	r24, 0xFF	; 255
    1122:	89 83       	std	Y+1, r24	; 0x01
    1124:	89 81       	ldd	r24, Y+1	; 0x01
    1126:	84 30       	cpi	r24, 0x04	; 4
    1128:	08 f4       	brcc	.+2      	; 0x112c <__stack+0x2d>
    112a:	2d cf       	rjmp	.-422    	; 0xf86 <_ZN3App9dmxScreenEv+0x9e>
            if (percent < 100)
                printfL("%2d ", percent);
            else
                printfL("FL ");
        }
        if ((key = getchar()) != EOF) {
    112c:	80 91 a5 02 	lds	r24, 0x02A5
    1130:	90 91 a6 02 	lds	r25, 0x02A6
    1134:	0e 94 81 33 	call	0x6702	; 0x6702 <fgetc>
    1138:	9f 83       	std	Y+7, r25	; 0x07
    113a:	8e 83       	std	Y+6, r24	; 0x06
    113c:	21 e0       	ldi	r18, 0x01	; 1
    113e:	8e 81       	ldd	r24, Y+6	; 0x06
    1140:	9f 81       	ldd	r25, Y+7	; 0x07
    1142:	01 96       	adiw	r24, 0x01	; 1
    1144:	09 f4       	brne	.+2      	; 0x1148 <__stack+0x49>
    1146:	20 e0       	ldi	r18, 0x00	; 0
    1148:	22 23       	and	r18, r18
    114a:	b1 f0       	breq	.+44     	; 0x1178 <__stack+0x79>
            switch ((unsigned char) key) {
    114c:	8e 81       	ldd	r24, Y+6	; 0x06
    114e:	88 2f       	mov	r24, r24
    1150:	90 e0       	ldi	r25, 0x00	; 0
    1152:	80 31       	cpi	r24, 0x10	; 16
    1154:	91 05       	cpc	r25, r1
    1156:	41 f0       	breq	.+16     	; 0x1168 <__stack+0x69>
    1158:	80 38       	cpi	r24, 0x80	; 128
    115a:	91 05       	cpc	r25, r1
    115c:	41 f0       	breq	.+16     	; 0x116e <__stack+0x6f>
    115e:	04 97       	sbiw	r24, 0x04	; 4
    1160:	09 f0       	breq	.+2      	; 0x1164 <__stack+0x65>
                    break;
                case ENT:
                    Menue::menue.base();
                    break;
                default:
                    break;
    1162:	0a c0       	rjmp	.+20     	; 0x1178 <__stack+0x79>
                printfL("FL ");
        }
        if ((key = getchar()) != EOF) {
            switch ((unsigned char) key) {
                case BACK:
                    page = 0;
    1164:	1a 82       	std	Y+2, r1	; 0x02
                    break;
    1166:	08 c0       	rjmp	.+16     	; 0x1178 <__stack+0x79>
                case FORW:
                    if (NUMCHAN > 12)
                        page = 1;
    1168:	81 e0       	ldi	r24, 0x01	; 1
    116a:	8a 83       	std	Y+2, r24	; 0x02
                    break;
    116c:	05 c0       	rjmp	.+10     	; 0x1178 <__stack+0x79>
                case ENT:
                    Menue::menue.base();
    116e:	81 ea       	ldi	r24, 0xA1	; 161
    1170:	91 e0       	ldi	r25, 0x01	; 1
    1172:	0e 94 b3 15 	call	0x2b66	; 0x2b66 <_ZN5Menue4baseEv>
                    break;
    1176:	00 00       	nop
{
   
    unsigned char rr, pg, page = 0, x , percent;
    int key;
    Lcd::lcd.clear();
    while (Dmx::valid) {
    1178:	90 91 7c 01 	lds	r25, 0x017C
    117c:	81 e0       	ldi	r24, 0x01	; 1
    117e:	99 23       	and	r25, r25
    1180:	09 f4       	brne	.+2      	; 0x1184 <__stack+0x85>
    1182:	80 e0       	ldi	r24, 0x00	; 0
    1184:	88 23       	and	r24, r24
    1186:	09 f0       	breq	.+2      	; 0x118a <__stack+0x8b>
    1188:	c1 ce       	rjmp	.-638    	; 0xf0c <_ZN3App9dmxScreenEv+0x24>
                default:
                    break;
            }
        }
    }
}
    118a:	2f 96       	adiw	r28, 0x0f	; 15
    118c:	0f b6       	in	r0, 0x3f	; 63
    118e:	f8 94       	cli
    1190:	de bf       	out	0x3e, r29	; 62
    1192:	0f be       	out	0x3f, r0	; 63
    1194:	cd bf       	out	0x3d, r28	; 61
    1196:	df 91       	pop	r29
    1198:	cf 91       	pop	r28
    119a:	08 95       	ret

0000119c <_ZN3App11localScreenEv>:

void App::localScreen()
{                               // output screen when DMX is inactive
    119c:	cf 93       	push	r28
    119e:	df 93       	push	r29
    11a0:	cd b7       	in	r28, 0x3d	; 61
    11a2:	de b7       	in	r29, 0x3e	; 62
    11a4:	6c 97       	sbiw	r28, 0x1c	; 28
    11a6:	0f b6       	in	r0, 0x3f	; 63
    11a8:	f8 94       	cli
    11aa:	de bf       	out	0x3e, r29	; 62
    11ac:	0f be       	out	0x3f, r0	; 63
    11ae:	cd bf       	out	0x3d, r28	; 61
    11b0:	98 87       	std	Y+8, r25	; 0x08
    11b2:	8f 83       	std	Y+7, r24	; 0x07
	unsigned char rr, pr, x, percent;
    static unsigned char n;
	int key;
    Lcd::lcd.clear();
    11b4:	8e e9       	ldi	r24, 0x9E	; 158
    11b6:	91 e0       	ldi	r25, 0x01	; 1
    11b8:	0e 94 5d 15 	call	0x2aba	; 0x2aba <_ZN3Lcd5clearEv>
    Kbd::autoRepeat = 1;
    11bc:	81 e0       	ldi	r24, 0x01	; 1
    11be:	80 93 94 01 	sts	0x0194, r24
  redisplay:
    wdt_reset();
    11c2:	a8 95       	wdr
    if (n < 8) {
    11c4:	80 91 1b 01 	lds	r24, 0x011B
    11c8:	88 30       	cpi	r24, 0x08	; 8
    11ca:	08 f0       	brcs	.+2      	; 0x11ce <_ZN3App11localScreenEv+0x32>
    11cc:	0b c1       	rjmp	.+534    	; 0x13e4 <_ZN3App11localScreenEv+0x248>
        for (rr = 0; rr < 4; rr++) {
    11ce:	19 82       	std	Y+1, r1	; 0x01
    11d0:	ec c0       	rjmp	.+472    	; 0x13aa <_ZN3App11localScreenEv+0x20e>
            x = rr * 4;
    11d2:	89 81       	ldd	r24, Y+1	; 0x01
    11d4:	88 0f       	add	r24, r24
    11d6:	88 0f       	add	r24, r24
    11d8:	8a 83       	std	Y+2, r24	; 0x02
            percent = (unsigned char) (Dmx::inVal[rr] * 100 / 255);
    11da:	89 81       	ldd	r24, Y+1	; 0x01
    11dc:	88 2f       	mov	r24, r24
    11de:	90 e0       	ldi	r25, 0x00	; 0
    11e0:	8c 59       	subi	r24, 0x9C	; 156
    11e2:	9e 4f       	sbci	r25, 0xFE	; 254
    11e4:	fc 01       	movw	r30, r24
    11e6:	80 81       	ld	r24, Z
    11e8:	88 2f       	mov	r24, r24
    11ea:	90 e0       	ldi	r25, 0x00	; 0
    11ec:	24 e6       	ldi	r18, 0x64	; 100
    11ee:	28 9f       	mul	r18, r24
    11f0:	a0 01       	movw	r20, r0
    11f2:	29 9f       	mul	r18, r25
    11f4:	50 0d       	add	r21, r0
    11f6:	11 24       	eor	r1, r1
    11f8:	2f ef       	ldi	r18, 0xFF	; 255
    11fa:	30 e0       	ldi	r19, 0x00	; 0
    11fc:	ca 01       	movw	r24, r20
    11fe:	b9 01       	movw	r22, r18
    1200:	0e 94 bc 32 	call	0x6578	; 0x6578 <__divmodhi4>
    1204:	cb 01       	movw	r24, r22
    1206:	8b 83       	std	Y+3, r24	; 0x03
            Lcd::lcd.goTo(0, x);
    1208:	4a 81       	ldd	r20, Y+2	; 0x02
    120a:	60 e0       	ldi	r22, 0x00	; 0
    120c:	8e e9       	ldi	r24, 0x9E	; 158
    120e:	91 e0       	ldi	r25, 0x01	; 1
    1210:	0e 94 04 15 	call	0x2a08	; 0x2a08 <_ZN3Lcd4goToEhh>
            if (n == rr)
    1214:	90 91 1b 01 	lds	r25, 0x011B
    1218:	89 81       	ldd	r24, Y+1	; 0x01
    121a:	98 17       	cp	r25, r24
    121c:	a9 f4       	brne	.+42     	; 0x1248 <_ZN3App11localScreenEv+0xac>
                printfL(">%02d<", rr + 1);
    121e:	89 81       	ldd	r24, Y+1	; 0x01
    1220:	88 2f       	mov	r24, r24
    1222:	90 e0       	ldi	r25, 0x00	; 0
    1224:	9c 01       	movw	r18, r24
    1226:	2f 5f       	subi	r18, 0xFF	; 255
    1228:	3f 4f       	sbci	r19, 0xFF	; 255
    122a:	88 eb       	ldi	r24, 0xB8	; 184
    122c:	90 e0       	ldi	r25, 0x00	; 0
    122e:	43 2f       	mov	r20, r19
    1230:	4f 93       	push	r20
    1232:	2f 93       	push	r18
    1234:	29 2f       	mov	r18, r25
    1236:	2f 93       	push	r18
    1238:	8f 93       	push	r24
    123a:	0e 94 bf 33 	call	0x677e	; 0x677e <printf_P>
    123e:	0f 90       	pop	r0
    1240:	0f 90       	pop	r0
    1242:	0f 90       	pop	r0
    1244:	0f 90       	pop	r0
    1246:	14 c0       	rjmp	.+40     	; 0x1270 <_ZN3App11localScreenEv+0xd4>
            else
                printfL(" %02d ", rr + 1);
    1248:	89 81       	ldd	r24, Y+1	; 0x01
    124a:	88 2f       	mov	r24, r24
    124c:	90 e0       	ldi	r25, 0x00	; 0
    124e:	9c 01       	movw	r18, r24
    1250:	2f 5f       	subi	r18, 0xFF	; 255
    1252:	3f 4f       	sbci	r19, 0xFF	; 255
    1254:	8f eb       	ldi	r24, 0xBF	; 191
    1256:	90 e0       	ldi	r25, 0x00	; 0
    1258:	43 2f       	mov	r20, r19
    125a:	4f 93       	push	r20
    125c:	2f 93       	push	r18
    125e:	29 2f       	mov	r18, r25
    1260:	2f 93       	push	r18
    1262:	8f 93       	push	r24
    1264:	0e 94 bf 33 	call	0x677e	; 0x677e <printf_P>
    1268:	0f 90       	pop	r0
    126a:	0f 90       	pop	r0
    126c:	0f 90       	pop	r0
    126e:	0f 90       	pop	r0
            Lcd::lcd.goTo(1, x);
    1270:	4a 81       	ldd	r20, Y+2	; 0x02
    1272:	61 e0       	ldi	r22, 0x01	; 1
    1274:	8e e9       	ldi	r24, 0x9E	; 158
    1276:	91 e0       	ldi	r25, 0x01	; 1
    1278:	0e 94 04 15 	call	0x2a08	; 0x2a08 <_ZN3Lcd4goToEhh>
            if (percent < 100){
    127c:	8b 81       	ldd	r24, Y+3	; 0x03
    127e:	84 36       	cpi	r24, 0x64	; 100
    1280:	90 f4       	brcc	.+36     	; 0x12a6 <_ZN3App11localScreenEv+0x10a>
                printfL(" %02d ", percent);
    1282:	8b 81       	ldd	r24, Y+3	; 0x03
    1284:	28 2f       	mov	r18, r24
    1286:	30 e0       	ldi	r19, 0x00	; 0
    1288:	86 ec       	ldi	r24, 0xC6	; 198
    128a:	90 e0       	ldi	r25, 0x00	; 0
    128c:	43 2f       	mov	r20, r19
    128e:	4f 93       	push	r20
    1290:	2f 93       	push	r18
    1292:	29 2f       	mov	r18, r25
    1294:	2f 93       	push	r18
    1296:	8f 93       	push	r24
    1298:	0e 94 bf 33 	call	0x677e	; 0x677e <printf_P>
    129c:	0f 90       	pop	r0
    129e:	0f 90       	pop	r0
    12a0:	0f 90       	pop	r0
    12a2:	0f 90       	pop	r0
    12a4:	09 c0       	rjmp	.+18     	; 0x12b8 <_ZN3App11localScreenEv+0x11c>
			}
            else
                printfL(" FL ");
    12a6:	8d ec       	ldi	r24, 0xCD	; 205
    12a8:	90 e0       	ldi	r25, 0x00	; 0
    12aa:	29 2f       	mov	r18, r25
    12ac:	2f 93       	push	r18
    12ae:	8f 93       	push	r24
    12b0:	0e 94 bf 33 	call	0x677e	; 0x677e <printf_P>
    12b4:	0f 90       	pop	r0
    12b6:	0f 90       	pop	r0
            percent = (unsigned char) (Dmx::inVal[rr + 4] * 100 / 255);
    12b8:	89 81       	ldd	r24, Y+1	; 0x01
    12ba:	88 2f       	mov	r24, r24
    12bc:	90 e0       	ldi	r25, 0x00	; 0
    12be:	04 96       	adiw	r24, 0x04	; 4
    12c0:	8c 59       	subi	r24, 0x9C	; 156
    12c2:	9e 4f       	sbci	r25, 0xFE	; 254
    12c4:	fc 01       	movw	r30, r24
    12c6:	80 81       	ld	r24, Z
    12c8:	88 2f       	mov	r24, r24
    12ca:	90 e0       	ldi	r25, 0x00	; 0
    12cc:	24 e6       	ldi	r18, 0x64	; 100
    12ce:	28 9f       	mul	r18, r24
    12d0:	a0 01       	movw	r20, r0
    12d2:	29 9f       	mul	r18, r25
    12d4:	50 0d       	add	r21, r0
    12d6:	11 24       	eor	r1, r1
    12d8:	2f ef       	ldi	r18, 0xFF	; 255
    12da:	30 e0       	ldi	r19, 0x00	; 0
    12dc:	ca 01       	movw	r24, r20
    12de:	b9 01       	movw	r22, r18
    12e0:	0e 94 bc 32 	call	0x6578	; 0x6578 <__divmodhi4>
    12e4:	cb 01       	movw	r24, r22
    12e6:	8b 83       	std	Y+3, r24	; 0x03
            Lcd::lcd.goTo(2, x);
    12e8:	4a 81       	ldd	r20, Y+2	; 0x02
    12ea:	62 e0       	ldi	r22, 0x02	; 2
    12ec:	8e e9       	ldi	r24, 0x9E	; 158
    12ee:	91 e0       	ldi	r25, 0x01	; 1
    12f0:	0e 94 04 15 	call	0x2a08	; 0x2a08 <_ZN3Lcd4goToEhh>
            if (n == rr + 4)
    12f4:	80 91 1b 01 	lds	r24, 0x011B
    12f8:	28 2f       	mov	r18, r24
    12fa:	30 e0       	ldi	r19, 0x00	; 0
    12fc:	89 81       	ldd	r24, Y+1	; 0x01
    12fe:	88 2f       	mov	r24, r24
    1300:	90 e0       	ldi	r25, 0x00	; 0
    1302:	04 96       	adiw	r24, 0x04	; 4
    1304:	28 17       	cp	r18, r24
    1306:	39 07       	cpc	r19, r25
    1308:	a9 f4       	brne	.+42     	; 0x1334 <_ZN3App11localScreenEv+0x198>
                printfL(">%02d<", rr + 4 + 1);
    130a:	89 81       	ldd	r24, Y+1	; 0x01
    130c:	88 2f       	mov	r24, r24
    130e:	90 e0       	ldi	r25, 0x00	; 0
    1310:	9c 01       	movw	r18, r24
    1312:	2b 5f       	subi	r18, 0xFB	; 251
    1314:	3f 4f       	sbci	r19, 0xFF	; 255
    1316:	82 ed       	ldi	r24, 0xD2	; 210
    1318:	90 e0       	ldi	r25, 0x00	; 0
    131a:	43 2f       	mov	r20, r19
    131c:	4f 93       	push	r20
    131e:	2f 93       	push	r18
    1320:	29 2f       	mov	r18, r25
    1322:	2f 93       	push	r18
    1324:	8f 93       	push	r24
    1326:	0e 94 bf 33 	call	0x677e	; 0x677e <printf_P>
    132a:	0f 90       	pop	r0
    132c:	0f 90       	pop	r0
    132e:	0f 90       	pop	r0
    1330:	0f 90       	pop	r0
    1332:	14 c0       	rjmp	.+40     	; 0x135c <_ZN3App11localScreenEv+0x1c0>
            else
                printfL(" %02d ", rr + 4 + 1);
    1334:	89 81       	ldd	r24, Y+1	; 0x01
    1336:	88 2f       	mov	r24, r24
    1338:	90 e0       	ldi	r25, 0x00	; 0
    133a:	9c 01       	movw	r18, r24
    133c:	2b 5f       	subi	r18, 0xFB	; 251
    133e:	3f 4f       	sbci	r19, 0xFF	; 255
    1340:	89 ed       	ldi	r24, 0xD9	; 217
    1342:	90 e0       	ldi	r25, 0x00	; 0
    1344:	43 2f       	mov	r20, r19
    1346:	4f 93       	push	r20
    1348:	2f 93       	push	r18
    134a:	29 2f       	mov	r18, r25
    134c:	2f 93       	push	r18
    134e:	8f 93       	push	r24
    1350:	0e 94 bf 33 	call	0x677e	; 0x677e <printf_P>
    1354:	0f 90       	pop	r0
    1356:	0f 90       	pop	r0
    1358:	0f 90       	pop	r0
    135a:	0f 90       	pop	r0
            Lcd::lcd.goTo(3, x);
    135c:	4a 81       	ldd	r20, Y+2	; 0x02
    135e:	63 e0       	ldi	r22, 0x03	; 3
    1360:	8e e9       	ldi	r24, 0x9E	; 158
    1362:	91 e0       	ldi	r25, 0x01	; 1
    1364:	0e 94 04 15 	call	0x2a08	; 0x2a08 <_ZN3Lcd4goToEhh>
            if (percent < 100)
    1368:	8b 81       	ldd	r24, Y+3	; 0x03
    136a:	84 36       	cpi	r24, 0x64	; 100
    136c:	90 f4       	brcc	.+36     	; 0x1392 <_ZN3App11localScreenEv+0x1f6>
			   printfL(" %02d ", percent);
    136e:	8b 81       	ldd	r24, Y+3	; 0x03
    1370:	28 2f       	mov	r18, r24
    1372:	30 e0       	ldi	r19, 0x00	; 0
    1374:	80 ee       	ldi	r24, 0xE0	; 224
    1376:	90 e0       	ldi	r25, 0x00	; 0
    1378:	43 2f       	mov	r20, r19
    137a:	4f 93       	push	r20
    137c:	2f 93       	push	r18
    137e:	29 2f       	mov	r18, r25
    1380:	2f 93       	push	r18
    1382:	8f 93       	push	r24
    1384:	0e 94 bf 33 	call	0x677e	; 0x677e <printf_P>
    1388:	0f 90       	pop	r0
    138a:	0f 90       	pop	r0
    138c:	0f 90       	pop	r0
    138e:	0f 90       	pop	r0
    1390:	09 c0       	rjmp	.+18     	; 0x13a4 <_ZN3App11localScreenEv+0x208>
	
            else
                printfL(" FL ");
    1392:	87 ee       	ldi	r24, 0xE7	; 231
    1394:	90 e0       	ldi	r25, 0x00	; 0
    1396:	29 2f       	mov	r18, r25
    1398:	2f 93       	push	r18
    139a:	8f 93       	push	r24
    139c:	0e 94 bf 33 	call	0x677e	; 0x677e <printf_P>
    13a0:	0f 90       	pop	r0
    13a2:	0f 90       	pop	r0
    Lcd::lcd.clear();
    Kbd::autoRepeat = 1;
  redisplay:
    wdt_reset();
    if (n < 8) {
        for (rr = 0; rr < 4; rr++) {
    13a4:	89 81       	ldd	r24, Y+1	; 0x01
    13a6:	8f 5f       	subi	r24, 0xFF	; 255
    13a8:	89 83       	std	Y+1, r24	; 0x01
    13aa:	89 81       	ldd	r24, Y+1	; 0x01
    13ac:	84 30       	cpi	r24, 0x04	; 4
    13ae:	08 f4       	brcc	.+2      	; 0x13b2 <_ZN3App11localScreenEv+0x216>
    13b0:	10 cf       	rjmp	.-480    	; 0x11d2 <_ZN3App11localScreenEv+0x36>
			   printfL(" %02d ", percent);
	
            else
                printfL(" FL ");
        }
        x = (n % 4) * 4 + 3;
    13b2:	80 91 1b 01 	lds	r24, 0x011B
    13b6:	83 70       	andi	r24, 0x03	; 3
    13b8:	88 0f       	add	r24, r24
    13ba:	88 0f       	add	r24, r24
    13bc:	8d 5f       	subi	r24, 0xFD	; 253
    13be:	8a 83       	std	Y+2, r24	; 0x02
        if (n < 4)
    13c0:	80 91 1b 01 	lds	r24, 0x011B
    13c4:	84 30       	cpi	r24, 0x04	; 4
    13c6:	38 f4       	brcc	.+14     	; 0x13d6 <_ZN3App11localScreenEv+0x23a>
            Lcd::lcd.goTo(1, x);
    13c8:	4a 81       	ldd	r20, Y+2	; 0x02
    13ca:	61 e0       	ldi	r22, 0x01	; 1
    13cc:	8e e9       	ldi	r24, 0x9E	; 158
    13ce:	91 e0       	ldi	r25, 0x01	; 1
    13d0:	0e 94 04 15 	call	0x2a08	; 0x2a08 <_ZN3Lcd4goToEhh>
    13d4:	06 c0       	rjmp	.+12     	; 0x13e2 <_ZN3App11localScreenEv+0x246>
        else
            Lcd::lcd.goTo(3, x);
    13d6:	4a 81       	ldd	r20, Y+2	; 0x02
    13d8:	63 e0       	ldi	r22, 0x03	; 3
    13da:	8e e9       	ldi	r24, 0x9E	; 158
    13dc:	91 e0       	ldi	r25, 0x01	; 1
    13de:	0e 94 04 15 	call	0x2a08	; 0x2a08 <_ZN3Lcd4goToEhh>
    13e2:	28 c2       	rjmp	.+1104   	; 0x1834 <_ZN3App11localScreenEv+0x698>
    } else if (n < 16) {
    13e4:	80 91 1b 01 	lds	r24, 0x011B
    13e8:	80 31       	cpi	r24, 0x10	; 16
    13ea:	08 f0       	brcs	.+2      	; 0x13ee <_ZN3App11localScreenEv+0x252>
    13ec:	12 c1       	rjmp	.+548    	; 0x1612 <_ZN3App11localScreenEv+0x476>
#if NUMCHAN==24
        for (rr = 0; rr < 4; rr++) {
    13ee:	19 82       	std	Y+1, r1	; 0x01
    13f0:	f3 c0       	rjmp	.+486    	; 0x15d8 <_ZN3App11localScreenEv+0x43c>
#else
        for (rr = 0; rr < 2; rr++) {
#endif
            x = rr * 4;
    13f2:	89 81       	ldd	r24, Y+1	; 0x01
    13f4:	88 0f       	add	r24, r24
    13f6:	88 0f       	add	r24, r24
    13f8:	8a 83       	std	Y+2, r24	; 0x02
            percent = (unsigned char) (Dmx::inVal[rr + 8] * 100 / 255);
    13fa:	89 81       	ldd	r24, Y+1	; 0x01
    13fc:	88 2f       	mov	r24, r24
    13fe:	90 e0       	ldi	r25, 0x00	; 0
    1400:	08 96       	adiw	r24, 0x08	; 8
    1402:	8c 59       	subi	r24, 0x9C	; 156
    1404:	9e 4f       	sbci	r25, 0xFE	; 254
    1406:	fc 01       	movw	r30, r24
    1408:	80 81       	ld	r24, Z
    140a:	88 2f       	mov	r24, r24
    140c:	90 e0       	ldi	r25, 0x00	; 0
    140e:	24 e6       	ldi	r18, 0x64	; 100
    1410:	28 9f       	mul	r18, r24
    1412:	a0 01       	movw	r20, r0
    1414:	29 9f       	mul	r18, r25
    1416:	50 0d       	add	r21, r0
    1418:	11 24       	eor	r1, r1
    141a:	2f ef       	ldi	r18, 0xFF	; 255
    141c:	30 e0       	ldi	r19, 0x00	; 0
    141e:	ca 01       	movw	r24, r20
    1420:	b9 01       	movw	r22, r18
    1422:	0e 94 bc 32 	call	0x6578	; 0x6578 <__divmodhi4>
    1426:	cb 01       	movw	r24, r22
    1428:	8b 83       	std	Y+3, r24	; 0x03
            Lcd::lcd.goTo(0, x);
    142a:	4a 81       	ldd	r20, Y+2	; 0x02
    142c:	60 e0       	ldi	r22, 0x00	; 0
    142e:	8e e9       	ldi	r24, 0x9E	; 158
    1430:	91 e0       	ldi	r25, 0x01	; 1
    1432:	0e 94 04 15 	call	0x2a08	; 0x2a08 <_ZN3Lcd4goToEhh>
            if (n == (rr + 8))
    1436:	80 91 1b 01 	lds	r24, 0x011B
    143a:	28 2f       	mov	r18, r24
    143c:	30 e0       	ldi	r19, 0x00	; 0
    143e:	89 81       	ldd	r24, Y+1	; 0x01
    1440:	88 2f       	mov	r24, r24
    1442:	90 e0       	ldi	r25, 0x00	; 0
    1444:	08 96       	adiw	r24, 0x08	; 8
    1446:	28 17       	cp	r18, r24
    1448:	39 07       	cpc	r19, r25
    144a:	a9 f4       	brne	.+42     	; 0x1476 <_ZN3App11localScreenEv+0x2da>
                printfL(">%02d<", rr + 8 + 1);
    144c:	89 81       	ldd	r24, Y+1	; 0x01
    144e:	88 2f       	mov	r24, r24
    1450:	90 e0       	ldi	r25, 0x00	; 0
    1452:	9c 01       	movw	r18, r24
    1454:	27 5f       	subi	r18, 0xF7	; 247
    1456:	3f 4f       	sbci	r19, 0xFF	; 255
    1458:	8c ee       	ldi	r24, 0xEC	; 236
    145a:	90 e0       	ldi	r25, 0x00	; 0
    145c:	43 2f       	mov	r20, r19
    145e:	4f 93       	push	r20
    1460:	2f 93       	push	r18
    1462:	29 2f       	mov	r18, r25
    1464:	2f 93       	push	r18
    1466:	8f 93       	push	r24
    1468:	0e 94 bf 33 	call	0x677e	; 0x677e <printf_P>
    146c:	0f 90       	pop	r0
    146e:	0f 90       	pop	r0
    1470:	0f 90       	pop	r0
    1472:	0f 90       	pop	r0
    1474:	14 c0       	rjmp	.+40     	; 0x149e <_ZN3App11localScreenEv+0x302>
            else
                printfL(" %02d ", rr + 8 + 1);
    1476:	89 81       	ldd	r24, Y+1	; 0x01
    1478:	88 2f       	mov	r24, r24
    147a:	90 e0       	ldi	r25, 0x00	; 0
    147c:	9c 01       	movw	r18, r24
    147e:	27 5f       	subi	r18, 0xF7	; 247
    1480:	3f 4f       	sbci	r19, 0xFF	; 255
    1482:	83 ef       	ldi	r24, 0xF3	; 243
    1484:	90 e0       	ldi	r25, 0x00	; 0
    1486:	43 2f       	mov	r20, r19
    1488:	4f 93       	push	r20
    148a:	2f 93       	push	r18
    148c:	29 2f       	mov	r18, r25
    148e:	2f 93       	push	r18
    1490:	8f 93       	push	r24
    1492:	0e 94 bf 33 	call	0x677e	; 0x677e <printf_P>
    1496:	0f 90       	pop	r0
    1498:	0f 90       	pop	r0
    149a:	0f 90       	pop	r0
    149c:	0f 90       	pop	r0
            Lcd::lcd.goTo(1, x);
    149e:	4a 81       	ldd	r20, Y+2	; 0x02
    14a0:	61 e0       	ldi	r22, 0x01	; 1
    14a2:	8e e9       	ldi	r24, 0x9E	; 158
    14a4:	91 e0       	ldi	r25, 0x01	; 1
    14a6:	0e 94 04 15 	call	0x2a08	; 0x2a08 <_ZN3Lcd4goToEhh>
            if (percent < 100)
    14aa:	8b 81       	ldd	r24, Y+3	; 0x03
    14ac:	84 36       	cpi	r24, 0x64	; 100
    14ae:	90 f4       	brcc	.+36     	; 0x14d4 <_ZN3App11localScreenEv+0x338>
                printfL(" %02d ", percent);
    14b0:	8b 81       	ldd	r24, Y+3	; 0x03
    14b2:	28 2f       	mov	r18, r24
    14b4:	30 e0       	ldi	r19, 0x00	; 0
    14b6:	8a ef       	ldi	r24, 0xFA	; 250
    14b8:	90 e0       	ldi	r25, 0x00	; 0
    14ba:	43 2f       	mov	r20, r19
    14bc:	4f 93       	push	r20
    14be:	2f 93       	push	r18
    14c0:	29 2f       	mov	r18, r25
    14c2:	2f 93       	push	r18
    14c4:	8f 93       	push	r24
    14c6:	0e 94 bf 33 	call	0x677e	; 0x677e <printf_P>
    14ca:	0f 90       	pop	r0
    14cc:	0f 90       	pop	r0
    14ce:	0f 90       	pop	r0
    14d0:	0f 90       	pop	r0
    14d2:	09 c0       	rjmp	.+18     	; 0x14e6 <_ZN3App11localScreenEv+0x34a>
            else
                printfL(" FL ");
    14d4:	81 e0       	ldi	r24, 0x01	; 1
    14d6:	91 e0       	ldi	r25, 0x01	; 1
    14d8:	29 2f       	mov	r18, r25
    14da:	2f 93       	push	r18
    14dc:	8f 93       	push	r24
    14de:	0e 94 bf 33 	call	0x677e	; 0x677e <printf_P>
    14e2:	0f 90       	pop	r0
    14e4:	0f 90       	pop	r0
            percent = (unsigned char) (Dmx::inVal[rr + 8 + 4] * 100 / 255);
    14e6:	89 81       	ldd	r24, Y+1	; 0x01
    14e8:	88 2f       	mov	r24, r24
    14ea:	90 e0       	ldi	r25, 0x00	; 0
    14ec:	0c 96       	adiw	r24, 0x0c	; 12
    14ee:	8c 59       	subi	r24, 0x9C	; 156
    14f0:	9e 4f       	sbci	r25, 0xFE	; 254
    14f2:	fc 01       	movw	r30, r24
    14f4:	80 81       	ld	r24, Z
    14f6:	88 2f       	mov	r24, r24
    14f8:	90 e0       	ldi	r25, 0x00	; 0
    14fa:	24 e6       	ldi	r18, 0x64	; 100
    14fc:	28 9f       	mul	r18, r24
    14fe:	a0 01       	movw	r20, r0
    1500:	29 9f       	mul	r18, r25
    1502:	50 0d       	add	r21, r0
    1504:	11 24       	eor	r1, r1
    1506:	2f ef       	ldi	r18, 0xFF	; 255
    1508:	30 e0       	ldi	r19, 0x00	; 0
    150a:	ca 01       	movw	r24, r20
    150c:	b9 01       	movw	r22, r18
    150e:	0e 94 bc 32 	call	0x6578	; 0x6578 <__divmodhi4>
    1512:	cb 01       	movw	r24, r22
    1514:	8b 83       	std	Y+3, r24	; 0x03
            Lcd::lcd.goTo(2, x);
    1516:	4a 81       	ldd	r20, Y+2	; 0x02
    1518:	62 e0       	ldi	r22, 0x02	; 2
    151a:	8e e9       	ldi	r24, 0x9E	; 158
    151c:	91 e0       	ldi	r25, 0x01	; 1
    151e:	0e 94 04 15 	call	0x2a08	; 0x2a08 <_ZN3Lcd4goToEhh>
            if (n == (rr + 12))
    1522:	80 91 1b 01 	lds	r24, 0x011B
    1526:	28 2f       	mov	r18, r24
    1528:	30 e0       	ldi	r19, 0x00	; 0
    152a:	89 81       	ldd	r24, Y+1	; 0x01
    152c:	88 2f       	mov	r24, r24
    152e:	90 e0       	ldi	r25, 0x00	; 0
    1530:	0c 96       	adiw	r24, 0x0c	; 12
    1532:	28 17       	cp	r18, r24
    1534:	39 07       	cpc	r19, r25
    1536:	a9 f4       	brne	.+42     	; 0x1562 <_ZN3App11localScreenEv+0x3c6>
                printfL(">%02d<", rr + 8 + 4 + 1);
    1538:	89 81       	ldd	r24, Y+1	; 0x01
    153a:	88 2f       	mov	r24, r24
    153c:	90 e0       	ldi	r25, 0x00	; 0
    153e:	9c 01       	movw	r18, r24
    1540:	23 5f       	subi	r18, 0xF3	; 243
    1542:	3f 4f       	sbci	r19, 0xFF	; 255
    1544:	86 e0       	ldi	r24, 0x06	; 6
    1546:	91 e0       	ldi	r25, 0x01	; 1
    1548:	43 2f       	mov	r20, r19
    154a:	4f 93       	push	r20
    154c:	2f 93       	push	r18
    154e:	29 2f       	mov	r18, r25
    1550:	2f 93       	push	r18
    1552:	8f 93       	push	r24
    1554:	0e 94 bf 33 	call	0x677e	; 0x677e <printf_P>
    1558:	0f 90       	pop	r0
    155a:	0f 90       	pop	r0
    155c:	0f 90       	pop	r0
    155e:	0f 90       	pop	r0
    1560:	14 c0       	rjmp	.+40     	; 0x158a <_ZN3App11localScreenEv+0x3ee>
            else
                printfL(" %02d ", rr + 8 + 4 + 1);
    1562:	89 81       	ldd	r24, Y+1	; 0x01
    1564:	88 2f       	mov	r24, r24
    1566:	90 e0       	ldi	r25, 0x00	; 0
    1568:	9c 01       	movw	r18, r24
    156a:	23 5f       	subi	r18, 0xF3	; 243
    156c:	3f 4f       	sbci	r19, 0xFF	; 255
    156e:	8d e0       	ldi	r24, 0x0D	; 13
    1570:	91 e0       	ldi	r25, 0x01	; 1
    1572:	43 2f       	mov	r20, r19
    1574:	4f 93       	push	r20
    1576:	2f 93       	push	r18
    1578:	29 2f       	mov	r18, r25
    157a:	2f 93       	push	r18
    157c:	8f 93       	push	r24
    157e:	0e 94 bf 33 	call	0x677e	; 0x677e <printf_P>
    1582:	0f 90       	pop	r0
    1584:	0f 90       	pop	r0
    1586:	0f 90       	pop	r0
    1588:	0f 90       	pop	r0
            Lcd::lcd.goTo(3, x);
    158a:	4a 81       	ldd	r20, Y+2	; 0x02
    158c:	63 e0       	ldi	r22, 0x03	; 3
    158e:	8e e9       	ldi	r24, 0x9E	; 158
    1590:	91 e0       	ldi	r25, 0x01	; 1
    1592:	0e 94 04 15 	call	0x2a08	; 0x2a08 <_ZN3Lcd4goToEhh>
            if (percent < 100)
    1596:	8b 81       	ldd	r24, Y+3	; 0x03
    1598:	84 36       	cpi	r24, 0x64	; 100
    159a:	90 f4       	brcc	.+36     	; 0x15c0 <_ZN3App11localScreenEv+0x424>
                printfL(" %02d ", percent);
    159c:	8b 81       	ldd	r24, Y+3	; 0x03
    159e:	28 2f       	mov	r18, r24
    15a0:	30 e0       	ldi	r19, 0x00	; 0
    15a2:	84 e1       	ldi	r24, 0x14	; 20
    15a4:	91 e0       	ldi	r25, 0x01	; 1
    15a6:	43 2f       	mov	r20, r19
    15a8:	4f 93       	push	r20
    15aa:	2f 93       	push	r18
    15ac:	29 2f       	mov	r18, r25
    15ae:	2f 93       	push	r18
    15b0:	8f 93       	push	r24
    15b2:	0e 94 bf 33 	call	0x677e	; 0x677e <printf_P>
    15b6:	0f 90       	pop	r0
    15b8:	0f 90       	pop	r0
    15ba:	0f 90       	pop	r0
    15bc:	0f 90       	pop	r0
    15be:	09 c0       	rjmp	.+18     	; 0x15d2 <_ZN3App11localScreenEv+0x436>
            else
                printfL(" FL ");
    15c0:	8b e1       	ldi	r24, 0x1B	; 27
    15c2:	91 e0       	ldi	r25, 0x01	; 1
    15c4:	29 2f       	mov	r18, r25
    15c6:	2f 93       	push	r18
    15c8:	8f 93       	push	r24
    15ca:	0e 94 bf 33 	call	0x677e	; 0x677e <printf_P>
    15ce:	0f 90       	pop	r0
    15d0:	0f 90       	pop	r0
            Lcd::lcd.goTo(1, x);
        else
            Lcd::lcd.goTo(3, x);
    } else if (n < 16) {
#if NUMCHAN==24
        for (rr = 0; rr < 4; rr++) {
    15d2:	89 81       	ldd	r24, Y+1	; 0x01
    15d4:	8f 5f       	subi	r24, 0xFF	; 255
    15d6:	89 83       	std	Y+1, r24	; 0x01
    15d8:	89 81       	ldd	r24, Y+1	; 0x01
    15da:	84 30       	cpi	r24, 0x04	; 4
    15dc:	08 f4       	brcc	.+2      	; 0x15e0 <_ZN3App11localScreenEv+0x444>
    15de:	09 cf       	rjmp	.-494    	; 0x13f2 <_ZN3App11localScreenEv+0x256>
            if (percent < 100)
                printfL(" %02d ", percent);
            else
                printfL(" FL ");
        }
        x = (n % 4) * 4 + 3;
    15e0:	80 91 1b 01 	lds	r24, 0x011B
    15e4:	83 70       	andi	r24, 0x03	; 3
    15e6:	88 0f       	add	r24, r24
    15e8:	88 0f       	add	r24, r24
    15ea:	8d 5f       	subi	r24, 0xFD	; 253
    15ec:	8a 83       	std	Y+2, r24	; 0x02
        if (n < 12)
    15ee:	80 91 1b 01 	lds	r24, 0x011B
    15f2:	8c 30       	cpi	r24, 0x0C	; 12
    15f4:	38 f4       	brcc	.+14     	; 0x1604 <_ZN3App11localScreenEv+0x468>
            Lcd::lcd.goTo(1, x);
    15f6:	4a 81       	ldd	r20, Y+2	; 0x02
    15f8:	61 e0       	ldi	r22, 0x01	; 1
    15fa:	8e e9       	ldi	r24, 0x9E	; 158
    15fc:	91 e0       	ldi	r25, 0x01	; 1
    15fe:	0e 94 04 15 	call	0x2a08	; 0x2a08 <_ZN3Lcd4goToEhh>
    1602:	06 c0       	rjmp	.+12     	; 0x1610 <_ZN3App11localScreenEv+0x474>
        else
            Lcd::lcd.goTo(3, x);
    1604:	4a 81       	ldd	r20, Y+2	; 0x02
    1606:	63 e0       	ldi	r22, 0x03	; 3
    1608:	8e e9       	ldi	r24, 0x9E	; 158
    160a:	91 e0       	ldi	r25, 0x01	; 1
    160c:	0e 94 04 15 	call	0x2a08	; 0x2a08 <_ZN3Lcd4goToEhh>
    1610:	11 c1       	rjmp	.+546    	; 0x1834 <_ZN3App11localScreenEv+0x698>
    } else {
        for (rr = 0; rr < 4; rr++) {
    1612:	19 82       	std	Y+1, r1	; 0x01
    1614:	f3 c0       	rjmp	.+486    	; 0x17fc <_ZN3App11localScreenEv+0x660>
            x = rr * 4;
    1616:	89 81       	ldd	r24, Y+1	; 0x01
    1618:	88 0f       	add	r24, r24
    161a:	88 0f       	add	r24, r24
    161c:	8a 83       	std	Y+2, r24	; 0x02
            percent = (unsigned char) (Dmx::inVal[rr + 16] * 100 / 255);
    161e:	89 81       	ldd	r24, Y+1	; 0x01
    1620:	88 2f       	mov	r24, r24
    1622:	90 e0       	ldi	r25, 0x00	; 0
    1624:	40 96       	adiw	r24, 0x10	; 16
    1626:	8c 59       	subi	r24, 0x9C	; 156
    1628:	9e 4f       	sbci	r25, 0xFE	; 254
    162a:	fc 01       	movw	r30, r24
    162c:	80 81       	ld	r24, Z
    162e:	88 2f       	mov	r24, r24
    1630:	90 e0       	ldi	r25, 0x00	; 0
    1632:	24 e6       	ldi	r18, 0x64	; 100
    1634:	28 9f       	mul	r18, r24
    1636:	a0 01       	movw	r20, r0
    1638:	29 9f       	mul	r18, r25
    163a:	50 0d       	add	r21, r0
    163c:	11 24       	eor	r1, r1
    163e:	2f ef       	ldi	r18, 0xFF	; 255
    1640:	30 e0       	ldi	r19, 0x00	; 0
    1642:	ca 01       	movw	r24, r20
    1644:	b9 01       	movw	r22, r18
    1646:	0e 94 bc 32 	call	0x6578	; 0x6578 <__divmodhi4>
    164a:	cb 01       	movw	r24, r22
    164c:	8b 83       	std	Y+3, r24	; 0x03
            Lcd::lcd.goTo(0, x);
    164e:	4a 81       	ldd	r20, Y+2	; 0x02
    1650:	60 e0       	ldi	r22, 0x00	; 0
    1652:	8e e9       	ldi	r24, 0x9E	; 158
    1654:	91 e0       	ldi	r25, 0x01	; 1
    1656:	0e 94 04 15 	call	0x2a08	; 0x2a08 <_ZN3Lcd4goToEhh>
            if (n == (rr + 16))
    165a:	80 91 1b 01 	lds	r24, 0x011B
    165e:	28 2f       	mov	r18, r24
    1660:	30 e0       	ldi	r19, 0x00	; 0
    1662:	89 81       	ldd	r24, Y+1	; 0x01
    1664:	88 2f       	mov	r24, r24
    1666:	90 e0       	ldi	r25, 0x00	; 0
    1668:	40 96       	adiw	r24, 0x10	; 16
    166a:	28 17       	cp	r18, r24
    166c:	39 07       	cpc	r19, r25
    166e:	a9 f4       	brne	.+42     	; 0x169a <_ZN3App11localScreenEv+0x4fe>
                printfL(">%02d<", rr + 16 + 1);
    1670:	89 81       	ldd	r24, Y+1	; 0x01
    1672:	88 2f       	mov	r24, r24
    1674:	90 e0       	ldi	r25, 0x00	; 0
    1676:	9c 01       	movw	r18, r24
    1678:	2f 5e       	subi	r18, 0xEF	; 239
    167a:	3f 4f       	sbci	r19, 0xFF	; 255
    167c:	80 e2       	ldi	r24, 0x20	; 32
    167e:	91 e0       	ldi	r25, 0x01	; 1
    1680:	43 2f       	mov	r20, r19
    1682:	4f 93       	push	r20
    1684:	2f 93       	push	r18
    1686:	29 2f       	mov	r18, r25
    1688:	2f 93       	push	r18
    168a:	8f 93       	push	r24
    168c:	0e 94 bf 33 	call	0x677e	; 0x677e <printf_P>
    1690:	0f 90       	pop	r0
    1692:	0f 90       	pop	r0
    1694:	0f 90       	pop	r0
    1696:	0f 90       	pop	r0
    1698:	14 c0       	rjmp	.+40     	; 0x16c2 <_ZN3App11localScreenEv+0x526>
            else
                printfL(" %02d ", rr + 16 + 1);
    169a:	89 81       	ldd	r24, Y+1	; 0x01
    169c:	88 2f       	mov	r24, r24
    169e:	90 e0       	ldi	r25, 0x00	; 0
    16a0:	9c 01       	movw	r18, r24
    16a2:	2f 5e       	subi	r18, 0xEF	; 239
    16a4:	3f 4f       	sbci	r19, 0xFF	; 255
    16a6:	87 e2       	ldi	r24, 0x27	; 39
    16a8:	91 e0       	ldi	r25, 0x01	; 1
    16aa:	43 2f       	mov	r20, r19
    16ac:	4f 93       	push	r20
    16ae:	2f 93       	push	r18
    16b0:	29 2f       	mov	r18, r25
    16b2:	2f 93       	push	r18
    16b4:	8f 93       	push	r24
    16b6:	0e 94 bf 33 	call	0x677e	; 0x677e <printf_P>
    16ba:	0f 90       	pop	r0
    16bc:	0f 90       	pop	r0
    16be:	0f 90       	pop	r0
    16c0:	0f 90       	pop	r0
            Lcd::lcd.goTo(1, x);
    16c2:	4a 81       	ldd	r20, Y+2	; 0x02
    16c4:	61 e0       	ldi	r22, 0x01	; 1
    16c6:	8e e9       	ldi	r24, 0x9E	; 158
    16c8:	91 e0       	ldi	r25, 0x01	; 1
    16ca:	0e 94 04 15 	call	0x2a08	; 0x2a08 <_ZN3Lcd4goToEhh>
            if (percent < 100)
    16ce:	8b 81       	ldd	r24, Y+3	; 0x03
    16d0:	84 36       	cpi	r24, 0x64	; 100
    16d2:	90 f4       	brcc	.+36     	; 0x16f8 <_ZN3App11localScreenEv+0x55c>
                printfL(" %02d ", percent);
    16d4:	8b 81       	ldd	r24, Y+3	; 0x03
    16d6:	28 2f       	mov	r18, r24
    16d8:	30 e0       	ldi	r19, 0x00	; 0
    16da:	8e e2       	ldi	r24, 0x2E	; 46
    16dc:	91 e0       	ldi	r25, 0x01	; 1
    16de:	43 2f       	mov	r20, r19
    16e0:	4f 93       	push	r20
    16e2:	2f 93       	push	r18
    16e4:	29 2f       	mov	r18, r25
    16e6:	2f 93       	push	r18
    16e8:	8f 93       	push	r24
    16ea:	0e 94 bf 33 	call	0x677e	; 0x677e <printf_P>
    16ee:	0f 90       	pop	r0
    16f0:	0f 90       	pop	r0
    16f2:	0f 90       	pop	r0
    16f4:	0f 90       	pop	r0
    16f6:	09 c0       	rjmp	.+18     	; 0x170a <_ZN3App11localScreenEv+0x56e>
            else
                printfL(" FL ");
    16f8:	85 e3       	ldi	r24, 0x35	; 53
    16fa:	91 e0       	ldi	r25, 0x01	; 1
    16fc:	29 2f       	mov	r18, r25
    16fe:	2f 93       	push	r18
    1700:	8f 93       	push	r24
    1702:	0e 94 bf 33 	call	0x677e	; 0x677e <printf_P>
    1706:	0f 90       	pop	r0
    1708:	0f 90       	pop	r0
            percent =
                (unsigned char) (Dmx::inVal[rr + 16 + 4] * 100 / 255);
    170a:	89 81       	ldd	r24, Y+1	; 0x01
    170c:	88 2f       	mov	r24, r24
    170e:	90 e0       	ldi	r25, 0x00	; 0
    1710:	44 96       	adiw	r24, 0x14	; 20
    1712:	8c 59       	subi	r24, 0x9C	; 156
    1714:	9e 4f       	sbci	r25, 0xFE	; 254
    1716:	fc 01       	movw	r30, r24
    1718:	80 81       	ld	r24, Z
    171a:	88 2f       	mov	r24, r24
    171c:	90 e0       	ldi	r25, 0x00	; 0
    171e:	24 e6       	ldi	r18, 0x64	; 100
    1720:	28 9f       	mul	r18, r24
    1722:	a0 01       	movw	r20, r0
    1724:	29 9f       	mul	r18, r25
    1726:	50 0d       	add	r21, r0
    1728:	11 24       	eor	r1, r1
    172a:	2f ef       	ldi	r18, 0xFF	; 255
    172c:	30 e0       	ldi	r19, 0x00	; 0
    172e:	ca 01       	movw	r24, r20
    1730:	b9 01       	movw	r22, r18
    1732:	0e 94 bc 32 	call	0x6578	; 0x6578 <__divmodhi4>
    1736:	cb 01       	movw	r24, r22
    1738:	8b 83       	std	Y+3, r24	; 0x03
            Lcd::lcd.goTo(2, x);
    173a:	4a 81       	ldd	r20, Y+2	; 0x02
    173c:	62 e0       	ldi	r22, 0x02	; 2
    173e:	8e e9       	ldi	r24, 0x9E	; 158
    1740:	91 e0       	ldi	r25, 0x01	; 1
    1742:	0e 94 04 15 	call	0x2a08	; 0x2a08 <_ZN3Lcd4goToEhh>
            if (n == (rr + 16 + 4))
    1746:	80 91 1b 01 	lds	r24, 0x011B
    174a:	28 2f       	mov	r18, r24
    174c:	30 e0       	ldi	r19, 0x00	; 0
    174e:	89 81       	ldd	r24, Y+1	; 0x01
    1750:	88 2f       	mov	r24, r24
    1752:	90 e0       	ldi	r25, 0x00	; 0
    1754:	44 96       	adiw	r24, 0x14	; 20
    1756:	28 17       	cp	r18, r24
    1758:	39 07       	cpc	r19, r25
    175a:	a9 f4       	brne	.+42     	; 0x1786 <_ZN3App11localScreenEv+0x5ea>
                printfL(">%02d<", rr + 16 + 4 + 1);
    175c:	89 81       	ldd	r24, Y+1	; 0x01
    175e:	88 2f       	mov	r24, r24
    1760:	90 e0       	ldi	r25, 0x00	; 0
    1762:	9c 01       	movw	r18, r24
    1764:	2b 5e       	subi	r18, 0xEB	; 235
    1766:	3f 4f       	sbci	r19, 0xFF	; 255
    1768:	8a e3       	ldi	r24, 0x3A	; 58
    176a:	91 e0       	ldi	r25, 0x01	; 1
    176c:	43 2f       	mov	r20, r19
    176e:	4f 93       	push	r20
    1770:	2f 93       	push	r18
    1772:	29 2f       	mov	r18, r25
    1774:	2f 93       	push	r18
    1776:	8f 93       	push	r24
    1778:	0e 94 bf 33 	call	0x677e	; 0x677e <printf_P>
    177c:	0f 90       	pop	r0
    177e:	0f 90       	pop	r0
    1780:	0f 90       	pop	r0
    1782:	0f 90       	pop	r0
    1784:	14 c0       	rjmp	.+40     	; 0x17ae <_ZN3App11localScreenEv+0x612>
            else
                printfL(" %02d ", rr + 16 + 4 + 1);
    1786:	89 81       	ldd	r24, Y+1	; 0x01
    1788:	88 2f       	mov	r24, r24
    178a:	90 e0       	ldi	r25, 0x00	; 0
    178c:	9c 01       	movw	r18, r24
    178e:	2b 5e       	subi	r18, 0xEB	; 235
    1790:	3f 4f       	sbci	r19, 0xFF	; 255
    1792:	81 e4       	ldi	r24, 0x41	; 65
    1794:	91 e0       	ldi	r25, 0x01	; 1
    1796:	43 2f       	mov	r20, r19
    1798:	4f 93       	push	r20
    179a:	2f 93       	push	r18
    179c:	29 2f       	mov	r18, r25
    179e:	2f 93       	push	r18
    17a0:	8f 93       	push	r24
    17a2:	0e 94 bf 33 	call	0x677e	; 0x677e <printf_P>
    17a6:	0f 90       	pop	r0
    17a8:	0f 90       	pop	r0
    17aa:	0f 90       	pop	r0
    17ac:	0f 90       	pop	r0
            Lcd::lcd.goTo(3, x);
    17ae:	4a 81       	ldd	r20, Y+2	; 0x02
    17b0:	63 e0       	ldi	r22, 0x03	; 3
    17b2:	8e e9       	ldi	r24, 0x9E	; 158
    17b4:	91 e0       	ldi	r25, 0x01	; 1
    17b6:	0e 94 04 15 	call	0x2a08	; 0x2a08 <_ZN3Lcd4goToEhh>
            if (percent < 100)
    17ba:	8b 81       	ldd	r24, Y+3	; 0x03
    17bc:	84 36       	cpi	r24, 0x64	; 100
    17be:	90 f4       	brcc	.+36     	; 0x17e4 <_ZN3App11localScreenEv+0x648>
                printfL(" %02d ", percent);
    17c0:	8b 81       	ldd	r24, Y+3	; 0x03
    17c2:	28 2f       	mov	r18, r24
    17c4:	30 e0       	ldi	r19, 0x00	; 0
    17c6:	88 e4       	ldi	r24, 0x48	; 72
    17c8:	91 e0       	ldi	r25, 0x01	; 1
    17ca:	43 2f       	mov	r20, r19
    17cc:	4f 93       	push	r20
    17ce:	2f 93       	push	r18
    17d0:	29 2f       	mov	r18, r25
    17d2:	2f 93       	push	r18
    17d4:	8f 93       	push	r24
    17d6:	0e 94 bf 33 	call	0x677e	; 0x677e <printf_P>
    17da:	0f 90       	pop	r0
    17dc:	0f 90       	pop	r0
    17de:	0f 90       	pop	r0
    17e0:	0f 90       	pop	r0
    17e2:	09 c0       	rjmp	.+18     	; 0x17f6 <_ZN3App11localScreenEv+0x65a>
            else
                printfL(" FL ");
    17e4:	8f e4       	ldi	r24, 0x4F	; 79
    17e6:	91 e0       	ldi	r25, 0x01	; 1
    17e8:	29 2f       	mov	r18, r25
    17ea:	2f 93       	push	r18
    17ec:	8f 93       	push	r24
    17ee:	0e 94 bf 33 	call	0x677e	; 0x677e <printf_P>
    17f2:	0f 90       	pop	r0
    17f4:	0f 90       	pop	r0
        if (n < 12)
            Lcd::lcd.goTo(1, x);
        else
            Lcd::lcd.goTo(3, x);
    } else {
        for (rr = 0; rr < 4; rr++) {
    17f6:	89 81       	ldd	r24, Y+1	; 0x01
    17f8:	8f 5f       	subi	r24, 0xFF	; 255
    17fa:	89 83       	std	Y+1, r24	; 0x01
    17fc:	89 81       	ldd	r24, Y+1	; 0x01
    17fe:	84 30       	cpi	r24, 0x04	; 4
    1800:	08 f4       	brcc	.+2      	; 0x1804 <_ZN3App11localScreenEv+0x668>
    1802:	09 cf       	rjmp	.-494    	; 0x1616 <_ZN3App11localScreenEv+0x47a>
            if (percent < 100)
                printfL(" %02d ", percent);
            else
                printfL(" FL ");
        }
        x = (n % 4) * 4 + 3;
    1804:	80 91 1b 01 	lds	r24, 0x011B
    1808:	83 70       	andi	r24, 0x03	; 3
    180a:	88 0f       	add	r24, r24
    180c:	88 0f       	add	r24, r24
    180e:	8d 5f       	subi	r24, 0xFD	; 253
    1810:	8a 83       	std	Y+2, r24	; 0x02
        if (n < 20)
    1812:	80 91 1b 01 	lds	r24, 0x011B
    1816:	84 31       	cpi	r24, 0x14	; 20
    1818:	38 f4       	brcc	.+14     	; 0x1828 <_ZN3App11localScreenEv+0x68c>
            Lcd::lcd.goTo(1, x);
    181a:	4a 81       	ldd	r20, Y+2	; 0x02
    181c:	61 e0       	ldi	r22, 0x01	; 1
    181e:	8e e9       	ldi	r24, 0x9E	; 158
    1820:	91 e0       	ldi	r25, 0x01	; 1
    1822:	0e 94 04 15 	call	0x2a08	; 0x2a08 <_ZN3Lcd4goToEhh>
    1826:	06 c0       	rjmp	.+12     	; 0x1834 <_ZN3App11localScreenEv+0x698>
        else
            Lcd::lcd.goTo(3, x);
    1828:	4a 81       	ldd	r20, Y+2	; 0x02
    182a:	63 e0       	ldi	r22, 0x03	; 3
    182c:	8e e9       	ldi	r24, 0x9E	; 158
    182e:	91 e0       	ldi	r25, 0x01	; 1
    1830:	0e 94 04 15 	call	0x2a08	; 0x2a08 <_ZN3Lcd4goToEhh>
    }
  readkey:

   while ( (key = _getChar()) == EOF) {
    1834:	0c c0       	rjmp	.+24     	; 0x184e <_ZN3App11localScreenEv+0x6b2>
		wdt_reset();
    1836:	a8 95       	wdr
        if (Dmx::valid) {
    1838:	90 91 7c 01 	lds	r25, 0x017C
    183c:	81 e0       	ldi	r24, 0x01	; 1
    183e:	99 23       	and	r25, r25
    1840:	09 f4       	brne	.+2      	; 0x1844 <_ZN3App11localScreenEv+0x6a8>
    1842:	80 e0       	ldi	r24, 0x00	; 0
    1844:	88 23       	and	r24, r24
    1846:	19 f0       	breq	.+6      	; 0x184e <_ZN3App11localScreenEv+0x6b2>
            Kbd::autoRepeat = 0;
    1848:	10 92 94 01 	sts	0x0194, r1
            return;
    184c:	e6 c0       	rjmp	.+460    	; 0x1a1a <_ZN3App11localScreenEv+0x87e>
        else
            Lcd::lcd.goTo(3, x);
    }
  readkey:

   while ( (key = _getChar()) == EOF) {
    184e:	1f d6       	rcall	.+3134   	; 0x248e <_getChar>
    1850:	9d 83       	std	Y+5, r25	; 0x05
    1852:	8c 83       	std	Y+4, r24	; 0x04
    1854:	21 e0       	ldi	r18, 0x01	; 1
    1856:	8c 81       	ldd	r24, Y+4	; 0x04
    1858:	9d 81       	ldd	r25, Y+5	; 0x05
    185a:	01 96       	adiw	r24, 0x01	; 1
    185c:	09 f0       	breq	.+2      	; 0x1860 <_ZN3App11localScreenEv+0x6c4>
    185e:	20 e0       	ldi	r18, 0x00	; 0
    1860:	22 23       	and	r18, r18
    1862:	49 f7       	brne	.-46     	; 0x1836 <_ZN3App11localScreenEv+0x69a>
        if (Dmx::valid) {
            Kbd::autoRepeat = 0;
            return;
        }
    }
    switch ((unsigned char) key) {
    1864:	8c 81       	ldd	r24, Y+4	; 0x04
    1866:	88 2f       	mov	r24, r24
    1868:	90 e0       	ldi	r25, 0x00	; 0
    186a:	80 31       	cpi	r24, 0x10	; 16
    186c:	91 05       	cpc	r25, r1
    186e:	e1 f0       	breq	.+56     	; 0x18a8 <_ZN3App11localScreenEv+0x70c>
    1870:	81 31       	cpi	r24, 0x11	; 17
    1872:	91 05       	cpc	r25, r1
    1874:	34 f4       	brge	.+12     	; 0x1882 <_ZN3App11localScreenEv+0x6e6>
    1876:	84 30       	cpi	r24, 0x04	; 4
    1878:	91 05       	cpc	r25, r1
    187a:	61 f0       	breq	.+24     	; 0x1894 <_ZN3App11localScreenEv+0x6f8>
    187c:	08 97       	sbiw	r24, 0x08	; 8
    187e:	f1 f0       	breq	.+60     	; 0x18bc <_ZN3App11localScreenEv+0x720>
    1880:	cb c0       	rjmp	.+406    	; 0x1a18 <_ZN3App11localScreenEv+0x87c>
    1882:	80 34       	cpi	r24, 0x40	; 64
    1884:	91 05       	cpc	r25, r1
    1886:	09 f4       	brne	.+2      	; 0x188a <_ZN3App11localScreenEv+0x6ee>
    1888:	6b c0       	rjmp	.+214    	; 0x1960 <_ZN3App11localScreenEv+0x7c4>
    188a:	80 38       	cpi	r24, 0x80	; 128
    188c:	91 05       	cpc	r25, r1
    188e:	09 f4       	brne	.+2      	; 0x1892 <_ZN3App11localScreenEv+0x6f6>
    1890:	b9 c0       	rjmp	.+370    	; 0x1a04 <_ZN3App11localScreenEv+0x868>
    1892:	c2 c0       	rjmp	.+388    	; 0x1a18 <_ZN3App11localScreenEv+0x87c>
        case BACK:
            if (n)
    1894:	80 91 1b 01 	lds	r24, 0x011B
    1898:	88 23       	and	r24, r24
    189a:	29 f0       	breq	.+10     	; 0x18a6 <_ZN3App11localScreenEv+0x70a>
                n--;
    189c:	80 91 1b 01 	lds	r24, 0x011B
    18a0:	81 50       	subi	r24, 0x01	; 1
    18a2:	80 93 1b 01 	sts	0x011B, r24
            goto redisplay;
    18a6:	8d cc       	rjmp	.-1766   	; 0x11c2 <_ZN3App11localScreenEv+0x26>
        case FORW:
            if (n < (NUMCHAN - 1))
    18a8:	80 91 1b 01 	lds	r24, 0x011B
    18ac:	87 31       	cpi	r24, 0x17	; 23
    18ae:	28 f4       	brcc	.+10     	; 0x18ba <_ZN3App11localScreenEv+0x71e>
                n++;
    18b0:	80 91 1b 01 	lds	r24, 0x011B
    18b4:	8f 5f       	subi	r24, 0xFF	; 255
    18b6:	80 93 1b 01 	sts	0x011B, r24
            goto redisplay;
    18ba:	83 cc       	rjmp	.-1786   	; 0x11c2 <_ZN3App11localScreenEv+0x26>
        case UP:
            percent = (unsigned char) (Dmx::inVal[n] * 100 / 255);
    18bc:	80 91 1b 01 	lds	r24, 0x011B
    18c0:	88 2f       	mov	r24, r24
    18c2:	90 e0       	ldi	r25, 0x00	; 0
    18c4:	8c 59       	subi	r24, 0x9C	; 156
    18c6:	9e 4f       	sbci	r25, 0xFE	; 254
    18c8:	fc 01       	movw	r30, r24
    18ca:	80 81       	ld	r24, Z
    18cc:	88 2f       	mov	r24, r24
    18ce:	90 e0       	ldi	r25, 0x00	; 0
    18d0:	24 e6       	ldi	r18, 0x64	; 100
    18d2:	28 9f       	mul	r18, r24
    18d4:	a0 01       	movw	r20, r0
    18d6:	29 9f       	mul	r18, r25
    18d8:	50 0d       	add	r21, r0
    18da:	11 24       	eor	r1, r1
    18dc:	2f ef       	ldi	r18, 0xFF	; 255
    18de:	30 e0       	ldi	r19, 0x00	; 0
    18e0:	ca 01       	movw	r24, r20
    18e2:	b9 01       	movw	r22, r18
    18e4:	0e 94 bc 32 	call	0x6578	; 0x6578 <__divmodhi4>
    18e8:	cb 01       	movw	r24, r22
    18ea:	8b 83       	std	Y+3, r24	; 0x03
            do {
                if (Dmx::inVal[n] >= 255)
    18ec:	80 91 1b 01 	lds	r24, 0x011B
    18f0:	88 2f       	mov	r24, r24
    18f2:	90 e0       	ldi	r25, 0x00	; 0
    18f4:	8c 59       	subi	r24, 0x9C	; 156
    18f6:	9e 4f       	sbci	r25, 0xFE	; 254
    18f8:	fc 01       	movw	r30, r24
    18fa:	90 81       	ld	r25, Z
    18fc:	81 e0       	ldi	r24, 0x01	; 1
    18fe:	9f 3f       	cpi	r25, 0xFF	; 255
    1900:	09 f0       	breq	.+2      	; 0x1904 <_ZN3App11localScreenEv+0x768>
    1902:	80 e0       	ldi	r24, 0x00	; 0
    1904:	88 23       	and	r24, r24
    1906:	09 f0       	breq	.+2      	; 0x190a <_ZN3App11localScreenEv+0x76e>
                    break;
    1908:	2a c0       	rjmp	.+84     	; 0x195e <_ZN3App11localScreenEv+0x7c2>
                Dmx::inVal[n]++;
    190a:	80 91 1b 01 	lds	r24, 0x011B
    190e:	88 2f       	mov	r24, r24
    1910:	90 e0       	ldi	r25, 0x00	; 0
    1912:	9c 01       	movw	r18, r24
    1914:	2c 59       	subi	r18, 0x9C	; 156
    1916:	3e 4f       	sbci	r19, 0xFE	; 254
    1918:	f9 01       	movw	r30, r18
    191a:	20 81       	ld	r18, Z
    191c:	2f 5f       	subi	r18, 0xFF	; 255
    191e:	8c 59       	subi	r24, 0x9C	; 156
    1920:	9e 4f       	sbci	r25, 0xFE	; 254
    1922:	fc 01       	movw	r30, r24
    1924:	20 83       	st	Z, r18

                pr = (unsigned char) (Dmx::inVal[n] * 100 / 255);
    1926:	80 91 1b 01 	lds	r24, 0x011B
    192a:	88 2f       	mov	r24, r24
    192c:	90 e0       	ldi	r25, 0x00	; 0
    192e:	8c 59       	subi	r24, 0x9C	; 156
    1930:	9e 4f       	sbci	r25, 0xFE	; 254
    1932:	fc 01       	movw	r30, r24
    1934:	80 81       	ld	r24, Z
    1936:	88 2f       	mov	r24, r24
    1938:	90 e0       	ldi	r25, 0x00	; 0
    193a:	24 e6       	ldi	r18, 0x64	; 100
    193c:	28 9f       	mul	r18, r24
    193e:	a0 01       	movw	r20, r0
    1940:	29 9f       	mul	r18, r25
    1942:	50 0d       	add	r21, r0
    1944:	11 24       	eor	r1, r1
    1946:	2f ef       	ldi	r18, 0xFF	; 255
    1948:	30 e0       	ldi	r19, 0x00	; 0
    194a:	ca 01       	movw	r24, r20
    194c:	b9 01       	movw	r22, r18
    194e:	0e 94 bc 32 	call	0x6578	; 0x6578 <__divmodhi4>
    1952:	cb 01       	movw	r24, r22
    1954:	8e 83       	std	Y+6, r24	; 0x06
            if (n < (NUMCHAN - 1))
                n++;
            goto redisplay;
        case UP:
            percent = (unsigned char) (Dmx::inVal[n] * 100 / 255);
            do {
    1956:	9e 81       	ldd	r25, Y+6	; 0x06
    1958:	8b 81       	ldd	r24, Y+3	; 0x03
    195a:	98 17       	cp	r25, r24
    195c:	39 f2       	breq	.-114    	; 0x18ec <_ZN3App11localScreenEv+0x750>
                Dmx::inVal[n]++;

                pr = (unsigned char) (Dmx::inVal[n] * 100 / 255);
            }
            while (pr == percent);
            goto redisplay;
    195e:	31 cc       	rjmp	.-1950   	; 0x11c2 <_ZN3App11localScreenEv+0x26>
        case DOWN:
            percent = (unsigned char) (Dmx::inVal[n] * 100 / 255);
    1960:	80 91 1b 01 	lds	r24, 0x011B
    1964:	88 2f       	mov	r24, r24
    1966:	90 e0       	ldi	r25, 0x00	; 0
    1968:	8c 59       	subi	r24, 0x9C	; 156
    196a:	9e 4f       	sbci	r25, 0xFE	; 254
    196c:	fc 01       	movw	r30, r24
    196e:	80 81       	ld	r24, Z
    1970:	88 2f       	mov	r24, r24
    1972:	90 e0       	ldi	r25, 0x00	; 0
    1974:	24 e6       	ldi	r18, 0x64	; 100
    1976:	28 9f       	mul	r18, r24
    1978:	a0 01       	movw	r20, r0
    197a:	29 9f       	mul	r18, r25
    197c:	50 0d       	add	r21, r0
    197e:	11 24       	eor	r1, r1
    1980:	2f ef       	ldi	r18, 0xFF	; 255
    1982:	30 e0       	ldi	r19, 0x00	; 0
    1984:	ca 01       	movw	r24, r20
    1986:	b9 01       	movw	r22, r18
    1988:	0e 94 bc 32 	call	0x6578	; 0x6578 <__divmodhi4>
    198c:	cb 01       	movw	r24, r22
    198e:	8b 83       	std	Y+3, r24	; 0x03
            do {
                if (!Dmx::inVal[n])
    1990:	80 91 1b 01 	lds	r24, 0x011B
    1994:	88 2f       	mov	r24, r24
    1996:	90 e0       	ldi	r25, 0x00	; 0
    1998:	8c 59       	subi	r24, 0x9C	; 156
    199a:	9e 4f       	sbci	r25, 0xFE	; 254
    199c:	fc 01       	movw	r30, r24
    199e:	90 81       	ld	r25, Z
    19a0:	81 e0       	ldi	r24, 0x01	; 1
    19a2:	99 23       	and	r25, r25
    19a4:	09 f0       	breq	.+2      	; 0x19a8 <_ZN3App11localScreenEv+0x80c>
    19a6:	80 e0       	ldi	r24, 0x00	; 0
    19a8:	88 23       	and	r24, r24
    19aa:	09 f0       	breq	.+2      	; 0x19ae <_ZN3App11localScreenEv+0x812>
                    break;
    19ac:	2a c0       	rjmp	.+84     	; 0x1a02 <_ZN3App11localScreenEv+0x866>
                Dmx::inVal[n]--;
    19ae:	80 91 1b 01 	lds	r24, 0x011B
    19b2:	88 2f       	mov	r24, r24
    19b4:	90 e0       	ldi	r25, 0x00	; 0
    19b6:	9c 01       	movw	r18, r24
    19b8:	2c 59       	subi	r18, 0x9C	; 156
    19ba:	3e 4f       	sbci	r19, 0xFE	; 254
    19bc:	f9 01       	movw	r30, r18
    19be:	20 81       	ld	r18, Z
    19c0:	21 50       	subi	r18, 0x01	; 1
    19c2:	8c 59       	subi	r24, 0x9C	; 156
    19c4:	9e 4f       	sbci	r25, 0xFE	; 254
    19c6:	fc 01       	movw	r30, r24
    19c8:	20 83       	st	Z, r18

                pr = (unsigned char) (Dmx::inVal[n] * 100 / 255);
    19ca:	80 91 1b 01 	lds	r24, 0x011B
    19ce:	88 2f       	mov	r24, r24
    19d0:	90 e0       	ldi	r25, 0x00	; 0
    19d2:	8c 59       	subi	r24, 0x9C	; 156
    19d4:	9e 4f       	sbci	r25, 0xFE	; 254
    19d6:	fc 01       	movw	r30, r24
    19d8:	80 81       	ld	r24, Z
    19da:	88 2f       	mov	r24, r24
    19dc:	90 e0       	ldi	r25, 0x00	; 0
    19de:	24 e6       	ldi	r18, 0x64	; 100
    19e0:	28 9f       	mul	r18, r24
    19e2:	a0 01       	movw	r20, r0
    19e4:	29 9f       	mul	r18, r25
    19e6:	50 0d       	add	r21, r0
    19e8:	11 24       	eor	r1, r1
    19ea:	2f ef       	ldi	r18, 0xFF	; 255
    19ec:	30 e0       	ldi	r19, 0x00	; 0
    19ee:	ca 01       	movw	r24, r20
    19f0:	b9 01       	movw	r22, r18
    19f2:	0e 94 bc 32 	call	0x6578	; 0x6578 <__divmodhi4>
    19f6:	cb 01       	movw	r24, r22
    19f8:	8e 83       	std	Y+6, r24	; 0x06
            }
            while (pr == percent);
            goto redisplay;
        case DOWN:
            percent = (unsigned char) (Dmx::inVal[n] * 100 / 255);
            do {
    19fa:	9e 81       	ldd	r25, Y+6	; 0x06
    19fc:	8b 81       	ldd	r24, Y+3	; 0x03
    19fe:	98 17       	cp	r25, r24
    1a00:	39 f2       	breq	.-114    	; 0x1990 <_ZN3App11localScreenEv+0x7f4>
                Dmx::inVal[n]--;

                pr = (unsigned char) (Dmx::inVal[n] * 100 / 255);
            }
            while (pr == percent);
            goto redisplay;
    1a02:	df cb       	rjmp	.-2114   	; 0x11c2 <_ZN3App11localScreenEv+0x26>
        case ENT:
            Kbd::autoRepeat = 0;
    1a04:	10 92 94 01 	sts	0x0194, r1
            Menue::menue.base();
    1a08:	81 ea       	ldi	r24, 0xA1	; 161
    1a0a:	91 e0       	ldi	r25, 0x01	; 1
    1a0c:	0e 94 b3 15 	call	0x2b66	; 0x2b66 <_ZN5Menue4baseEv>
            Kbd::autoRepeat = 1;
    1a10:	81 e0       	ldi	r24, 0x01	; 1
    1a12:	80 93 94 01 	sts	0x0194, r24
            break;
    1a16:	01 c0       	rjmp	.+2      	; 0x1a1a <_ZN3App11localScreenEv+0x87e>

        default:
            goto readkey;
    1a18:	0d cf       	rjmp	.-486    	; 0x1834 <_ZN3App11localScreenEv+0x698>
    }
}
    1a1a:	6c 96       	adiw	r28, 0x1c	; 28
    1a1c:	0f b6       	in	r0, 0x3f	; 63
    1a1e:	f8 94       	cli
    1a20:	de bf       	out	0x3e, r29	; 62
    1a22:	0f be       	out	0x3f, r0	; 63
    1a24:	cd bf       	out	0x3d, r28	; 61
    1a26:	df 91       	pop	r29
    1a28:	cf 91       	pop	r28
    1a2a:	08 95       	ret

00001a2c <_ZN3App3runEv>:
//
// aplication main loop
//

void App::run()
{
    1a2c:	cf 93       	push	r28
    1a2e:	df 93       	push	r29
    1a30:	00 d0       	rcall	.+0      	; 0x1a32 <_ZN3App3runEv+0x6>
    1a32:	00 d0       	rcall	.+0      	; 0x1a34 <_ZN3App3runEv+0x8>
    1a34:	00 d0       	rcall	.+0      	; 0x1a36 <_ZN3App3runEv+0xa>
    1a36:	cd b7       	in	r28, 0x3d	; 61
    1a38:	de b7       	in	r29, 0x3e	; 62
    1a3a:	9e 83       	std	Y+6, r25	; 0x06
    1a3c:	8d 83       	std	Y+5, r24	; 0x05
    printfLcd(0, 0, "Elsis digital ++");
    1a3e:	84 e5       	ldi	r24, 0x54	; 84
    1a40:	91 e0       	ldi	r25, 0x01	; 1
    1a42:	29 2f       	mov	r18, r25
    1a44:	2f 93       	push	r18
    1a46:	8f 93       	push	r24
    1a48:	1f 92       	push	r1
    1a4a:	1f 92       	push	r1
    1a4c:	8e e9       	ldi	r24, 0x9E	; 158
    1a4e:	91 e0       	ldi	r25, 0x01	; 1
    1a50:	89 2f       	mov	r24, r25
    1a52:	8f 93       	push	r24
    1a54:	8e e9       	ldi	r24, 0x9E	; 158
    1a56:	91 e0       	ldi	r25, 0x01	; 1
    1a58:	8f 93       	push	r24
    1a5a:	0e 94 3f 15 	call	0x2a7e	; 0x2a7e <_ZN3Lcd5printEhhPKcz>
    1a5e:	0f 90       	pop	r0
    1a60:	0f 90       	pop	r0
    1a62:	0f 90       	pop	r0
    1a64:	0f 90       	pop	r0
    1a66:	0f 90       	pop	r0
    1a68:	0f 90       	pop	r0
    printfLcd(1, 0, "    V  %d.%d        ", VERSION/10, VERSION%10);
    1a6a:	85 e6       	ldi	r24, 0x65	; 101
    1a6c:	91 e0       	ldi	r25, 0x01	; 1
    1a6e:	1f 92       	push	r1
    1a70:	1f 92       	push	r1
    1a72:	1f 92       	push	r1
    1a74:	21 e0       	ldi	r18, 0x01	; 1
    1a76:	2f 93       	push	r18
    1a78:	29 2f       	mov	r18, r25
    1a7a:	2f 93       	push	r18
    1a7c:	8f 93       	push	r24
    1a7e:	1f 92       	push	r1
    1a80:	81 e0       	ldi	r24, 0x01	; 1
    1a82:	8f 93       	push	r24
    1a84:	8e e9       	ldi	r24, 0x9E	; 158
    1a86:	91 e0       	ldi	r25, 0x01	; 1
    1a88:	89 2f       	mov	r24, r25
    1a8a:	8f 93       	push	r24
    1a8c:	8e e9       	ldi	r24, 0x9E	; 158
    1a8e:	91 e0       	ldi	r25, 0x01	; 1
    1a90:	8f 93       	push	r24
    1a92:	f5 d7       	rcall	.+4074   	; 0x2a7e <_ZN3Lcd5printEhhPKcz>
    1a94:	8d b7       	in	r24, 0x3d	; 61
    1a96:	9e b7       	in	r25, 0x3e	; 62
    1a98:	0a 96       	adiw	r24, 0x0a	; 10
    1a9a:	0f b6       	in	r0, 0x3f	; 63
    1a9c:	f8 94       	cli
    1a9e:	de bf       	out	0x3e, r29	; 62
    1aa0:	0f be       	out	0x3f, r0	; 63
    1aa2:	cd bf       	out	0x3d, r28	; 61
    printfLcd(3, 0, " ...booting...  ");
    1aa4:	8a e7       	ldi	r24, 0x7A	; 122
    1aa6:	91 e0       	ldi	r25, 0x01	; 1
    1aa8:	29 2f       	mov	r18, r25
    1aaa:	2f 93       	push	r18
    1aac:	8f 93       	push	r24
    1aae:	1f 92       	push	r1
    1ab0:	83 e0       	ldi	r24, 0x03	; 3
    1ab2:	8f 93       	push	r24
    1ab4:	8e e9       	ldi	r24, 0x9E	; 158
    1ab6:	91 e0       	ldi	r25, 0x01	; 1
    1ab8:	89 2f       	mov	r24, r25
    1aba:	8f 93       	push	r24
    1abc:	8e e9       	ldi	r24, 0x9E	; 158
    1abe:	91 e0       	ldi	r25, 0x01	; 1
    1ac0:	8f 93       	push	r24
    1ac2:	dd d7       	rcall	.+4026   	; 0x2a7e <_ZN3Lcd5printEhhPKcz>
    1ac4:	0f 90       	pop	r0
    1ac6:	0f 90       	pop	r0
    1ac8:	0f 90       	pop	r0
    1aca:	0f 90       	pop	r0
    1acc:	0f 90       	pop	r0
    1ace:	0f 90       	pop	r0

	for (unsigned long wt = 0; wt < 100000 /*1000000*/; wt++) {
    1ad0:	19 82       	std	Y+1, r1	; 0x01
    1ad2:	1a 82       	std	Y+2, r1	; 0x02
    1ad4:	1b 82       	std	Y+3, r1	; 0x03
    1ad6:	1c 82       	std	Y+4, r1	; 0x04
    1ad8:	0d c0       	rjmp	.+26     	; 0x1af4 <_ZN3App3runEv+0xc8>
        wdt_reset();
    1ada:	a8 95       	wdr
        asm("nop\n");
    1adc:	00 00       	nop
{
    printfLcd(0, 0, "Elsis digital ++");
    printfLcd(1, 0, "    V  %d.%d        ", VERSION/10, VERSION%10);
    printfLcd(3, 0, " ...booting...  ");

	for (unsigned long wt = 0; wt < 100000 /*1000000*/; wt++) {
    1ade:	89 81       	ldd	r24, Y+1	; 0x01
    1ae0:	9a 81       	ldd	r25, Y+2	; 0x02
    1ae2:	ab 81       	ldd	r26, Y+3	; 0x03
    1ae4:	bc 81       	ldd	r27, Y+4	; 0x04
    1ae6:	01 96       	adiw	r24, 0x01	; 1
    1ae8:	a1 1d       	adc	r26, r1
    1aea:	b1 1d       	adc	r27, r1
    1aec:	89 83       	std	Y+1, r24	; 0x01
    1aee:	9a 83       	std	Y+2, r25	; 0x02
    1af0:	ab 83       	std	Y+3, r26	; 0x03
    1af2:	bc 83       	std	Y+4, r27	; 0x04
    1af4:	89 81       	ldd	r24, Y+1	; 0x01
    1af6:	9a 81       	ldd	r25, Y+2	; 0x02
    1af8:	ab 81       	ldd	r26, Y+3	; 0x03
    1afa:	bc 81       	ldd	r27, Y+4	; 0x04
    1afc:	80 3a       	cpi	r24, 0xA0	; 160
    1afe:	96 48       	sbci	r25, 0x86	; 134
    1b00:	a1 40       	sbci	r26, 0x01	; 1
    1b02:	b1 05       	cpc	r27, r1
    1b04:	50 f3       	brcs	.-44     	; 0x1ada <_ZN3App3runEv+0xae>
        wdt_reset();
        asm("nop\n");
    }
    sei();                      // get the world going
    1b06:	78 94       	sei
    for (;;) {
       if (Dmx::valid )
    1b08:	90 91 7c 01 	lds	r25, 0x017C
    1b0c:	81 e0       	ldi	r24, 0x01	; 1
    1b0e:	99 23       	and	r25, r25
    1b10:	09 f4       	brne	.+2      	; 0x1b14 <_ZN3App3runEv+0xe8>
    1b12:	80 e0       	ldi	r24, 0x00	; 0
    1b14:	88 23       	and	r24, r24
    1b16:	21 f0       	breq	.+8      	; 0x1b20 <_ZN3App3runEv+0xf4>
            dmxScreen();
    1b18:	8d 81       	ldd	r24, Y+5	; 0x05
    1b1a:	9e 81       	ldd	r25, Y+6	; 0x06
    1b1c:	e5 d9       	rcall	.-3126   	; 0xee8 <_ZN3App9dmxScreenEv>
    1b1e:	03 c0       	rjmp	.+6      	; 0x1b26 <_ZN3App3runEv+0xfa>
        else
            localScreen();
    1b20:	8d 81       	ldd	r24, Y+5	; 0x05
    1b22:	9e 81       	ldd	r25, Y+6	; 0x06
    1b24:	3b db       	rcall	.-2442   	; 0x119c <_ZN3App11localScreenEv>
        wdt_reset();
    1b26:	a8 95       	wdr
    }
    1b28:	ef cf       	rjmp	.-34     	; 0x1b08 <_ZN3App3runEv+0xdc>

00001b2a <main>:
}

int main()
{
    1b2a:	cf 93       	push	r28
    1b2c:	df 93       	push	r29
    1b2e:	cd b7       	in	r28, 0x3d	; 61
    1b30:	de b7       	in	r29, 0x3e	; 62
				: "I" (_SFR_IO_ADDR(_WD_CONTROL_REG)),
				"r" ((uint8_t)(_BV(_WD_CHANGE_BIT) | _BV(WDE))),
				"r" ((uint8_t) ((value & 0x08 ? _WD_PS3_MASK : 0x00) |
						_BV(WDE) | (value & 0x07)) )
				: "r0"
		);
    1b32:	86 e0       	ldi	r24, 0x06	; 6
    1b34:	87 70       	andi	r24, 0x07	; 7
    1b36:	88 60       	ori	r24, 0x08	; 8
    1b38:	98 2f       	mov	r25, r24
    1b3a:	88 e1       	ldi	r24, 0x18	; 24
    1b3c:	0f b6       	in	r0, 0x3f	; 63
    1b3e:	f8 94       	cli
    1b40:	a8 95       	wdr
    1b42:	81 bd       	out	0x21, r24	; 33
    1b44:	0f be       	out	0x3f, r0	; 63
    1b46:	91 bd       	out	0x21, r25	; 33
	wdt_enable(WDTO_1S);      // watchdog to 1 second
    App::app.run();
    1b48:	8a e1       	ldi	r24, 0x1A	; 26
    1b4a:	91 e0       	ldi	r25, 0x01	; 1
    1b4c:	6f df       	rcall	.-290    	; 0x1a2c <_ZN3App3runEv>
    return 0;
    1b4e:	80 e0       	ldi	r24, 0x00	; 0
    1b50:	90 e0       	ldi	r25, 0x00	; 0
}
    1b52:	df 91       	pop	r29
    1b54:	cf 91       	pop	r28
    1b56:	08 95       	ret

00001b58 <_Z41__static_initialization_and_destruction_0ii>:
    1b58:	cf 93       	push	r28
    1b5a:	df 93       	push	r29
    1b5c:	00 d0       	rcall	.+0      	; 0x1b5e <_Z41__static_initialization_and_destruction_0ii+0x6>
    1b5e:	00 d0       	rcall	.+0      	; 0x1b60 <_Z41__static_initialization_and_destruction_0ii+0x8>
    1b60:	cd b7       	in	r28, 0x3d	; 61
    1b62:	de b7       	in	r29, 0x3e	; 62
    1b64:	9a 83       	std	Y+2, r25	; 0x02
    1b66:	89 83       	std	Y+1, r24	; 0x01
    1b68:	7c 83       	std	Y+4, r23	; 0x04
    1b6a:	6b 83       	std	Y+3, r22	; 0x03
    1b6c:	89 81       	ldd	r24, Y+1	; 0x01
    1b6e:	9a 81       	ldd	r25, Y+2	; 0x02
    1b70:	01 97       	sbiw	r24, 0x01	; 1
    1b72:	39 f4       	brne	.+14     	; 0x1b82 <_Z41__static_initialization_and_destruction_0ii+0x2a>
    1b74:	8b 81       	ldd	r24, Y+3	; 0x03
    1b76:	9c 81       	ldd	r25, Y+4	; 0x04
    1b78:	01 96       	adiw	r24, 0x01	; 1
    1b7a:	19 f4       	brne	.+6      	; 0x1b82 <_Z41__static_initialization_and_destruction_0ii+0x2a>

//
// Static class instances and members
//

App App::app;
    1b7c:	8a e1       	ldi	r24, 0x1A	; 26
    1b7e:	91 e0       	ldi	r25, 0x01	; 1
    1b80:	a7 d9       	rcall	.-3250   	; 0xed0 <_ZN3AppC1Ev>
int main()
{
	wdt_enable(WDTO_1S);      // watchdog to 1 second
    App::app.run();
    return 0;
}
    1b82:	0f 90       	pop	r0
    1b84:	0f 90       	pop	r0
    1b86:	0f 90       	pop	r0
    1b88:	0f 90       	pop	r0
    1b8a:	df 91       	pop	r29
    1b8c:	cf 91       	pop	r28
    1b8e:	08 95       	ret

00001b90 <_GLOBAL__sub_I__ZN3App3appE>:
    1b90:	cf 93       	push	r28
    1b92:	df 93       	push	r29
    1b94:	cd b7       	in	r28, 0x3d	; 61
    1b96:	de b7       	in	r29, 0x3e	; 62
    1b98:	6f ef       	ldi	r22, 0xFF	; 255
    1b9a:	7f ef       	ldi	r23, 0xFF	; 255
    1b9c:	81 e0       	ldi	r24, 0x01	; 1
    1b9e:	90 e0       	ldi	r25, 0x00	; 0
    1ba0:	db df       	rcall	.-74     	; 0x1b58 <_Z41__static_initialization_and_destruction_0ii>
    1ba2:	df 91       	pop	r29
    1ba4:	cf 91       	pop	r28
    1ba6:	08 95       	ret

00001ba8 <_ZN5CurveC1Ev>:
};

unsigned char Curve::test(unsigned char inVal)
{
    return (pgm_read_byte_near( (unsigned int)&cPower[inVal]));
};
    1ba8:	cf 93       	push	r28
    1baa:	df 93       	push	r29
    1bac:	00 d0       	rcall	.+0      	; 0x1bae <_ZN5CurveC1Ev+0x6>
    1bae:	cd b7       	in	r28, 0x3d	; 61
    1bb0:	de b7       	in	r29, 0x3e	; 62
    1bb2:	9a 83       	std	Y+2, r25	; 0x02
    1bb4:	89 83       	std	Y+1, r24	; 0x01
    1bb6:	0f 90       	pop	r0
    1bb8:	0f 90       	pop	r0
    1bba:	df 91       	pop	r29
    1bbc:	cf 91       	pop	r28
    1bbe:	08 95       	ret

00001bc0 <_ZN5Curve6getRmsEhh>:
    1bc0:	cf 93       	push	r28
    1bc2:	df 93       	push	r29
    1bc4:	00 d0       	rcall	.+0      	; 0x1bc6 <_ZN5Curve6getRmsEhh+0x6>
    1bc6:	00 d0       	rcall	.+0      	; 0x1bc8 <_ZN5Curve6getRmsEhh+0x8>
    1bc8:	1f 92       	push	r1
    1bca:	cd b7       	in	r28, 0x3d	; 61
    1bcc:	de b7       	in	r29, 0x3e	; 62
    1bce:	8c 83       	std	Y+4, r24	; 0x04
    1bd0:	6d 83       	std	Y+5, r22	; 0x05
    1bd2:	8c 81       	ldd	r24, Y+4	; 0x04
    1bd4:	88 2f       	mov	r24, r24
    1bd6:	90 e0       	ldi	r25, 0x00	; 0
    1bd8:	81 52       	subi	r24, 0x21	; 33
    1bda:	9e 4f       	sbci	r25, 0xFE	; 254
    1bdc:	fc 01       	movw	r30, r24
    1bde:	80 81       	ld	r24, Z
    1be0:	28 2f       	mov	r18, r24
    1be2:	30 e0       	ldi	r19, 0x00	; 0
    1be4:	8d 81       	ldd	r24, Y+5	; 0x05
    1be6:	88 2f       	mov	r24, r24
    1be8:	90 e0       	ldi	r25, 0x00	; 0
    1bea:	32 2f       	mov	r19, r18
    1bec:	22 27       	eor	r18, r18
    1bee:	82 0f       	add	r24, r18
    1bf0:	93 1f       	adc	r25, r19
    1bf2:	85 57       	subi	r24, 0x75	; 117
    1bf4:	9d 4f       	sbci	r25, 0xFD	; 253
    1bf6:	9a 83       	std	Y+2, r25	; 0x02
    1bf8:	89 83       	std	Y+1, r24	; 0x01
    1bfa:	89 81       	ldd	r24, Y+1	; 0x01
    1bfc:	9a 81       	ldd	r25, Y+2	; 0x02
    1bfe:	fc 01       	movw	r30, r24
    1c00:	84 91       	lpm	r24, Z
    1c02:	8b 83       	std	Y+3, r24	; 0x03
    1c04:	8b 81       	ldd	r24, Y+3	; 0x03
    1c06:	0f 90       	pop	r0
    1c08:	0f 90       	pop	r0
    1c0a:	0f 90       	pop	r0
    1c0c:	0f 90       	pop	r0
    1c0e:	0f 90       	pop	r0
    1c10:	df 91       	pop	r29
    1c12:	cf 91       	pop	r28
    1c14:	08 95       	ret

00001c16 <_ZN5Curve13getPhaseAngleEh>:
    1c16:	cf 93       	push	r28
    1c18:	df 93       	push	r29
    1c1a:	00 d0       	rcall	.+0      	; 0x1c1c <_ZN5Curve13getPhaseAngleEh+0x6>
    1c1c:	00 d0       	rcall	.+0      	; 0x1c1e <_ZN5Curve13getPhaseAngleEh+0x8>
    1c1e:	cd b7       	in	r28, 0x3d	; 61
    1c20:	de b7       	in	r29, 0x3e	; 62
    1c22:	8c 83       	std	Y+4, r24	; 0x04
    1c24:	8c 81       	ldd	r24, Y+4	; 0x04
    1c26:	88 2f       	mov	r24, r24
    1c28:	90 e0       	ldi	r25, 0x00	; 0
    1c2a:	85 57       	subi	r24, 0x75	; 117
    1c2c:	9e 4f       	sbci	r25, 0xFE	; 254
    1c2e:	9a 83       	std	Y+2, r25	; 0x02
    1c30:	89 83       	std	Y+1, r24	; 0x01
    1c32:	89 81       	ldd	r24, Y+1	; 0x01
    1c34:	9a 81       	ldd	r25, Y+2	; 0x02
    1c36:	fc 01       	movw	r30, r24
    1c38:	84 91       	lpm	r24, Z
    1c3a:	8b 83       	std	Y+3, r24	; 0x03
    1c3c:	8b 81       	ldd	r24, Y+3	; 0x03
    1c3e:	0f 90       	pop	r0
    1c40:	0f 90       	pop	r0
    1c42:	0f 90       	pop	r0
    1c44:	0f 90       	pop	r0
    1c46:	df 91       	pop	r29
    1c48:	cf 91       	pop	r28
    1c4a:	08 95       	ret

00001c4c <_Z41__static_initialization_and_destruction_0ii>:
    1c4c:	cf 93       	push	r28
    1c4e:	df 93       	push	r29
    1c50:	00 d0       	rcall	.+0      	; 0x1c52 <_Z41__static_initialization_and_destruction_0ii+0x6>
    1c52:	00 d0       	rcall	.+0      	; 0x1c54 <_Z41__static_initialization_and_destruction_0ii+0x8>
    1c54:	cd b7       	in	r28, 0x3d	; 61
    1c56:	de b7       	in	r29, 0x3e	; 62
    1c58:	9a 83       	std	Y+2, r25	; 0x02
    1c5a:	89 83       	std	Y+1, r24	; 0x01
    1c5c:	7c 83       	std	Y+4, r23	; 0x04
    1c5e:	6b 83       	std	Y+3, r22	; 0x03
    1c60:	89 81       	ldd	r24, Y+1	; 0x01
    1c62:	9a 81       	ldd	r25, Y+2	; 0x02
    1c64:	01 97       	sbiw	r24, 0x01	; 1
    1c66:	39 f4       	brne	.+14     	; 0x1c76 <_Z41__static_initialization_and_destruction_0ii+0x2a>
    1c68:	8b 81       	ldd	r24, Y+3	; 0x03
    1c6a:	9c 81       	ldd	r25, Y+4	; 0x04
    1c6c:	01 96       	adiw	r24, 0x01	; 1
    1c6e:	19 f4       	brne	.+6      	; 0x1c76 <_Z41__static_initialization_and_destruction_0ii+0x2a>

//
// static class instance and members
//

Curve Curve::curve;
    1c70:	8c e1       	ldi	r24, 0x1C	; 28
    1c72:	91 e0       	ldi	r25, 0x01	; 1
    1c74:	99 df       	rcall	.-206    	; 0x1ba8 <_ZN5CurveC1Ev>
};

unsigned char Curve::test(unsigned char inVal)
{
    return (pgm_read_byte_near( (unsigned int)&cPower[inVal]));
};
    1c76:	0f 90       	pop	r0
    1c78:	0f 90       	pop	r0
    1c7a:	0f 90       	pop	r0
    1c7c:	0f 90       	pop	r0
    1c7e:	df 91       	pop	r29
    1c80:	cf 91       	pop	r28
    1c82:	08 95       	ret

00001c84 <_GLOBAL__sub_I__ZN5Curve5curveE>:
    1c84:	cf 93       	push	r28
    1c86:	df 93       	push	r29
    1c88:	cd b7       	in	r28, 0x3d	; 61
    1c8a:	de b7       	in	r29, 0x3e	; 62
    1c8c:	6f ef       	ldi	r22, 0xFF	; 255
    1c8e:	7f ef       	ldi	r23, 0xFF	; 255
    1c90:	81 e0       	ldi	r24, 0x01	; 1
    1c92:	90 e0       	ldi	r25, 0x00	; 0
    1c94:	db df       	rcall	.-74     	; 0x1c4c <_Z41__static_initialization_and_destruction_0ii>
    1c96:	df 91       	pop	r29
    1c98:	cf 91       	pop	r28
    1c9a:	08 95       	ret

00001c9c <_ZN3Dda4initEiiii>:
Dda::Dda()
{
}

void Dda::init(int x1, int x2, int y1, int y2)
{
    1c9c:	cf 93       	push	r28
    1c9e:	df 93       	push	r29
    1ca0:	cd b7       	in	r28, 0x3d	; 61
    1ca2:	de b7       	in	r29, 0x3e	; 62
    1ca4:	28 97       	sbiw	r28, 0x08	; 8
    1ca6:	0f b6       	in	r0, 0x3f	; 63
    1ca8:	f8 94       	cli
    1caa:	de bf       	out	0x3e, r29	; 62
    1cac:	0f be       	out	0x3f, r0	; 63
    1cae:	cd bf       	out	0x3d, r28	; 61
    1cb0:	9a 83       	std	Y+2, r25	; 0x02
    1cb2:	89 83       	std	Y+1, r24	; 0x01
    1cb4:	7c 83       	std	Y+4, r23	; 0x04
    1cb6:	6b 83       	std	Y+3, r22	; 0x03
    1cb8:	5e 83       	std	Y+6, r21	; 0x06
    1cba:	4d 83       	std	Y+5, r20	; 0x05
    1cbc:	38 87       	std	Y+8, r19	; 0x08
    1cbe:	2f 83       	std	Y+7, r18	; 0x07
    dx = abs(x2 - x1);
    1cc0:	2b 81       	ldd	r18, Y+3	; 0x03
    1cc2:	3c 81       	ldd	r19, Y+4	; 0x04
    1cc4:	89 81       	ldd	r24, Y+1	; 0x01
    1cc6:	9a 81       	ldd	r25, Y+2	; 0x02
    1cc8:	a9 01       	movw	r20, r18
    1cca:	48 1b       	sub	r20, r24
    1ccc:	59 0b       	sbc	r21, r25
    1cce:	ca 01       	movw	r24, r20
    1cd0:	99 23       	and	r25, r25
    1cd2:	1c f4       	brge	.+6      	; 0x1cda <_ZN3Dda4initEiiii+0x3e>
    1cd4:	91 95       	neg	r25
    1cd6:	81 95       	neg	r24
    1cd8:	91 09       	sbc	r25, r1
    1cda:	90 93 1e 01 	sts	0x011E, r25
    1cde:	80 93 1d 01 	sts	0x011D, r24
    xv = (x2 > x1) ? 1 : -1;
    1ce2:	2b 81       	ldd	r18, Y+3	; 0x03
    1ce4:	3c 81       	ldd	r19, Y+4	; 0x04
    1ce6:	89 81       	ldd	r24, Y+1	; 0x01
    1ce8:	9a 81       	ldd	r25, Y+2	; 0x02
    1cea:	82 17       	cp	r24, r18
    1cec:	93 07       	cpc	r25, r19
    1cee:	1c f4       	brge	.+6      	; 0x1cf6 <_ZN3Dda4initEiiii+0x5a>
    1cf0:	81 e0       	ldi	r24, 0x01	; 1
    1cf2:	90 e0       	ldi	r25, 0x00	; 0
    1cf4:	02 c0       	rjmp	.+4      	; 0x1cfa <_ZN3Dda4initEiiii+0x5e>
    1cf6:	8f ef       	ldi	r24, 0xFF	; 255
    1cf8:	9f ef       	ldi	r25, 0xFF	; 255
    1cfa:	90 93 24 01 	sts	0x0124, r25
    1cfe:	80 93 23 01 	sts	0x0123, r24
    dy = abs(y2 - y1);
    1d02:	2f 81       	ldd	r18, Y+7	; 0x07
    1d04:	38 85       	ldd	r19, Y+8	; 0x08
    1d06:	8d 81       	ldd	r24, Y+5	; 0x05
    1d08:	9e 81       	ldd	r25, Y+6	; 0x06
    1d0a:	a9 01       	movw	r20, r18
    1d0c:	48 1b       	sub	r20, r24
    1d0e:	59 0b       	sbc	r21, r25
    1d10:	ca 01       	movw	r24, r20
    1d12:	99 23       	and	r25, r25
    1d14:	1c f4       	brge	.+6      	; 0x1d1c <_ZN3Dda4initEiiii+0x80>
    1d16:	91 95       	neg	r25
    1d18:	81 95       	neg	r24
    1d1a:	91 09       	sbc	r25, r1
    1d1c:	90 93 20 01 	sts	0x0120, r25
    1d20:	80 93 1f 01 	sts	0x011F, r24
    yv = (y2 > y1) ? 1 : -1;
    1d24:	2f 81       	ldd	r18, Y+7	; 0x07
    1d26:	38 85       	ldd	r19, Y+8	; 0x08
    1d28:	8d 81       	ldd	r24, Y+5	; 0x05
    1d2a:	9e 81       	ldd	r25, Y+6	; 0x06
    1d2c:	82 17       	cp	r24, r18
    1d2e:	93 07       	cpc	r25, r19
    1d30:	1c f4       	brge	.+6      	; 0x1d38 <_ZN3Dda4initEiiii+0x9c>
    1d32:	81 e0       	ldi	r24, 0x01	; 1
    1d34:	90 e0       	ldi	r25, 0x00	; 0
    1d36:	02 c0       	rjmp	.+4      	; 0x1d3c <_ZN3Dda4initEiiii+0xa0>
    1d38:	8f ef       	ldi	r24, 0xFF	; 255
    1d3a:	9f ef       	ldi	r25, 0xFF	; 255
    1d3c:	90 93 26 01 	sts	0x0126, r25
    1d40:	80 93 25 01 	sts	0x0125, r24
    x = x0 = x1;
    1d44:	89 81       	ldd	r24, Y+1	; 0x01
    1d46:	9a 81       	ldd	r25, Y+2	; 0x02
    1d48:	90 93 2c 01 	sts	0x012C, r25
    1d4c:	80 93 2b 01 	sts	0x012B, r24
    1d50:	80 91 2b 01 	lds	r24, 0x012B
    1d54:	90 91 2c 01 	lds	r25, 0x012C
    1d58:	90 93 28 01 	sts	0x0128, r25
    1d5c:	80 93 27 01 	sts	0x0127, r24
    y = y0 = y1;
    1d60:	8d 81       	ldd	r24, Y+5	; 0x05
    1d62:	9e 81       	ldd	r25, Y+6	; 0x06
    1d64:	90 93 2e 01 	sts	0x012E, r25
    1d68:	80 93 2d 01 	sts	0x012D, r24
    1d6c:	80 91 2d 01 	lds	r24, 0x012D
    1d70:	90 91 2e 01 	lds	r25, 0x012E
    1d74:	90 93 2a 01 	sts	0x012A, r25
    1d78:	80 93 29 01 	sts	0x0129, r24
    xx = x2;
    1d7c:	8b 81       	ldd	r24, Y+3	; 0x03
    1d7e:	9c 81       	ldd	r25, Y+4	; 0x04
    1d80:	90 93 30 01 	sts	0x0130, r25
    1d84:	80 93 2f 01 	sts	0x012F, r24
    yy = y2;
    1d88:	8f 81       	ldd	r24, Y+7	; 0x07
    1d8a:	98 85       	ldd	r25, Y+8	; 0x08
    1d8c:	90 93 32 01 	sts	0x0132, r25
    1d90:	80 93 31 01 	sts	0x0131, r24
    r = 0;
    1d94:	10 92 22 01 	sts	0x0122, r1
    1d98:	10 92 21 01 	sts	0x0121, r1
}
    1d9c:	28 96       	adiw	r28, 0x08	; 8
    1d9e:	0f b6       	in	r0, 0x3f	; 63
    1da0:	f8 94       	cli
    1da2:	de bf       	out	0x3e, r29	; 62
    1da4:	0f be       	out	0x3f, r0	; 63
    1da6:	cd bf       	out	0x3d, r28	; 61
    1da8:	df 91       	pop	r29
    1daa:	cf 91       	pop	r28
    1dac:	08 95       	ret

00001dae <_ZN3Dda4nextEv>:

int Dda::next()
{                               /* 20th century math... */
    1dae:	cf 93       	push	r28
    1db0:	df 93       	push	r29
    1db2:	cd b7       	in	r28, 0x3d	; 61
    1db4:	de b7       	in	r29, 0x3e	; 62
    if (dx >= dy) {
    1db6:	20 91 1d 01 	lds	r18, 0x011D
    1dba:	30 91 1e 01 	lds	r19, 0x011E
    1dbe:	80 91 1f 01 	lds	r24, 0x011F
    1dc2:	90 91 20 01 	lds	r25, 0x0120
    1dc6:	28 17       	cp	r18, r24
    1dc8:	39 07       	cpc	r19, r25
    1dca:	0c f4       	brge	.+2      	; 0x1dce <_ZN3Dda4nextEv+0x20>
    1dcc:	4b c0       	rjmp	.+150    	; 0x1e64 <_ZN3Dda4nextEv+0xb6>
        x += xv;
    1dce:	20 91 27 01 	lds	r18, 0x0127
    1dd2:	30 91 28 01 	lds	r19, 0x0128
    1dd6:	80 91 23 01 	lds	r24, 0x0123
    1dda:	90 91 24 01 	lds	r25, 0x0124
    1dde:	82 0f       	add	r24, r18
    1de0:	93 1f       	adc	r25, r19
    1de2:	90 93 28 01 	sts	0x0128, r25
    1de6:	80 93 27 01 	sts	0x0127, r24
        r += dy;
    1dea:	20 91 21 01 	lds	r18, 0x0121
    1dee:	30 91 22 01 	lds	r19, 0x0122
    1df2:	80 91 1f 01 	lds	r24, 0x011F
    1df6:	90 91 20 01 	lds	r25, 0x0120
    1dfa:	82 0f       	add	r24, r18
    1dfc:	93 1f       	adc	r25, r19
    1dfe:	90 93 22 01 	sts	0x0122, r25
    1e02:	80 93 21 01 	sts	0x0121, r24
        if (r < dx)
    1e06:	20 91 21 01 	lds	r18, 0x0121
    1e0a:	30 91 22 01 	lds	r19, 0x0122
    1e0e:	80 91 1d 01 	lds	r24, 0x011D
    1e12:	90 91 1e 01 	lds	r25, 0x011E
    1e16:	28 17       	cp	r18, r24
    1e18:	39 07       	cpc	r19, r25
    1e1a:	2c f4       	brge	.+10     	; 0x1e26 <_ZN3Dda4nextEv+0x78>
            return y;
    1e1c:	80 91 29 01 	lds	r24, 0x0129
    1e20:	90 91 2a 01 	lds	r25, 0x012A
    1e24:	69 c0       	rjmp	.+210    	; 0x1ef8 <_ZN3Dda4nextEv+0x14a>
        y += yv;
    1e26:	20 91 29 01 	lds	r18, 0x0129
    1e2a:	30 91 2a 01 	lds	r19, 0x012A
    1e2e:	80 91 25 01 	lds	r24, 0x0125
    1e32:	90 91 26 01 	lds	r25, 0x0126
    1e36:	82 0f       	add	r24, r18
    1e38:	93 1f       	adc	r25, r19
    1e3a:	90 93 2a 01 	sts	0x012A, r25
    1e3e:	80 93 29 01 	sts	0x0129, r24
        r -= dx;
    1e42:	20 91 21 01 	lds	r18, 0x0121
    1e46:	30 91 22 01 	lds	r19, 0x0122
    1e4a:	80 91 1d 01 	lds	r24, 0x011D
    1e4e:	90 91 1e 01 	lds	r25, 0x011E
    1e52:	a9 01       	movw	r20, r18
    1e54:	48 1b       	sub	r20, r24
    1e56:	59 0b       	sbc	r21, r25
    1e58:	ca 01       	movw	r24, r20
    1e5a:	90 93 22 01 	sts	0x0122, r25
    1e5e:	80 93 21 01 	sts	0x0121, r24
    1e62:	46 c0       	rjmp	.+140    	; 0x1ef0 <_ZN3Dda4nextEv+0x142>
    } else {
      loop:
        y += yv;
    1e64:	20 91 29 01 	lds	r18, 0x0129
    1e68:	30 91 2a 01 	lds	r19, 0x012A
    1e6c:	80 91 25 01 	lds	r24, 0x0125
    1e70:	90 91 26 01 	lds	r25, 0x0126
    1e74:	82 0f       	add	r24, r18
    1e76:	93 1f       	adc	r25, r19
    1e78:	90 93 2a 01 	sts	0x012A, r25
    1e7c:	80 93 29 01 	sts	0x0129, r24
        r += dx;
    1e80:	20 91 21 01 	lds	r18, 0x0121
    1e84:	30 91 22 01 	lds	r19, 0x0122
    1e88:	80 91 1d 01 	lds	r24, 0x011D
    1e8c:	90 91 1e 01 	lds	r25, 0x011E
    1e90:	82 0f       	add	r24, r18
    1e92:	93 1f       	adc	r25, r19
    1e94:	90 93 22 01 	sts	0x0122, r25
    1e98:	80 93 21 01 	sts	0x0121, r24
        if (r < dy)
    1e9c:	20 91 21 01 	lds	r18, 0x0121
    1ea0:	30 91 22 01 	lds	r19, 0x0122
    1ea4:	80 91 1f 01 	lds	r24, 0x011F
    1ea8:	90 91 20 01 	lds	r25, 0x0120
    1eac:	28 17       	cp	r18, r24
    1eae:	39 07       	cpc	r19, r25
    1eb0:	0c f4       	brge	.+2      	; 0x1eb4 <_ZN3Dda4nextEv+0x106>
            goto loop;
    1eb2:	d8 cf       	rjmp	.-80     	; 0x1e64 <_ZN3Dda4nextEv+0xb6>
        x += xv;
    1eb4:	20 91 27 01 	lds	r18, 0x0127
    1eb8:	30 91 28 01 	lds	r19, 0x0128
    1ebc:	80 91 23 01 	lds	r24, 0x0123
    1ec0:	90 91 24 01 	lds	r25, 0x0124
    1ec4:	82 0f       	add	r24, r18
    1ec6:	93 1f       	adc	r25, r19
    1ec8:	90 93 28 01 	sts	0x0128, r25
    1ecc:	80 93 27 01 	sts	0x0127, r24
        r -= dy;
    1ed0:	20 91 21 01 	lds	r18, 0x0121
    1ed4:	30 91 22 01 	lds	r19, 0x0122
    1ed8:	80 91 1f 01 	lds	r24, 0x011F
    1edc:	90 91 20 01 	lds	r25, 0x0120
    1ee0:	a9 01       	movw	r20, r18
    1ee2:	48 1b       	sub	r20, r24
    1ee4:	59 0b       	sbc	r21, r25
    1ee6:	ca 01       	movw	r24, r20
    1ee8:	90 93 22 01 	sts	0x0122, r25
    1eec:	80 93 21 01 	sts	0x0121, r24
    }
    return y;
    1ef0:	80 91 29 01 	lds	r24, 0x0129
    1ef4:	90 91 2a 01 	lds	r25, 0x012A
}
    1ef8:	df 91       	pop	r29
    1efa:	cf 91       	pop	r28
    1efc:	08 95       	ret

00001efe <_ZN3DmxC1Ev>:
volatile unsigned char Dmx::first2,Dmx::scan2,Dmx::read2,Dmx::flag2;
volatile unsigned char * Dmx::ptr1, * Dmx::ptr2;
volatile unsigned int Dmx::cnt1,Dmx::cnt2;
unsigned char Dmx::mode = 0;  // 0=1only, 1=2 only, 2=merge both

Dmx::Dmx()
    1efe:	cf 93       	push	r28
    1f00:	df 93       	push	r29
    1f02:	00 d0       	rcall	.+0      	; 0x1f04 <_ZN3DmxC1Ev+0x6>
    1f04:	cd b7       	in	r28, 0x3d	; 61
    1f06:	de b7       	in	r29, 0x3e	; 62
    1f08:	9a 83       	std	Y+2, r25	; 0x02
    1f0a:	89 83       	std	Y+1, r24	; 0x01
{
    // Dmx 1
    UBRR0L = ( MEGACLOCK / 4 - 1 ); // 250kbaud
    1f0c:	89 e2       	ldi	r24, 0x29	; 41
    1f0e:	90 e0       	ldi	r25, 0x00	; 0
    1f10:	23 e0       	ldi	r18, 0x03	; 3
    1f12:	fc 01       	movw	r30, r24
    1f14:	20 83       	st	Z, r18
    UCSR0A = 0;
    1f16:	8b e2       	ldi	r24, 0x2B	; 43
    1f18:	90 e0       	ldi	r25, 0x00	; 0
    1f1a:	fc 01       	movw	r30, r24
    1f1c:	10 82       	st	Z, r1
    UCSR0B = _BV( RXCIE ) | _BV( RXEN ) | _BV( UCSZ2 ) | _BV( TXB8 );
    1f1e:	8a e2       	ldi	r24, 0x2A	; 42
    1f20:	90 e0       	ldi	r25, 0x00	; 0
    1f22:	25 e9       	ldi	r18, 0x95	; 149
    1f24:	fc 01       	movw	r30, r24
    1f26:	20 83       	st	Z, r18
                                                 // 9 bit rxen rxinten
    UCSR0C = _BV( UCSZ1 ) | _BV( UCSZ0 ); // 9 bit 1 stop
    1f28:	85 e9       	ldi	r24, 0x95	; 149
    1f2a:	90 e0       	ldi	r25, 0x00	; 0
    1f2c:	26 e0       	ldi	r18, 0x06	; 6
    1f2e:	fc 01       	movw	r30, r24
    1f30:	20 83       	st	Z, r18
    // Dmx 2
    PORTD &= ~(_BV(4));  //     cbi( PORTD, 4 );
    1f32:	82 e3       	ldi	r24, 0x32	; 50
    1f34:	90 e0       	ldi	r25, 0x00	; 0
    1f36:	22 e3       	ldi	r18, 0x32	; 50
    1f38:	30 e0       	ldi	r19, 0x00	; 0
    1f3a:	f9 01       	movw	r30, r18
    1f3c:	20 81       	ld	r18, Z
    1f3e:	2f 7e       	andi	r18, 0xEF	; 239
    1f40:	fc 01       	movw	r30, r24
    1f42:	20 83       	st	Z, r18
	DDRD |= _BV(4);   //     sbi( DDRD, 4 );                 // input
    1f44:	81 e3       	ldi	r24, 0x31	; 49
    1f46:	90 e0       	ldi	r25, 0x00	; 0
    1f48:	21 e3       	ldi	r18, 0x31	; 49
    1f4a:	30 e0       	ldi	r19, 0x00	; 0
    1f4c:	f9 01       	movw	r30, r18
    1f4e:	20 81       	ld	r18, Z
    1f50:	20 61       	ori	r18, 0x10	; 16
    1f52:	fc 01       	movw	r30, r24
    1f54:	20 83       	st	Z, r18


    UBRR1L = ( MEGACLOCK / 4 - 1 ); // 250kbaud
    1f56:	89 e9       	ldi	r24, 0x99	; 153
    1f58:	90 e0       	ldi	r25, 0x00	; 0
    1f5a:	23 e0       	ldi	r18, 0x03	; 3
    1f5c:	fc 01       	movw	r30, r24
    1f5e:	20 83       	st	Z, r18
    UCSR1A = 0;
    1f60:	8b e9       	ldi	r24, 0x9B	; 155
    1f62:	90 e0       	ldi	r25, 0x00	; 0
    1f64:	fc 01       	movw	r30, r24
    1f66:	10 82       	st	Z, r1
    UCSR1B = _BV( RXCIE ) | _BV( RXEN ) | _BV( TXEN ) | _BV( UCSZ2 ) | _BV( TXB8 ); 
    1f68:	8a e9       	ldi	r24, 0x9A	; 154
    1f6a:	90 e0       	ldi	r25, 0x00	; 0
    1f6c:	2d e9       	ldi	r18, 0x9D	; 157
    1f6e:	fc 01       	movw	r30, r24
    1f70:	20 83       	st	Z, r18
                                                 // 9 bit rxen rxinten
    UCSR1C = _BV( UCSZ1 ) | _BV( UCSZ0 ); // 9 bit 1 stop
    1f72:	8d e9       	ldi	r24, 0x9D	; 157
    1f74:	90 e0       	ldi	r25, 0x00	; 0
    1f76:	26 e0       	ldi	r18, 0x06	; 6
    1f78:	fc 01       	movw	r30, r24
    1f7a:	20 83       	st	Z, r18
}
    1f7c:	0f 90       	pop	r0
    1f7e:	0f 90       	pop	r0
    1f80:	df 91       	pop	r29
    1f82:	cf 91       	pop	r28
    1f84:	08 95       	ret

00001f86 <_ZN3Dmx7dmx1IntEv>:

void Dmx::dmx1Int()
{
    1f86:	cf 93       	push	r28
    1f88:	df 93       	push	r29
    1f8a:	00 d0       	rcall	.+0      	; 0x1f8c <_ZN3Dmx7dmx1IntEv+0x6>
    1f8c:	1f 92       	push	r1
    1f8e:	cd b7       	in	r28, 0x3d	; 61
    1f90:	de b7       	in	r29, 0x3e	; 62
    unsigned char stata = UCSR0A;
    1f92:	8b e2       	ldi	r24, 0x2B	; 43
    1f94:	90 e0       	ldi	r25, 0x00	; 0
    1f96:	fc 01       	movw	r30, r24
    1f98:	80 81       	ld	r24, Z
    1f9a:	89 83       	std	Y+1, r24	; 0x01
    unsigned char statb = UCSR0B;
    1f9c:	8a e2       	ldi	r24, 0x2A	; 42
    1f9e:	90 e0       	ldi	r25, 0x00	; 0
    1fa0:	fc 01       	movw	r30, r24
    1fa2:	80 81       	ld	r24, Z
    1fa4:	8a 83       	std	Y+2, r24	; 0x02
    unsigned char data = UDR0;
    1fa6:	8c e2       	ldi	r24, 0x2C	; 44
    1fa8:	90 e0       	ldi	r25, 0x00	; 0
    1faa:	fc 01       	movw	r30, r24
    1fac:	80 81       	ld	r24, Z
    1fae:	8b 83       	std	Y+3, r24	; 0x03
    if ( !data && !( statb & _BV( RXB8 ) ) ) { // handle break here
    1fb0:	8b 81       	ldd	r24, Y+3	; 0x03
    1fb2:	88 23       	and	r24, r24
    1fb4:	79 f4       	brne	.+30     	; 0x1fd4 <_ZN3Dmx7dmx1IntEv+0x4e>
    1fb6:	8a 81       	ldd	r24, Y+2	; 0x02
    1fb8:	88 2f       	mov	r24, r24
    1fba:	90 e0       	ldi	r25, 0x00	; 0
    1fbc:	82 70       	andi	r24, 0x02	; 2
    1fbe:	99 27       	eor	r25, r25
    1fc0:	89 2b       	or	r24, r25
    1fc2:	41 f4       	brne	.+16     	; 0x1fd4 <_ZN3Dmx7dmx1IntEv+0x4e>
        first1 = 1;
    1fc4:	81 e0       	ldi	r24, 0x01	; 1
    1fc6:	80 93 7f 01 	sts	0x017F, r24
        scan1 = 0;
    1fca:	10 92 80 01 	sts	0x0180, r1
        read1 = 0;
    1fce:	10 92 81 01 	sts	0x0181, r1
        return;
    1fd2:	72 c0       	rjmp	.+228    	; 0x20b8 <_ZN3Dmx7dmx1IntEv+0x132>
    }
    if ( first1 ) {
    1fd4:	90 91 7f 01 	lds	r25, 0x017F
    1fd8:	81 e0       	ldi	r24, 0x01	; 1
    1fda:	99 23       	and	r25, r25
    1fdc:	09 f4       	brne	.+2      	; 0x1fe0 <_ZN3Dmx7dmx1IntEv+0x5a>
    1fde:	80 e0       	ldi	r24, 0x00	; 0
    1fe0:	88 23       	and	r24, r24
    1fe2:	c9 f0       	breq	.+50     	; 0x2016 <_ZN3Dmx7dmx1IntEv+0x90>
        first1 = 0;
    1fe4:	10 92 7f 01 	sts	0x017F, r1
        if ( data ) return; // check break code
    1fe8:	8b 81       	ldd	r24, Y+3	; 0x03
    1fea:	88 23       	and	r24, r24
    1fec:	09 f0       	breq	.+2      	; 0x1ff0 <_ZN3Dmx7dmx1IntEv+0x6a>
    1fee:	64 c0       	rjmp	.+200    	; 0x20b8 <_ZN3Dmx7dmx1IntEv+0x132>
        flag1 = 1;
    1ff0:	81 e0       	ldi	r24, 0x01	; 1
    1ff2:	80 93 82 01 	sts	0x0182, r24
        scan1 = 1;
    1ff6:	81 e0       	ldi	r24, 0x01	; 1
    1ff8:	80 93 80 01 	sts	0x0180, r24
        ptr1 = &inBuff1[0];
    1ffc:	84 e3       	ldi	r24, 0x34	; 52
    1ffe:	91 e0       	ldi	r25, 0x01	; 1
    2000:	90 93 88 01 	sts	0x0188, r25
    2004:	80 93 87 01 	sts	0x0187, r24
        cnt1 = 0;
    2008:	10 92 8c 01 	sts	0x018C, r1
    200c:	10 92 8b 01 	sts	0x018B, r1
        data=stata;
    2010:	89 81       	ldd	r24, Y+1	; 0x01
    2012:	8b 83       	std	Y+3, r24	; 0x03
        return;
    2014:	51 c0       	rjmp	.+162    	; 0x20b8 <_ZN3Dmx7dmx1IntEv+0x132>
    }
    if ( scan1 ) {
    2016:	90 91 80 01 	lds	r25, 0x0180
    201a:	81 e0       	ldi	r24, 0x01	; 1
    201c:	99 23       	and	r25, r25
    201e:	09 f4       	brne	.+2      	; 0x2022 <_ZN3Dmx7dmx1IntEv+0x9c>
    2020:	80 e0       	ldi	r24, 0x00	; 0
    2022:	88 23       	and	r24, r24
    2024:	f9 f0       	breq	.+62     	; 0x2064 <_ZN3Dmx7dmx1IntEv+0xde>
        if ( ( ++cnt1 ) >= Nvr::setup.dmxAddr ) {
    2026:	80 91 8b 01 	lds	r24, 0x018B
    202a:	90 91 8c 01 	lds	r25, 0x018C
    202e:	01 96       	adiw	r24, 0x01	; 1
    2030:	90 93 8c 01 	sts	0x018C, r25
    2034:	80 93 8b 01 	sts	0x018B, r24
    2038:	20 91 c5 01 	lds	r18, 0x01C5
    203c:	30 91 c6 01 	lds	r19, 0x01C6
    2040:	41 e0       	ldi	r20, 0x01	; 1
    2042:	82 17       	cp	r24, r18
    2044:	93 07       	cpc	r25, r19
    2046:	08 f4       	brcc	.+2      	; 0x204a <_ZN3Dmx7dmx1IntEv+0xc4>
    2048:	40 e0       	ldi	r20, 0x00	; 0
    204a:	44 23       	and	r20, r20
    204c:	51 f0       	breq	.+20     	; 0x2062 <_ZN3Dmx7dmx1IntEv+0xdc>
            cnt1 = 0;
    204e:	10 92 8c 01 	sts	0x018C, r1
    2052:	10 92 8b 01 	sts	0x018B, r1
            scan1 = 0;
    2056:	10 92 80 01 	sts	0x0180, r1
            read1 = 1;
    205a:	81 e0       	ldi	r24, 0x01	; 1
    205c:	80 93 81 01 	sts	0x0181, r24
    2060:	01 c0       	rjmp	.+2      	; 0x2064 <_ZN3Dmx7dmx1IntEv+0xde>
        }
        else
            return;
    2062:	2a c0       	rjmp	.+84     	; 0x20b8 <_ZN3Dmx7dmx1IntEv+0x132>
    }
    if ( read1 ) {
    2064:	90 91 81 01 	lds	r25, 0x0181
    2068:	81 e0       	ldi	r24, 0x01	; 1
    206a:	99 23       	and	r25, r25
    206c:	09 f4       	brne	.+2      	; 0x2070 <_ZN3Dmx7dmx1IntEv+0xea>
    206e:	80 e0       	ldi	r24, 0x00	; 0
    2070:	88 23       	and	r24, r24
    2072:	11 f1       	breq	.+68     	; 0x20b8 <_ZN3Dmx7dmx1IntEv+0x132>
        * ptr1++ = data;
    2074:	80 91 87 01 	lds	r24, 0x0187
    2078:	90 91 88 01 	lds	r25, 0x0188
    207c:	9c 01       	movw	r18, r24
    207e:	2f 5f       	subi	r18, 0xFF	; 255
    2080:	3f 4f       	sbci	r19, 0xFF	; 255
    2082:	30 93 88 01 	sts	0x0188, r19
    2086:	20 93 87 01 	sts	0x0187, r18
    208a:	2b 81       	ldd	r18, Y+3	; 0x03
    208c:	fc 01       	movw	r30, r24
    208e:	20 83       	st	Z, r18
        if ( ++cnt1 > 23 ) {
    2090:	80 91 8b 01 	lds	r24, 0x018B
    2094:	90 91 8c 01 	lds	r25, 0x018C
    2098:	01 96       	adiw	r24, 0x01	; 1
    209a:	90 93 8c 01 	sts	0x018C, r25
    209e:	80 93 8b 01 	sts	0x018B, r24
    20a2:	21 e0       	ldi	r18, 0x01	; 1
    20a4:	48 97       	sbiw	r24, 0x18	; 24
    20a6:	08 f4       	brcc	.+2      	; 0x20aa <_ZN3Dmx7dmx1IntEv+0x124>
    20a8:	20 e0       	ldi	r18, 0x00	; 0
    20aa:	22 23       	and	r18, r18
    20ac:	29 f0       	breq	.+10     	; 0x20b8 <_ZN3Dmx7dmx1IntEv+0x132>
            valid1=30;
    20ae:	8e e1       	ldi	r24, 0x1E	; 30
    20b0:	80 93 7d 01 	sts	0x017D, r24
            read1 = 0;
    20b4:	10 92 81 01 	sts	0x0181, r1
        }
    }
}
    20b8:	0f 90       	pop	r0
    20ba:	0f 90       	pop	r0
    20bc:	0f 90       	pop	r0
    20be:	df 91       	pop	r29
    20c0:	cf 91       	pop	r28
    20c2:	08 95       	ret

000020c4 <__vector_18>:

extern "C"
ISR( USART0_RX_vect)
{
    20c4:	1f 92       	push	r1
    20c6:	0f 92       	push	r0
    20c8:	00 90 5f 00 	lds	r0, 0x005F
    20cc:	0f 92       	push	r0
    20ce:	11 24       	eor	r1, r1
    20d0:	00 90 5b 00 	lds	r0, 0x005B
    20d4:	0f 92       	push	r0
    20d6:	2f 93       	push	r18
    20d8:	3f 93       	push	r19
    20da:	4f 93       	push	r20
    20dc:	5f 93       	push	r21
    20de:	6f 93       	push	r22
    20e0:	7f 93       	push	r23
    20e2:	8f 93       	push	r24
    20e4:	9f 93       	push	r25
    20e6:	af 93       	push	r26
    20e8:	bf 93       	push	r27
    20ea:	ef 93       	push	r30
    20ec:	ff 93       	push	r31
    20ee:	cf 93       	push	r28
    20f0:	df 93       	push	r29
    20f2:	cd b7       	in	r28, 0x3d	; 61
    20f4:	de b7       	in	r29, 0x3e	; 62
    Dmx::dmx1Int();
    20f6:	47 df       	rcall	.-370    	; 0x1f86 <_ZN3Dmx7dmx1IntEv>
}
    20f8:	df 91       	pop	r29
    20fa:	cf 91       	pop	r28
    20fc:	ff 91       	pop	r31
    20fe:	ef 91       	pop	r30
    2100:	bf 91       	pop	r27
    2102:	af 91       	pop	r26
    2104:	9f 91       	pop	r25
    2106:	8f 91       	pop	r24
    2108:	7f 91       	pop	r23
    210a:	6f 91       	pop	r22
    210c:	5f 91       	pop	r21
    210e:	4f 91       	pop	r20
    2110:	3f 91       	pop	r19
    2112:	2f 91       	pop	r18
    2114:	0f 90       	pop	r0
    2116:	00 92 5b 00 	sts	0x005B, r0
    211a:	0f 90       	pop	r0
    211c:	00 92 5f 00 	sts	0x005F, r0
    2120:	0f 90       	pop	r0
    2122:	1f 90       	pop	r1
    2124:	18 95       	reti

00002126 <_ZN3Dmx7dmx2IntEv>:

void Dmx::dmx2Int()
{
    2126:	cf 93       	push	r28
    2128:	df 93       	push	r29
    212a:	00 d0       	rcall	.+0      	; 0x212c <_ZN3Dmx7dmx2IntEv+0x6>
    212c:	1f 92       	push	r1
    212e:	cd b7       	in	r28, 0x3d	; 61
    2130:	de b7       	in	r29, 0x3e	; 62
	    unsigned char stata = UCSR1A;
    2132:	8b e9       	ldi	r24, 0x9B	; 155
    2134:	90 e0       	ldi	r25, 0x00	; 0
    2136:	fc 01       	movw	r30, r24
    2138:	80 81       	ld	r24, Z
    213a:	89 83       	std	Y+1, r24	; 0x01
	    unsigned char statb = UCSR1B;
    213c:	8a e9       	ldi	r24, 0x9A	; 154
    213e:	90 e0       	ldi	r25, 0x00	; 0
    2140:	fc 01       	movw	r30, r24
    2142:	80 81       	ld	r24, Z
    2144:	8a 83       	std	Y+2, r24	; 0x02
	    unsigned char data = UDR1;
    2146:	8c e9       	ldi	r24, 0x9C	; 156
    2148:	90 e0       	ldi	r25, 0x00	; 0
    214a:	fc 01       	movw	r30, r24
    214c:	80 81       	ld	r24, Z
    214e:	8b 83       	std	Y+3, r24	; 0x03
	    if ( !data && !( statb & _BV( RXB8 ) ) ) { // handle break here
    2150:	8b 81       	ldd	r24, Y+3	; 0x03
    2152:	88 23       	and	r24, r24
    2154:	79 f4       	brne	.+30     	; 0x2174 <_ZN3Dmx7dmx2IntEv+0x4e>
    2156:	8a 81       	ldd	r24, Y+2	; 0x02
    2158:	88 2f       	mov	r24, r24
    215a:	90 e0       	ldi	r25, 0x00	; 0
    215c:	82 70       	andi	r24, 0x02	; 2
    215e:	99 27       	eor	r25, r25
    2160:	89 2b       	or	r24, r25
    2162:	41 f4       	brne	.+16     	; 0x2174 <_ZN3Dmx7dmx2IntEv+0x4e>
        first2 = 1;
    2164:	81 e0       	ldi	r24, 0x01	; 1
    2166:	80 93 83 01 	sts	0x0183, r24
        scan2 = 0;
    216a:	10 92 84 01 	sts	0x0184, r1
        read2 = 0;
    216e:	10 92 85 01 	sts	0x0185, r1
        return;
    2172:	72 c0       	rjmp	.+228    	; 0x2258 <_ZN3Dmx7dmx2IntEv+0x132>
    }
    if ( first2 ) {
    2174:	90 91 83 01 	lds	r25, 0x0183
    2178:	81 e0       	ldi	r24, 0x01	; 1
    217a:	99 23       	and	r25, r25
    217c:	09 f4       	brne	.+2      	; 0x2180 <_ZN3Dmx7dmx2IntEv+0x5a>
    217e:	80 e0       	ldi	r24, 0x00	; 0
    2180:	88 23       	and	r24, r24
    2182:	c9 f0       	breq	.+50     	; 0x21b6 <_ZN3Dmx7dmx2IntEv+0x90>
        first2 = 0;
    2184:	10 92 83 01 	sts	0x0183, r1
        if ( data ) return; // check break code
    2188:	8b 81       	ldd	r24, Y+3	; 0x03
    218a:	88 23       	and	r24, r24
    218c:	09 f0       	breq	.+2      	; 0x2190 <_ZN3Dmx7dmx2IntEv+0x6a>
    218e:	64 c0       	rjmp	.+200    	; 0x2258 <_ZN3Dmx7dmx2IntEv+0x132>
        flag2 = 1;
    2190:	81 e0       	ldi	r24, 0x01	; 1
    2192:	80 93 86 01 	sts	0x0186, r24
        scan2 = 1;
    2196:	81 e0       	ldi	r24, 0x01	; 1
    2198:	80 93 84 01 	sts	0x0184, r24
        ptr2 = &inBuff2[0];
    219c:	8c e4       	ldi	r24, 0x4C	; 76
    219e:	91 e0       	ldi	r25, 0x01	; 1
    21a0:	90 93 8a 01 	sts	0x018A, r25
    21a4:	80 93 89 01 	sts	0x0189, r24
        cnt2 = 0;
    21a8:	10 92 8e 01 	sts	0x018E, r1
    21ac:	10 92 8d 01 	sts	0x018D, r1
        data=stata;
    21b0:	89 81       	ldd	r24, Y+1	; 0x01
    21b2:	8b 83       	std	Y+3, r24	; 0x03
        return;
    21b4:	51 c0       	rjmp	.+162    	; 0x2258 <_ZN3Dmx7dmx2IntEv+0x132>
    }
    if ( scan2 ) {
    21b6:	90 91 84 01 	lds	r25, 0x0184
    21ba:	81 e0       	ldi	r24, 0x01	; 1
    21bc:	99 23       	and	r25, r25
    21be:	09 f4       	brne	.+2      	; 0x21c2 <_ZN3Dmx7dmx2IntEv+0x9c>
    21c0:	80 e0       	ldi	r24, 0x00	; 0
    21c2:	88 23       	and	r24, r24
    21c4:	f9 f0       	breq	.+62     	; 0x2204 <_ZN3Dmx7dmx2IntEv+0xde>
        if ( ( ++cnt2 ) >= Nvr::setup.dmxAddr ) {
    21c6:	80 91 8d 01 	lds	r24, 0x018D
    21ca:	90 91 8e 01 	lds	r25, 0x018E
    21ce:	01 96       	adiw	r24, 0x01	; 1
    21d0:	90 93 8e 01 	sts	0x018E, r25
    21d4:	80 93 8d 01 	sts	0x018D, r24
    21d8:	20 91 c5 01 	lds	r18, 0x01C5
    21dc:	30 91 c6 01 	lds	r19, 0x01C6
    21e0:	41 e0       	ldi	r20, 0x01	; 1
    21e2:	82 17       	cp	r24, r18
    21e4:	93 07       	cpc	r25, r19
    21e6:	08 f4       	brcc	.+2      	; 0x21ea <_ZN3Dmx7dmx2IntEv+0xc4>
    21e8:	40 e0       	ldi	r20, 0x00	; 0
    21ea:	44 23       	and	r20, r20
    21ec:	51 f0       	breq	.+20     	; 0x2202 <_ZN3Dmx7dmx2IntEv+0xdc>
            cnt2 = 0;
    21ee:	10 92 8e 01 	sts	0x018E, r1
    21f2:	10 92 8d 01 	sts	0x018D, r1
            scan2 = 0;
    21f6:	10 92 84 01 	sts	0x0184, r1
            read2 = 1;
    21fa:	81 e0       	ldi	r24, 0x01	; 1
    21fc:	80 93 85 01 	sts	0x0185, r24
    2200:	01 c0       	rjmp	.+2      	; 0x2204 <_ZN3Dmx7dmx2IntEv+0xde>
        }
        else
            return;
    2202:	2a c0       	rjmp	.+84     	; 0x2258 <_ZN3Dmx7dmx2IntEv+0x132>
    }
    if ( read2 ) {
    2204:	90 91 85 01 	lds	r25, 0x0185
    2208:	81 e0       	ldi	r24, 0x01	; 1
    220a:	99 23       	and	r25, r25
    220c:	09 f4       	brne	.+2      	; 0x2210 <_ZN3Dmx7dmx2IntEv+0xea>
    220e:	80 e0       	ldi	r24, 0x00	; 0
    2210:	88 23       	and	r24, r24
    2212:	11 f1       	breq	.+68     	; 0x2258 <_ZN3Dmx7dmx2IntEv+0x132>
        * ptr2++ = data;
    2214:	80 91 89 01 	lds	r24, 0x0189
    2218:	90 91 8a 01 	lds	r25, 0x018A
    221c:	9c 01       	movw	r18, r24
    221e:	2f 5f       	subi	r18, 0xFF	; 255
    2220:	3f 4f       	sbci	r19, 0xFF	; 255
    2222:	30 93 8a 01 	sts	0x018A, r19
    2226:	20 93 89 01 	sts	0x0189, r18
    222a:	2b 81       	ldd	r18, Y+3	; 0x03
    222c:	fc 01       	movw	r30, r24
    222e:	20 83       	st	Z, r18
        if ( ++cnt2 > 23 ) {
    2230:	80 91 8d 01 	lds	r24, 0x018D
    2234:	90 91 8e 01 	lds	r25, 0x018E
    2238:	01 96       	adiw	r24, 0x01	; 1
    223a:	90 93 8e 01 	sts	0x018E, r25
    223e:	80 93 8d 01 	sts	0x018D, r24
    2242:	21 e0       	ldi	r18, 0x01	; 1
    2244:	48 97       	sbiw	r24, 0x18	; 24
    2246:	08 f4       	brcc	.+2      	; 0x224a <_ZN3Dmx7dmx2IntEv+0x124>
    2248:	20 e0       	ldi	r18, 0x00	; 0
    224a:	22 23       	and	r18, r18
    224c:	29 f0       	breq	.+10     	; 0x2258 <_ZN3Dmx7dmx2IntEv+0x132>
            valid2=30;
    224e:	8e e1       	ldi	r24, 0x1E	; 30
    2250:	80 93 7e 01 	sts	0x017E, r24
            read2 = 0;
    2254:	10 92 85 01 	sts	0x0185, r1
        }
    }
}
    2258:	0f 90       	pop	r0
    225a:	0f 90       	pop	r0
    225c:	0f 90       	pop	r0
    225e:	df 91       	pop	r29
    2260:	cf 91       	pop	r28
    2262:	08 95       	ret

00002264 <__vector_30>:

extern "C"
ISR( USART1_RX_vect )
{
    2264:	1f 92       	push	r1
    2266:	0f 92       	push	r0
    2268:	00 90 5f 00 	lds	r0, 0x005F
    226c:	0f 92       	push	r0
    226e:	11 24       	eor	r1, r1
    2270:	00 90 5b 00 	lds	r0, 0x005B
    2274:	0f 92       	push	r0
    2276:	2f 93       	push	r18
    2278:	3f 93       	push	r19
    227a:	4f 93       	push	r20
    227c:	5f 93       	push	r21
    227e:	6f 93       	push	r22
    2280:	7f 93       	push	r23
    2282:	8f 93       	push	r24
    2284:	9f 93       	push	r25
    2286:	af 93       	push	r26
    2288:	bf 93       	push	r27
    228a:	ef 93       	push	r30
    228c:	ff 93       	push	r31
    228e:	cf 93       	push	r28
    2290:	df 93       	push	r29
    2292:	cd b7       	in	r28, 0x3d	; 61
    2294:	de b7       	in	r29, 0x3e	; 62
    Dmx::dmx2Int();
    2296:	47 df       	rcall	.-370    	; 0x2126 <_ZN3Dmx7dmx2IntEv>
}
    2298:	df 91       	pop	r29
    229a:	cf 91       	pop	r28
    229c:	ff 91       	pop	r31
    229e:	ef 91       	pop	r30
    22a0:	bf 91       	pop	r27
    22a2:	af 91       	pop	r26
    22a4:	9f 91       	pop	r25
    22a6:	8f 91       	pop	r24
    22a8:	7f 91       	pop	r23
    22aa:	6f 91       	pop	r22
    22ac:	5f 91       	pop	r21
    22ae:	4f 91       	pop	r20
    22b0:	3f 91       	pop	r19
    22b2:	2f 91       	pop	r18
    22b4:	0f 90       	pop	r0
    22b6:	00 92 5b 00 	sts	0x005B, r0
    22ba:	0f 90       	pop	r0
    22bc:	00 92 5f 00 	sts	0x005F, r0
    22c0:	0f 90       	pop	r0
    22c2:	1f 90       	pop	r1
    22c4:	18 95       	reti

000022c6 <_ZN3Dmx5mergeEv>:

void Dmx::merge()            // merge here
{
    22c6:	cf 93       	push	r28
    22c8:	df 93       	push	r29
    22ca:	1f 92       	push	r1
    22cc:	cd b7       	in	r28, 0x3d	; 61
    22ce:	de b7       	in	r29, 0x3e	; 62
    unsigned char chn;

    if ( !mode ) {
    22d0:	80 91 8f 01 	lds	r24, 0x018F
    22d4:	88 23       	and	r24, r24
    22d6:	11 f5       	brne	.+68     	; 0x231c <_ZN3Dmx5mergeEv+0x56>
        if (valid=valid1)
    22d8:	80 91 7d 01 	lds	r24, 0x017D
    22dc:	80 93 7c 01 	sts	0x017C, r24
    22e0:	91 e0       	ldi	r25, 0x01	; 1
    22e2:	88 23       	and	r24, r24
    22e4:	09 f4       	brne	.+2      	; 0x22e8 <_ZN3Dmx5mergeEv+0x22>
    22e6:	90 e0       	ldi	r25, 0x00	; 0
    22e8:	99 23       	and	r25, r25
    22ea:	09 f4       	brne	.+2      	; 0x22ee <_ZN3Dmx5mergeEv+0x28>
    22ec:	8a c0       	rjmp	.+276    	; 0x2402 <_ZN3Dmx5mergeEv+0x13c>
            for ( chn = 0; chn < 24; chn++ )
    22ee:	19 82       	std	Y+1, r1	; 0x01
    22f0:	11 c0       	rjmp	.+34     	; 0x2314 <_ZN3Dmx5mergeEv+0x4e>
                inVal[chn]=inBuff1[chn];
    22f2:	89 81       	ldd	r24, Y+1	; 0x01
    22f4:	88 2f       	mov	r24, r24
    22f6:	90 e0       	ldi	r25, 0x00	; 0
    22f8:	29 81       	ldd	r18, Y+1	; 0x01
    22fa:	22 2f       	mov	r18, r18
    22fc:	30 e0       	ldi	r19, 0x00	; 0
    22fe:	2c 5c       	subi	r18, 0xCC	; 204
    2300:	3e 4f       	sbci	r19, 0xFE	; 254
    2302:	f9 01       	movw	r30, r18
    2304:	20 81       	ld	r18, Z
    2306:	8c 59       	subi	r24, 0x9C	; 156
    2308:	9e 4f       	sbci	r25, 0xFE	; 254
    230a:	fc 01       	movw	r30, r24
    230c:	20 83       	st	Z, r18
{
    unsigned char chn;

    if ( !mode ) {
        if (valid=valid1)
            for ( chn = 0; chn < 24; chn++ )
    230e:	89 81       	ldd	r24, Y+1	; 0x01
    2310:	8f 5f       	subi	r24, 0xFF	; 255
    2312:	89 83       	std	Y+1, r24	; 0x01
    2314:	89 81       	ldd	r24, Y+1	; 0x01
    2316:	88 31       	cpi	r24, 0x18	; 24
    2318:	60 f3       	brcs	.-40     	; 0x22f2 <_ZN3Dmx5mergeEv+0x2c>
    231a:	73 c0       	rjmp	.+230    	; 0x2402 <_ZN3Dmx5mergeEv+0x13c>
                inVal[chn]=inBuff1[chn];
    }

    else if ( mode == 1 ) {
    231c:	80 91 8f 01 	lds	r24, 0x018F
    2320:	81 30       	cpi	r24, 0x01	; 1
    2322:	11 f5       	brne	.+68     	; 0x2368 <_ZN3Dmx5mergeEv+0xa2>
		if (valid=valid2)
    2324:	80 91 7e 01 	lds	r24, 0x017E
    2328:	80 93 7c 01 	sts	0x017C, r24
    232c:	91 e0       	ldi	r25, 0x01	; 1
    232e:	88 23       	and	r24, r24
    2330:	09 f4       	brne	.+2      	; 0x2334 <_ZN3Dmx5mergeEv+0x6e>
    2332:	90 e0       	ldi	r25, 0x00	; 0
    2334:	99 23       	and	r25, r25
    2336:	09 f4       	brne	.+2      	; 0x233a <_ZN3Dmx5mergeEv+0x74>
    2338:	64 c0       	rjmp	.+200    	; 0x2402 <_ZN3Dmx5mergeEv+0x13c>
			for ( chn = 0; chn < 24; chn++ ) {
    233a:	19 82       	std	Y+1, r1	; 0x01
    233c:	11 c0       	rjmp	.+34     	; 0x2360 <_ZN3Dmx5mergeEv+0x9a>
                inVal[chn]=inBuff2[chn];
    233e:	89 81       	ldd	r24, Y+1	; 0x01
    2340:	88 2f       	mov	r24, r24
    2342:	90 e0       	ldi	r25, 0x00	; 0
    2344:	29 81       	ldd	r18, Y+1	; 0x01
    2346:	22 2f       	mov	r18, r18
    2348:	30 e0       	ldi	r19, 0x00	; 0
    234a:	24 5b       	subi	r18, 0xB4	; 180
    234c:	3e 4f       	sbci	r19, 0xFE	; 254
    234e:	f9 01       	movw	r30, r18
    2350:	20 81       	ld	r18, Z
    2352:	8c 59       	subi	r24, 0x9C	; 156
    2354:	9e 4f       	sbci	r25, 0xFE	; 254
    2356:	fc 01       	movw	r30, r24
    2358:	20 83       	st	Z, r18
                inVal[chn]=inBuff1[chn];
    }

    else if ( mode == 1 ) {
		if (valid=valid2)
			for ( chn = 0; chn < 24; chn++ ) {
    235a:	89 81       	ldd	r24, Y+1	; 0x01
    235c:	8f 5f       	subi	r24, 0xFF	; 255
    235e:	89 83       	std	Y+1, r24	; 0x01
    2360:	89 81       	ldd	r24, Y+1	; 0x01
    2362:	88 31       	cpi	r24, 0x18	; 24
    2364:	60 f3       	brcs	.-40     	; 0x233e <_ZN3Dmx5mergeEv+0x78>
    2366:	4d c0       	rjmp	.+154    	; 0x2402 <_ZN3Dmx5mergeEv+0x13c>
                inVal[chn]=inBuff2[chn];
        }
    }
    else {
        if (valid= (valid1 || valid2))
    2368:	80 91 7d 01 	lds	r24, 0x017D
    236c:	88 23       	and	r24, r24
    236e:	21 f4       	brne	.+8      	; 0x2378 <_ZN3Dmx5mergeEv+0xb2>
    2370:	80 91 7e 01 	lds	r24, 0x017E
    2374:	88 23       	and	r24, r24
    2376:	11 f0       	breq	.+4      	; 0x237c <_ZN3Dmx5mergeEv+0xb6>
    2378:	81 e0       	ldi	r24, 0x01	; 1
    237a:	01 c0       	rjmp	.+2      	; 0x237e <_ZN3Dmx5mergeEv+0xb8>
    237c:	80 e0       	ldi	r24, 0x00	; 0
    237e:	98 2f       	mov	r25, r24
    2380:	90 93 7c 01 	sts	0x017C, r25
    2384:	81 e0       	ldi	r24, 0x01	; 1
    2386:	99 23       	and	r25, r25
    2388:	09 f4       	brne	.+2      	; 0x238c <_ZN3Dmx5mergeEv+0xc6>
    238a:	80 e0       	ldi	r24, 0x00	; 0
    238c:	88 23       	and	r24, r24
    238e:	c9 f1       	breq	.+114    	; 0x2402 <_ZN3Dmx5mergeEv+0x13c>
            for ( chn = 0; chn < 24; chn++ ) {
    2390:	19 82       	std	Y+1, r1	; 0x01
    2392:	34 c0       	rjmp	.+104    	; 0x23fc <_ZN3Dmx5mergeEv+0x136>
                if ( inBuff1[chn] > inBuff2[chn] )
    2394:	89 81       	ldd	r24, Y+1	; 0x01
    2396:	88 2f       	mov	r24, r24
    2398:	90 e0       	ldi	r25, 0x00	; 0
    239a:	8c 5c       	subi	r24, 0xCC	; 204
    239c:	9e 4f       	sbci	r25, 0xFE	; 254
    239e:	fc 01       	movw	r30, r24
    23a0:	20 81       	ld	r18, Z
    23a2:	89 81       	ldd	r24, Y+1	; 0x01
    23a4:	88 2f       	mov	r24, r24
    23a6:	90 e0       	ldi	r25, 0x00	; 0
    23a8:	84 5b       	subi	r24, 0xB4	; 180
    23aa:	9e 4f       	sbci	r25, 0xFE	; 254
    23ac:	fc 01       	movw	r30, r24
    23ae:	90 81       	ld	r25, Z
    23b0:	81 e0       	ldi	r24, 0x01	; 1
    23b2:	92 17       	cp	r25, r18
    23b4:	08 f0       	brcs	.+2      	; 0x23b8 <_ZN3Dmx5mergeEv+0xf2>
    23b6:	80 e0       	ldi	r24, 0x00	; 0
    23b8:	88 23       	and	r24, r24
    23ba:	79 f0       	breq	.+30     	; 0x23da <_ZN3Dmx5mergeEv+0x114>
                    inVal[chn]=inBuff1[chn];
    23bc:	89 81       	ldd	r24, Y+1	; 0x01
    23be:	88 2f       	mov	r24, r24
    23c0:	90 e0       	ldi	r25, 0x00	; 0
    23c2:	29 81       	ldd	r18, Y+1	; 0x01
    23c4:	22 2f       	mov	r18, r18
    23c6:	30 e0       	ldi	r19, 0x00	; 0
    23c8:	2c 5c       	subi	r18, 0xCC	; 204
    23ca:	3e 4f       	sbci	r19, 0xFE	; 254
    23cc:	f9 01       	movw	r30, r18
    23ce:	20 81       	ld	r18, Z
    23d0:	8c 59       	subi	r24, 0x9C	; 156
    23d2:	9e 4f       	sbci	r25, 0xFE	; 254
    23d4:	fc 01       	movw	r30, r24
    23d6:	20 83       	st	Z, r18
    23d8:	0e c0       	rjmp	.+28     	; 0x23f6 <_ZN3Dmx5mergeEv+0x130>
                else
                    inVal[chn]=inBuff2[chn];
    23da:	89 81       	ldd	r24, Y+1	; 0x01
    23dc:	88 2f       	mov	r24, r24
    23de:	90 e0       	ldi	r25, 0x00	; 0
    23e0:	29 81       	ldd	r18, Y+1	; 0x01
    23e2:	22 2f       	mov	r18, r18
    23e4:	30 e0       	ldi	r19, 0x00	; 0
    23e6:	24 5b       	subi	r18, 0xB4	; 180
    23e8:	3e 4f       	sbci	r19, 0xFE	; 254
    23ea:	f9 01       	movw	r30, r18
    23ec:	20 81       	ld	r18, Z
    23ee:	8c 59       	subi	r24, 0x9C	; 156
    23f0:	9e 4f       	sbci	r25, 0xFE	; 254
    23f2:	fc 01       	movw	r30, r24
    23f4:	20 83       	st	Z, r18
                inVal[chn]=inBuff2[chn];
        }
    }
    else {
        if (valid= (valid1 || valid2))
            for ( chn = 0; chn < 24; chn++ ) {
    23f6:	89 81       	ldd	r24, Y+1	; 0x01
    23f8:	8f 5f       	subi	r24, 0xFF	; 255
    23fa:	89 83       	std	Y+1, r24	; 0x01
    23fc:	89 81       	ldd	r24, Y+1	; 0x01
    23fe:	88 31       	cpi	r24, 0x18	; 24
    2400:	48 f2       	brcs	.-110    	; 0x2394 <_ZN3Dmx5mergeEv+0xce>
                    inVal[chn]=inBuff1[chn];
                else
                    inVal[chn]=inBuff2[chn];
            }
    }
    if (valid1) valid1--;
    2402:	90 91 7d 01 	lds	r25, 0x017D
    2406:	81 e0       	ldi	r24, 0x01	; 1
    2408:	99 23       	and	r25, r25
    240a:	09 f4       	brne	.+2      	; 0x240e <_ZN3Dmx5mergeEv+0x148>
    240c:	80 e0       	ldi	r24, 0x00	; 0
    240e:	88 23       	and	r24, r24
    2410:	29 f0       	breq	.+10     	; 0x241c <_ZN3Dmx5mergeEv+0x156>
    2412:	80 91 7d 01 	lds	r24, 0x017D
    2416:	81 50       	subi	r24, 0x01	; 1
    2418:	80 93 7d 01 	sts	0x017D, r24
    if (valid2) valid2--;
    241c:	90 91 7e 01 	lds	r25, 0x017E
    2420:	81 e0       	ldi	r24, 0x01	; 1
    2422:	99 23       	and	r25, r25
    2424:	09 f4       	brne	.+2      	; 0x2428 <_ZN3Dmx5mergeEv+0x162>
    2426:	80 e0       	ldi	r24, 0x00	; 0
    2428:	88 23       	and	r24, r24
    242a:	29 f0       	breq	.+10     	; 0x2436 <_ZN3Dmx5mergeEv+0x170>
    242c:	80 91 7e 01 	lds	r24, 0x017E
    2430:	81 50       	subi	r24, 0x01	; 1
    2432:	80 93 7e 01 	sts	0x017E, r24
}
    2436:	0f 90       	pop	r0
    2438:	df 91       	pop	r29
    243a:	cf 91       	pop	r28
    243c:	08 95       	ret

0000243e <_Z41__static_initialization_and_destruction_0ii>:
    243e:	cf 93       	push	r28
    2440:	df 93       	push	r29
    2442:	00 d0       	rcall	.+0      	; 0x2444 <_Z41__static_initialization_and_destruction_0ii+0x6>
    2444:	00 d0       	rcall	.+0      	; 0x2446 <_Z41__static_initialization_and_destruction_0ii+0x8>
    2446:	cd b7       	in	r28, 0x3d	; 61
    2448:	de b7       	in	r29, 0x3e	; 62
    244a:	9a 83       	std	Y+2, r25	; 0x02
    244c:	89 83       	std	Y+1, r24	; 0x01
    244e:	7c 83       	std	Y+4, r23	; 0x04
    2450:	6b 83       	std	Y+3, r22	; 0x03
    2452:	89 81       	ldd	r24, Y+1	; 0x01
    2454:	9a 81       	ldd	r25, Y+2	; 0x02
    2456:	01 97       	sbiw	r24, 0x01	; 1
    2458:	39 f4       	brne	.+14     	; 0x2468 <_Z41__static_initialization_and_destruction_0ii+0x2a>
    245a:	8b 81       	ldd	r24, Y+3	; 0x03
    245c:	9c 81       	ldd	r25, Y+4	; 0x04
    245e:	01 96       	adiw	r24, 0x01	; 1
    2460:	19 f4       	brne	.+6      	; 0x2468 <_Z41__static_initialization_and_destruction_0ii+0x2a>

//
// Static class instances and members
//

Dmx Dmx::dmx;
    2462:	83 e3       	ldi	r24, 0x33	; 51
    2464:	91 e0       	ldi	r25, 0x01	; 1
    2466:	4b dd       	rcall	.-1386   	; 0x1efe <_ZN3DmxC1Ev>
                    inVal[chn]=inBuff2[chn];
            }
    }
    if (valid1) valid1--;
    if (valid2) valid2--;
}
    2468:	0f 90       	pop	r0
    246a:	0f 90       	pop	r0
    246c:	0f 90       	pop	r0
    246e:	0f 90       	pop	r0
    2470:	df 91       	pop	r29
    2472:	cf 91       	pop	r28
    2474:	08 95       	ret

00002476 <_GLOBAL__sub_I__ZN3Dmx3dmxE>:
    2476:	cf 93       	push	r28
    2478:	df 93       	push	r29
    247a:	cd b7       	in	r28, 0x3d	; 61
    247c:	de b7       	in	r29, 0x3e	; 62
    247e:	6f ef       	ldi	r22, 0xFF	; 255
    2480:	7f ef       	ldi	r23, 0xFF	; 255
    2482:	81 e0       	ldi	r24, 0x01	; 1
    2484:	90 e0       	ldi	r25, 0x00	; 0
    2486:	db df       	rcall	.-74     	; 0x243e <_Z41__static_initialization_and_destruction_0ii>
    2488:	df 91       	pop	r29
    248a:	cf 91       	pop	r28
    248c:	08 95       	ret

0000248e <_getChar>:
unsigned char  Kbd::autoRepeat, Kbd::autoCount, Kbd::tick=KBDTICK;
unsigned char Kbd::buff[8];


extern "C" {
int _getChar() {
    248e:	cf 93       	push	r28
    2490:	df 93       	push	r29
    2492:	00 d0       	rcall	.+0      	; 0x2494 <_getChar+0x6>
    2494:	cd b7       	in	r28, 0x3d	; 61
    2496:	de b7       	in	r29, 0x3e	; 62
    int c;

	    if (c=(int)Kbd::get()) return c;
    2498:	a7 d0       	rcall	.+334    	; 0x25e8 <_ZN3Kbd3getEv>
    249a:	88 2f       	mov	r24, r24
    249c:	90 e0       	ldi	r25, 0x00	; 0
    249e:	9a 83       	std	Y+2, r25	; 0x02
    24a0:	89 83       	std	Y+1, r24	; 0x01
    24a2:	21 e0       	ldi	r18, 0x01	; 1
    24a4:	89 81       	ldd	r24, Y+1	; 0x01
    24a6:	9a 81       	ldd	r25, Y+2	; 0x02
    24a8:	89 2b       	or	r24, r25
    24aa:	09 f4       	brne	.+2      	; 0x24ae <_getChar+0x20>
    24ac:	20 e0       	ldi	r18, 0x00	; 0
    24ae:	22 23       	and	r18, r18
    24b0:	19 f0       	breq	.+6      	; 0x24b8 <_getChar+0x2a>
    24b2:	89 81       	ldd	r24, Y+1	; 0x01
    24b4:	9a 81       	ldd	r25, Y+2	; 0x02
    24b6:	02 c0       	rjmp	.+4      	; 0x24bc <_getChar+0x2e>
	    else return EOF;
    24b8:	8f ef       	ldi	r24, 0xFF	; 255
    24ba:	9f ef       	ldi	r25, 0xFF	; 255

}
    24bc:	0f 90       	pop	r0
    24be:	0f 90       	pop	r0
    24c0:	df 91       	pop	r29
    24c2:	cf 91       	pop	r28
    24c4:	08 95       	ret

000024c6 <_ZN3KbdC1Ev>:
}

Kbd::Kbd()
    24c6:	cf 93       	push	r28
    24c8:	df 93       	push	r29
    24ca:	00 d0       	rcall	.+0      	; 0x24cc <_ZN3KbdC1Ev+0x6>
    24cc:	cd b7       	in	r28, 0x3d	; 61
    24ce:	de b7       	in	r29, 0x3e	; 62
    24d0:	9a 83       	std	Y+2, r25	; 0x02
    24d2:	89 83       	std	Y+1, r24	; 0x01
{
    PORTE=0xFC;                // keyboard pullups
    24d4:	83 e2       	ldi	r24, 0x23	; 35
    24d6:	90 e0       	ldi	r25, 0x00	; 0
    24d8:	2c ef       	ldi	r18, 0xFC	; 252
    24da:	fc 01       	movw	r30, r24
    24dc:	20 83       	st	Z, r18
    DDRE&=~0xFC;               // and input
    24de:	82 e2       	ldi	r24, 0x22	; 34
    24e0:	90 e0       	ldi	r25, 0x00	; 0
    24e2:	22 e2       	ldi	r18, 0x22	; 34
    24e4:	30 e0       	ldi	r19, 0x00	; 0
    24e6:	f9 01       	movw	r30, r18
    24e8:	20 81       	ld	r18, Z
    24ea:	23 70       	andi	r18, 0x03	; 3
    24ec:	fc 01       	movw	r30, r24
    24ee:	20 83       	st	Z, r18
}
    24f0:	0f 90       	pop	r0
    24f2:	0f 90       	pop	r0
    24f4:	df 91       	pop	r29
    24f6:	cf 91       	pop	r28
    24f8:	08 95       	ret

000024fa <_ZN3Kbd4scanEv>:

void Kbd::scan()
{
    24fa:	cf 93       	push	r28
    24fc:	df 93       	push	r29
    24fe:	00 d0       	rcall	.+0      	; 0x2500 <_ZN3Kbd4scanEv+0x6>
    2500:	cd b7       	in	r28, 0x3d	; 61
    2502:	de b7       	in	r29, 0x3e	; 62
    if (tick) {
    2504:	80 91 07 01 	lds	r24, 0x0107
    2508:	88 23       	and	r24, r24
    250a:	31 f0       	breq	.+12     	; 0x2518 <_ZN3Kbd4scanEv+0x1e>
        tick--;
    250c:	80 91 07 01 	lds	r24, 0x0107
    2510:	81 50       	subi	r24, 0x01	; 1
    2512:	80 93 07 01 	sts	0x0107, r24
        return;
    2516:	63 c0       	rjmp	.+198    	; 0x25de <_ZN3Kbd4scanEv+0xe4>
    }
    unsigned char k;
    unsigned char p=PINE|3;
    2518:	81 e2       	ldi	r24, 0x21	; 33
    251a:	90 e0       	ldi	r25, 0x00	; 0
    251c:	fc 01       	movw	r30, r24
    251e:	80 81       	ld	r24, Z
    2520:	83 60       	ori	r24, 0x03	; 3
    2522:	8a 83       	std	Y+2, r24	; 0x02
    if (p==0xff) autoCount=0;
    2524:	8a 81       	ldd	r24, Y+2	; 0x02
    2526:	8f 3f       	cpi	r24, 0xFF	; 255
    2528:	11 f4       	brne	.+4      	; 0x252e <_ZN3Kbd4scanEv+0x34>
    252a:	10 92 95 01 	sts	0x0195, r1
    if (autoRepeat&(p!=0xff)) {
    252e:	80 91 94 01 	lds	r24, 0x0194
    2532:	28 2f       	mov	r18, r24
    2534:	30 e0       	ldi	r19, 0x00	; 0
    2536:	81 e0       	ldi	r24, 0x01	; 1
    2538:	9a 81       	ldd	r25, Y+2	; 0x02
    253a:	9f 3f       	cpi	r25, 0xFF	; 255
    253c:	09 f4       	brne	.+2      	; 0x2540 <_ZN3Kbd4scanEv+0x46>
    253e:	80 e0       	ldi	r24, 0x00	; 0
    2540:	88 2f       	mov	r24, r24
    2542:	90 e0       	ldi	r25, 0x00	; 0
    2544:	82 23       	and	r24, r18
    2546:	93 23       	and	r25, r19
    2548:	89 2b       	or	r24, r25
    254a:	e1 f0       	breq	.+56     	; 0x2584 <_ZN3Kbd4scanEv+0x8a>
        if (autoCount<10) autoCount++;
    254c:	80 91 95 01 	lds	r24, 0x0195
    2550:	8a 30       	cpi	r24, 0x0A	; 10
    2552:	28 f4       	brcc	.+10     	; 0x255e <_ZN3Kbd4scanEv+0x64>
    2554:	80 91 95 01 	lds	r24, 0x0195
    2558:	8f 5f       	subi	r24, 0xFF	; 255
    255a:	80 93 95 01 	sts	0x0195, r24
        if (autoCount>9)k=(~p)&(masq|0x48);
    255e:	80 91 95 01 	lds	r24, 0x0195
    2562:	8a 30       	cpi	r24, 0x0A	; 10
    2564:	40 f0       	brcs	.+16     	; 0x2576 <_ZN3Kbd4scanEv+0x7c>
    2566:	8a 81       	ldd	r24, Y+2	; 0x02
    2568:	80 95       	com	r24
    256a:	90 91 06 01 	lds	r25, 0x0106
    256e:	98 64       	ori	r25, 0x48	; 72
    2570:	89 23       	and	r24, r25
    2572:	89 83       	std	Y+1, r24	; 0x01
    2574:	0d c0       	rjmp	.+26     	; 0x2590 <_ZN3Kbd4scanEv+0x96>
        else k=(~p)&masq;
    2576:	8a 81       	ldd	r24, Y+2	; 0x02
    2578:	80 95       	com	r24
    257a:	90 91 06 01 	lds	r25, 0x0106
    257e:	89 23       	and	r24, r25
    2580:	89 83       	std	Y+1, r24	; 0x01
    2582:	06 c0       	rjmp	.+12     	; 0x2590 <_ZN3Kbd4scanEv+0x96>
    }
    else
        k=(~p)&masq;
    2584:	8a 81       	ldd	r24, Y+2	; 0x02
    2586:	80 95       	com	r24
    2588:	90 91 06 01 	lds	r25, 0x0106
    258c:	89 23       	and	r24, r25
    258e:	89 83       	std	Y+1, r24	; 0x01
    if (k&&(cnt<8)) {
    2590:	89 81       	ldd	r24, Y+1	; 0x01
    2592:	88 23       	and	r24, r24
    2594:	f1 f0       	breq	.+60     	; 0x25d2 <_ZN3Kbd4scanEv+0xd8>
    2596:	80 91 93 01 	lds	r24, 0x0193
    259a:	88 30       	cpi	r24, 0x08	; 8
    259c:	d0 f4       	brcc	.+52     	; 0x25d2 <_ZN3Kbd4scanEv+0xd8>
        buff[wp]=k;
    259e:	80 91 91 01 	lds	r24, 0x0191
    25a2:	88 2f       	mov	r24, r24
    25a4:	90 e0       	ldi	r25, 0x00	; 0
    25a6:	8a 56       	subi	r24, 0x6A	; 106
    25a8:	9e 4f       	sbci	r25, 0xFE	; 254
    25aa:	29 81       	ldd	r18, Y+1	; 0x01
    25ac:	fc 01       	movw	r30, r24
    25ae:	20 83       	st	Z, r18
        cnt++;
    25b0:	80 91 93 01 	lds	r24, 0x0193
    25b4:	8f 5f       	subi	r24, 0xFF	; 255
    25b6:	80 93 93 01 	sts	0x0193, r24
        if (wp<7) wp++;
    25ba:	80 91 91 01 	lds	r24, 0x0191
    25be:	87 30       	cpi	r24, 0x07	; 7
    25c0:	30 f4       	brcc	.+12     	; 0x25ce <_ZN3Kbd4scanEv+0xd4>
    25c2:	80 91 91 01 	lds	r24, 0x0191
    25c6:	8f 5f       	subi	r24, 0xFF	; 255
    25c8:	80 93 91 01 	sts	0x0191, r24
    25cc:	02 c0       	rjmp	.+4      	; 0x25d2 <_ZN3Kbd4scanEv+0xd8>
        else wp=0;
    25ce:	10 92 91 01 	sts	0x0191, r1
    }
    masq=p;
    25d2:	8a 81       	ldd	r24, Y+2	; 0x02
    25d4:	80 93 06 01 	sts	0x0106, r24
    tick=KBDTICK;
    25d8:	82 e4       	ldi	r24, 0x42	; 66
    25da:	80 93 07 01 	sts	0x0107, r24
}
    25de:	0f 90       	pop	r0
    25e0:	0f 90       	pop	r0
    25e2:	df 91       	pop	r29
    25e4:	cf 91       	pop	r28
    25e6:	08 95       	ret

000025e8 <_ZN3Kbd3getEv>:

unsigned char Kbd::get()
{
    25e8:	cf 93       	push	r28
    25ea:	df 93       	push	r29
    25ec:	1f 92       	push	r1
    25ee:	cd b7       	in	r28, 0x3d	; 61
    25f0:	de b7       	in	r29, 0x3e	; 62

    if (!cnt) return 0;
    25f2:	80 91 93 01 	lds	r24, 0x0193
    25f6:	88 23       	and	r24, r24
    25f8:	11 f4       	brne	.+4      	; 0x25fe <_ZN3Kbd3getEv+0x16>
    25fa:	80 e0       	ldi	r24, 0x00	; 0
    25fc:	1b c0       	rjmp	.+54     	; 0x2634 <_ZN3Kbd3getEv+0x4c>
    unsigned char key=buff[rp];
    25fe:	80 91 92 01 	lds	r24, 0x0192
    2602:	88 2f       	mov	r24, r24
    2604:	90 e0       	ldi	r25, 0x00	; 0
    2606:	8a 56       	subi	r24, 0x6A	; 106
    2608:	9e 4f       	sbci	r25, 0xFE	; 254
    260a:	fc 01       	movw	r30, r24
    260c:	80 81       	ld	r24, Z
    260e:	89 83       	std	Y+1, r24	; 0x01
    if (rp<7) rp++;
    2610:	80 91 92 01 	lds	r24, 0x0192
    2614:	87 30       	cpi	r24, 0x07	; 7
    2616:	30 f4       	brcc	.+12     	; 0x2624 <_ZN3Kbd3getEv+0x3c>
    2618:	80 91 92 01 	lds	r24, 0x0192
    261c:	8f 5f       	subi	r24, 0xFF	; 255
    261e:	80 93 92 01 	sts	0x0192, r24
    2622:	02 c0       	rjmp	.+4      	; 0x2628 <_ZN3Kbd3getEv+0x40>
    else rp=0;
    2624:	10 92 92 01 	sts	0x0192, r1
    cnt--;
    2628:	80 91 93 01 	lds	r24, 0x0193
    262c:	81 50       	subi	r24, 0x01	; 1
    262e:	80 93 93 01 	sts	0x0193, r24
    return key;
    2632:	89 81       	ldd	r24, Y+1	; 0x01
}
    2634:	0f 90       	pop	r0
    2636:	df 91       	pop	r29
    2638:	cf 91       	pop	r28
    263a:	08 95       	ret

0000263c <_Z41__static_initialization_and_destruction_0ii>:
    263c:	cf 93       	push	r28
    263e:	df 93       	push	r29
    2640:	00 d0       	rcall	.+0      	; 0x2642 <_Z41__static_initialization_and_destruction_0ii+0x6>
    2642:	00 d0       	rcall	.+0      	; 0x2644 <_Z41__static_initialization_and_destruction_0ii+0x8>
    2644:	cd b7       	in	r28, 0x3d	; 61
    2646:	de b7       	in	r29, 0x3e	; 62
    2648:	9a 83       	std	Y+2, r25	; 0x02
    264a:	89 83       	std	Y+1, r24	; 0x01
    264c:	7c 83       	std	Y+4, r23	; 0x04
    264e:	6b 83       	std	Y+3, r22	; 0x03
    2650:	89 81       	ldd	r24, Y+1	; 0x01
    2652:	9a 81       	ldd	r25, Y+2	; 0x02
    2654:	01 97       	sbiw	r24, 0x01	; 1
    2656:	39 f4       	brne	.+14     	; 0x2666 <_Z41__static_initialization_and_destruction_0ii+0x2a>
    2658:	8b 81       	ldd	r24, Y+3	; 0x03
    265a:	9c 81       	ldd	r25, Y+4	; 0x04
    265c:	01 96       	adiw	r24, 0x01	; 1
    265e:	19 f4       	brne	.+6      	; 0x2666 <_Z41__static_initialization_and_destruction_0ii+0x2a>

//
// Static Class instances and members
//

Kbd Kbd::kbd;
    2660:	80 e9       	ldi	r24, 0x90	; 144
    2662:	91 e0       	ldi	r25, 0x01	; 1
    2664:	30 df       	rcall	.-416    	; 0x24c6 <_ZN3KbdC1Ev>
    unsigned char key=buff[rp];
    if (rp<7) rp++;
    else rp=0;
    cnt--;
    return key;
}
    2666:	0f 90       	pop	r0
    2668:	0f 90       	pop	r0
    266a:	0f 90       	pop	r0
    266c:	0f 90       	pop	r0
    266e:	df 91       	pop	r29
    2670:	cf 91       	pop	r28
    2672:	08 95       	ret

00002674 <_GLOBAL__sub_I__ZN3Kbd3kbdE>:
    2674:	cf 93       	push	r28
    2676:	df 93       	push	r29
    2678:	cd b7       	in	r28, 0x3d	; 61
    267a:	de b7       	in	r29, 0x3e	; 62
    267c:	6f ef       	ldi	r22, 0xFF	; 255
    267e:	7f ef       	ldi	r23, 0xFF	; 255
    2680:	81 e0       	ldi	r24, 0x01	; 1
    2682:	90 e0       	ldi	r25, 0x00	; 0
    2684:	db df       	rcall	.-74     	; 0x263c <_Z41__static_initialization_and_destruction_0ii>
    2686:	df 91       	pop	r29
    2688:	cf 91       	pop	r28
    268a:	08 95       	ret

0000268c <_putChar>:
//
// needed for printf_P
//

extern "C" {
    int _putChar(char c, FILE *unused) {
    268c:	cf 93       	push	r28
    268e:	df 93       	push	r29
    2690:	00 d0       	rcall	.+0      	; 0x2692 <_putChar+0x6>
    2692:	1f 92       	push	r1
    2694:	cd b7       	in	r28, 0x3d	; 61
    2696:	de b7       	in	r29, 0x3e	; 62
    2698:	89 83       	std	Y+1, r24	; 0x01
    269a:	7b 83       	std	Y+3, r23	; 0x03
    269c:	6a 83       	std	Y+2, r22	; 0x02
        Lcd::write((unsigned char) c);
    269e:	89 81       	ldd	r24, Y+1	; 0x01
    26a0:	72 d1       	rcall	.+740    	; 0x2986 <_ZN3Lcd5writeEh>
        return 0;
    26a2:	80 e0       	ldi	r24, 0x00	; 0
    26a4:	90 e0       	ldi	r25, 0x00	; 0
    }
    26a6:	0f 90       	pop	r0
    26a8:	0f 90       	pop	r0
    26aa:	0f 90       	pop	r0
    26ac:	df 91       	pop	r29
    26ae:	cf 91       	pop	r28
    26b0:	08 95       	ret

000026b2 <_ZN3LcdC1Ev>:
}

Lcd::Lcd()
    26b2:	cf 93       	push	r28
    26b4:	df 93       	push	r29
    26b6:	00 d0       	rcall	.+0      	; 0x26b8 <_ZN3LcdC1Ev+0x6>
    26b8:	1f 92       	push	r1
    26ba:	cd b7       	in	r28, 0x3d	; 61
    26bc:	de b7       	in	r29, 0x3e	; 62
    26be:	9b 83       	std	Y+3, r25	; 0x03
    26c0:	8a 83       	std	Y+2, r24	; 0x02
{
    console = fdevopen(_putChar, NULL);
    26c2:	60 e0       	ldi	r22, 0x00	; 0
    26c4:	70 e0       	ldi	r23, 0x00	; 0
    26c6:	86 e4       	ldi	r24, 0x46	; 70
    26c8:	93 e1       	ldi	r25, 0x13	; 19
    26ca:	0e 94 37 33 	call	0x666e	; 0x666e <fdevopen>
    26ce:	90 93 a0 01 	sts	0x01A0, r25
    26d2:	80 93 9f 01 	sts	0x019F, r24
    PORTA = 0xff;               // pullups for data
    26d6:	8b e3       	ldi	r24, 0x3B	; 59
    26d8:	90 e0       	ldi	r25, 0x00	; 0
    26da:	2f ef       	ldi	r18, 0xFF	; 255
    26dc:	fc 01       	movw	r30, r24
    26de:	20 83       	st	Z, r18
    DDRA = 0;
    26e0:	8a e3       	ldi	r24, 0x3A	; 58
    26e2:	90 e0       	ldi	r25, 0x00	; 0
    26e4:	fc 01       	movw	r30, r24
    26e6:	10 82       	st	Z, r1

	PORTC &= ~(_BV(EN)); //cbi(PORTC, EN);
    26e8:	85 e3       	ldi	r24, 0x35	; 53
    26ea:	90 e0       	ldi	r25, 0x00	; 0
    26ec:	25 e3       	ldi	r18, 0x35	; 53
    26ee:	30 e0       	ldi	r19, 0x00	; 0
    26f0:	f9 01       	movw	r30, r18
    26f2:	20 81       	ld	r18, Z
    26f4:	2f 77       	andi	r18, 0x7F	; 127
    26f6:	fc 01       	movw	r30, r24
    26f8:	20 83       	st	Z, r18
    DDRC |= _BV(EN); //sbi(DDRC, EN);              // set EN pin to output
    26fa:	84 e3       	ldi	r24, 0x34	; 52
    26fc:	90 e0       	ldi	r25, 0x00	; 0
    26fe:	24 e3       	ldi	r18, 0x34	; 52
    2700:	30 e0       	ldi	r19, 0x00	; 0
    2702:	f9 01       	movw	r30, r18
    2704:	20 81       	ld	r18, Z
    2706:	20 68       	ori	r18, 0x80	; 128
    2708:	fc 01       	movw	r30, r24
    270a:	20 83       	st	Z, r18
	PORTG |= _BV(RW);	//sbi(PORTG, RW);
    270c:	85 e6       	ldi	r24, 0x65	; 101
    270e:	90 e0       	ldi	r25, 0x00	; 0
    2710:	25 e6       	ldi	r18, 0x65	; 101
    2712:	30 e0       	ldi	r19, 0x00	; 0
    2714:	f9 01       	movw	r30, r18
    2716:	20 81       	ld	r18, Z
    2718:	21 60       	ori	r18, 0x01	; 1
    271a:	fc 01       	movw	r30, r24
    271c:	20 83       	st	Z, r18
    DDRG |= _BV(RW);	//sbi(DDRG, RW);   	          // set RW to read
    271e:	84 e6       	ldi	r24, 0x64	; 100
    2720:	90 e0       	ldi	r25, 0x00	; 0
    2722:	24 e6       	ldi	r18, 0x64	; 100
    2724:	30 e0       	ldi	r19, 0x00	; 0
    2726:	f9 01       	movw	r30, r18
    2728:	20 81       	ld	r18, Z
    272a:	21 60       	ori	r18, 0x01	; 1
    272c:	fc 01       	movw	r30, r24
    272e:	20 83       	st	Z, r18
	PORTC &= ~(_BV(RS));	//cbi(PORTC, RS);
    2730:	85 e3       	ldi	r24, 0x35	; 53
    2732:	90 e0       	ldi	r25, 0x00	; 0
    2734:	25 e3       	ldi	r18, 0x35	; 53
    2736:	30 e0       	ldi	r19, 0x00	; 0
    2738:	f9 01       	movw	r30, r18
    273a:	20 81       	ld	r18, Z
    273c:	2e 7f       	andi	r18, 0xFE	; 254
    273e:	fc 01       	movw	r30, r24
    2740:	20 83       	st	Z, r18
    DDRC |= _BV(RS);	//sbi(DDRC, RS);              // set RS to 0
    2742:	84 e3       	ldi	r24, 0x34	; 52
    2744:	90 e0       	ldi	r25, 0x00	; 0
    2746:	24 e3       	ldi	r18, 0x34	; 52
    2748:	30 e0       	ldi	r19, 0x00	; 0
    274a:	f9 01       	movw	r30, r18
    274c:	20 81       	ld	r18, Z
    274e:	21 60       	ori	r18, 0x01	; 1
    2750:	fc 01       	movw	r30, r24
    2752:	20 83       	st	Z, r18
    for (unsigned char i = 0; i < 6; i++) {
    2754:	19 82       	std	Y+1, r1	; 0x01
    2756:	06 c0       	rjmp	.+12     	; 0x2764 <_ZN3LcdC1Ev+0xb2>
        setInterface();
    2758:	8a 81       	ldd	r24, Y+2	; 0x02
    275a:	9b 81       	ldd	r25, Y+3	; 0x03
    275c:	8c d0       	rcall	.+280    	; 0x2876 <_ZN3Lcd12setInterfaceEv>
    DDRC |= _BV(EN); //sbi(DDRC, EN);              // set EN pin to output
	PORTG |= _BV(RW);	//sbi(PORTG, RW);
    DDRG |= _BV(RW);	//sbi(DDRG, RW);   	          // set RW to read
	PORTC &= ~(_BV(RS));	//cbi(PORTC, RS);
    DDRC |= _BV(RS);	//sbi(DDRC, RS);              // set RS to 0
    for (unsigned char i = 0; i < 6; i++) {
    275e:	89 81       	ldd	r24, Y+1	; 0x01
    2760:	8f 5f       	subi	r24, 0xFF	; 255
    2762:	89 83       	std	Y+1, r24	; 0x01
    2764:	89 81       	ldd	r24, Y+1	; 0x01
    2766:	86 30       	cpi	r24, 0x06	; 6
    2768:	b8 f3       	brcs	.-18     	; 0x2758 <_ZN3LcdC1Ev+0xa6>
        setInterface();
    }
    outCommand(0x38);           // data length = 8 bit
    276a:	8a 81       	ldd	r24, Y+2	; 0x02
    276c:	9b 81       	ldd	r25, Y+3	; 0x03
    276e:	68 e3       	ldi	r22, 0x38	; 56
    2770:	c4 d0       	rcall	.+392    	; 0x28fa <_ZN3Lcd10outCommandEh>
	...
	 asm("nop\n\t" "nop\n\t" "nop\n\t" "nop\n\t");
	outCommand(0x38);
    277a:	8a 81       	ldd	r24, Y+2	; 0x02
    277c:	9b 81       	ldd	r25, Y+3	; 0x03
    277e:	68 e3       	ldi	r22, 0x38	; 56
    2780:	bc d0       	rcall	.+376    	; 0x28fa <_ZN3Lcd10outCommandEh>
	...
	 asm("nop\n\t" "nop\n\t" "nop\n\t" "nop\n\t");
	  asm("nop\n\t" "nop\n\t" "nop\n\t" "nop\n\t");
	   asm("nop\n\t" "nop\n\t" "nop\n\t" "nop\n\t");
	    asm("nop\n\t" "nop\n\t" "nop\n\t" "nop\n\t");
		 asm("nop\n\t" "nop\n\t" "nop\n\t" "nop\n\t");
	outCommand(0x38);
    27aa:	8a 81       	ldd	r24, Y+2	; 0x02
    27ac:	9b 81       	ldd	r25, Y+3	; 0x03
    27ae:	68 e3       	ldi	r22, 0x38	; 56
    27b0:	a4 d0       	rcall	.+328    	; 0x28fa <_ZN3Lcd10outCommandEh>
    outCommand(0x08);           // display and cursor off
    27b2:	8a 81       	ldd	r24, Y+2	; 0x02
    27b4:	9b 81       	ldd	r25, Y+3	; 0x03
    27b6:	68 e0       	ldi	r22, 0x08	; 8
    27b8:	a0 d0       	rcall	.+320    	; 0x28fa <_ZN3Lcd10outCommandEh>
    outCommand(0x06);           // cursor advance mode
    27ba:	8a 81       	ldd	r24, Y+2	; 0x02
    27bc:	9b 81       	ldd	r25, Y+3	; 0x03
    27be:	66 e0       	ldi	r22, 0x06	; 6
    27c0:	9c d0       	rcall	.+312    	; 0x28fa <_ZN3Lcd10outCommandEh>
    outCommand(0x01);           // clear display
    27c2:	8a 81       	ldd	r24, Y+2	; 0x02
    27c4:	9b 81       	ldd	r25, Y+3	; 0x03
    27c6:	61 e0       	ldi	r22, 0x01	; 1
    27c8:	98 d0       	rcall	.+304    	; 0x28fa <_ZN3Lcd10outCommandEh>
    outCommand(0x02);           // cursor home
    27ca:	8a 81       	ldd	r24, Y+2	; 0x02
    27cc:	9b 81       	ldd	r25, Y+3	; 0x03
    27ce:	62 e0       	ldi	r22, 0x02	; 2
    27d0:	94 d0       	rcall	.+296    	; 0x28fa <_ZN3Lcd10outCommandEh>
    outCommand(0x0E);           // display and cursor on
    27d2:	8a 81       	ldd	r24, Y+2	; 0x02
    27d4:	9b 81       	ldd	r25, Y+3	; 0x03
    27d6:	6e e0       	ldi	r22, 0x0E	; 14
    27d8:	90 d0       	rcall	.+288    	; 0x28fa <_ZN3Lcd10outCommandEh>
}
    27da:	0f 90       	pop	r0
    27dc:	0f 90       	pop	r0
    27de:	0f 90       	pop	r0
    27e0:	df 91       	pop	r29
    27e2:	cf 91       	pop	r28
    27e4:	08 95       	ret

000027e6 <_ZN3Lcd6tstDspEv>:

void Lcd::tstDsp()
{
    27e6:	1f 93       	push	r17
    27e8:	cf 93       	push	r28
    27ea:	df 93       	push	r29
    27ec:	cd b7       	in	r28, 0x3d	; 61
    27ee:	de b7       	in	r29, 0x3e	; 62
    register unsigned char s;
    DDRA = 0;
    27f0:	8a e3       	ldi	r24, 0x3A	; 58
    27f2:	90 e0       	ldi	r25, 0x00	; 0
    27f4:	fc 01       	movw	r30, r24
    27f6:	10 82       	st	Z, r1
    PORTA = 0xff;
    27f8:	8b e3       	ldi	r24, 0x3B	; 59
    27fa:	90 e0       	ldi	r25, 0x00	; 0
    27fc:	2f ef       	ldi	r18, 0xFF	; 255
    27fe:	fc 01       	movw	r30, r24
    2800:	20 83       	st	Z, r18
    do {
        PORTG |= _BV(RW);	//sbi(PORTG, RW);
    2802:	85 e6       	ldi	r24, 0x65	; 101
    2804:	90 e0       	ldi	r25, 0x00	; 0
    2806:	25 e6       	ldi	r18, 0x65	; 101
    2808:	30 e0       	ldi	r19, 0x00	; 0
    280a:	f9 01       	movw	r30, r18
    280c:	20 81       	ld	r18, Z
    280e:	21 60       	ori	r18, 0x01	; 1
    2810:	fc 01       	movw	r30, r24
    2812:	20 83       	st	Z, r18
        PORTC &= ~(_BV(RS));		//cbi(PORTC, RS);         // R/W = 1 , RS = 0
    2814:	85 e3       	ldi	r24, 0x35	; 53
    2816:	90 e0       	ldi	r25, 0x00	; 0
    2818:	25 e3       	ldi	r18, 0x35	; 53
    281a:	30 e0       	ldi	r19, 0x00	; 0
    281c:	f9 01       	movw	r30, r18
    281e:	20 81       	ld	r18, Z
    2820:	2e 7f       	andi	r18, 0xFE	; 254
    2822:	fc 01       	movw	r30, r24
    2824:	20 83       	st	Z, r18
        PORTC |= _BV(EN);		//sbi(PORTC, EN);         // EN = 1
    2826:	85 e3       	ldi	r24, 0x35	; 53
    2828:	90 e0       	ldi	r25, 0x00	; 0
    282a:	25 e3       	ldi	r18, 0x35	; 53
    282c:	30 e0       	ldi	r19, 0x00	; 0
    282e:	f9 01       	movw	r30, r18
    2830:	20 81       	ld	r18, Z
    2832:	20 68       	ori	r18, 0x80	; 128
    2834:	fc 01       	movw	r30, r24
    2836:	20 83       	st	Z, r18
	...
        asm("nop\n\t" "nop\n\t" "nop\n\t" "nop\n\t");
        asm("nop\n\t" "nop\n\t" "nop\n\t" "nop\n\t");
        s = PINA;
    2848:	89 e3       	ldi	r24, 0x39	; 57
    284a:	90 e0       	ldi	r25, 0x00	; 0
    284c:	fc 01       	movw	r30, r24
    284e:	10 81       	ld	r17, Z
        PORTC &= ~(_BV(EN));		//cbi(PORTC, EN);         // EN = 0
    2850:	85 e3       	ldi	r24, 0x35	; 53
    2852:	90 e0       	ldi	r25, 0x00	; 0
    2854:	25 e3       	ldi	r18, 0x35	; 53
    2856:	30 e0       	ldi	r19, 0x00	; 0
    2858:	f9 01       	movw	r30, r18
    285a:	20 81       	ld	r18, Z
    285c:	2f 77       	andi	r18, 0x7F	; 127
    285e:	fc 01       	movw	r30, r24
    2860:	20 83       	st	Z, r18
void Lcd::tstDsp()
{
    register unsigned char s;
    DDRA = 0;
    PORTA = 0xff;
    do {
    2862:	81 2f       	mov	r24, r17
    2864:	88 23       	and	r24, r24
    2866:	1c f4       	brge	.+6      	; 0x286e <_ZN3Lcd6tstDspEv+0x88>
        asm("nop\n\t" "nop\n\t" "nop\n\t" "nop\n\t");
        asm("nop\n\t" "nop\n\t" "nop\n\t" "nop\n\t");
        s = PINA;
        PORTC &= ~(_BV(EN));		//cbi(PORTC, EN);         // EN = 0
    }
    while ((s & 0x80) && (s != 0xff));
    2868:	1f 3f       	cpi	r17, 0xFF	; 255
    286a:	09 f0       	breq	.+2      	; 0x286e <_ZN3Lcd6tstDspEv+0x88>
    286c:	ca cf       	rjmp	.-108    	; 0x2802 <_ZN3Lcd6tstDspEv+0x1c>
}
    286e:	df 91       	pop	r29
    2870:	cf 91       	pop	r28
    2872:	1f 91       	pop	r17
    2874:	08 95       	ret

00002876 <_ZN3Lcd12setInterfaceEv>:

void Lcd::setInterface()
{
    2876:	cf 93       	push	r28
    2878:	df 93       	push	r29
    287a:	00 d0       	rcall	.+0      	; 0x287c <_ZN3Lcd12setInterfaceEv+0x6>
    287c:	cd b7       	in	r28, 0x3d	; 61
    287e:	de b7       	in	r29, 0x3e	; 62
    2880:	9a 83       	std	Y+2, r25	; 0x02
    2882:	89 83       	std	Y+1, r24	; 0x01
    DDRA = 0xff;
    2884:	8a e3       	ldi	r24, 0x3A	; 58
    2886:	90 e0       	ldi	r25, 0x00	; 0
    2888:	2f ef       	ldi	r18, 0xFF	; 255
    288a:	fc 01       	movw	r30, r24
    288c:	20 83       	st	Z, r18
    PORTG &= ~(_BV(RW));  	//cbi(PORTG, RW);
    288e:	85 e6       	ldi	r24, 0x65	; 101
    2890:	90 e0       	ldi	r25, 0x00	; 0
    2892:	25 e6       	ldi	r18, 0x65	; 101
    2894:	30 e0       	ldi	r19, 0x00	; 0
    2896:	f9 01       	movw	r30, r18
    2898:	20 81       	ld	r18, Z
    289a:	2e 7f       	andi	r18, 0xFE	; 254
    289c:	fc 01       	movw	r30, r24
    289e:	20 83       	st	Z, r18
    PORTC &= ~(_BV(RS));	//cbi(PORTC, RS);             // R/W = 0 , RS = 0
    28a0:	85 e3       	ldi	r24, 0x35	; 53
    28a2:	90 e0       	ldi	r25, 0x00	; 0
    28a4:	25 e3       	ldi	r18, 0x35	; 53
    28a6:	30 e0       	ldi	r19, 0x00	; 0
    28a8:	f9 01       	movw	r30, r18
    28aa:	20 81       	ld	r18, Z
    28ac:	2e 7f       	andi	r18, 0xFE	; 254
    28ae:	fc 01       	movw	r30, r24
    28b0:	20 83       	st	Z, r18
    PORTC |= _BV(EN);	//sbi(PORTC, EN);             // EN = 1
    28b2:	85 e3       	ldi	r24, 0x35	; 53
    28b4:	90 e0       	ldi	r25, 0x00	; 0
    28b6:	25 e3       	ldi	r18, 0x35	; 53
    28b8:	30 e0       	ldi	r19, 0x00	; 0
    28ba:	f9 01       	movw	r30, r18
    28bc:	20 81       	ld	r18, Z
    28be:	20 68       	ori	r18, 0x80	; 128
    28c0:	fc 01       	movw	r30, r24
    28c2:	20 83       	st	Z, r18
    PORTA = 0x38;               // data /operating mode 8 bit/ 2 row mode / 8 line mode
    28c4:	8b e3       	ldi	r24, 0x3B	; 59
    28c6:	90 e0       	ldi	r25, 0x00	; 0
    28c8:	28 e3       	ldi	r18, 0x38	; 56
    28ca:	fc 01       	movw	r30, r24
    28cc:	20 83       	st	Z, r18
	...
    asm("nop\n\t" "nop\n\t" "nop\n\t" "nop\n\t");
    asm("nop\n\t" "nop\n\t" "nop\n\t" "nop\n\t");
    PORTB &= ~(_BV(EN));	//cbi(PORTB, EN);
    28de:	88 e3       	ldi	r24, 0x38	; 56
    28e0:	90 e0       	ldi	r25, 0x00	; 0
    28e2:	28 e3       	ldi	r18, 0x38	; 56
    28e4:	30 e0       	ldi	r19, 0x00	; 0
    28e6:	f9 01       	movw	r30, r18
    28e8:	20 81       	ld	r18, Z
    28ea:	2f 77       	andi	r18, 0x7F	; 127
    28ec:	fc 01       	movw	r30, r24
    28ee:	20 83       	st	Z, r18
}
    28f0:	0f 90       	pop	r0
    28f2:	0f 90       	pop	r0
    28f4:	df 91       	pop	r29
    28f6:	cf 91       	pop	r28
    28f8:	08 95       	ret

000028fa <_ZN3Lcd10outCommandEh>:

void Lcd::outCommand(unsigned char cmd)
{
    28fa:	cf 93       	push	r28
    28fc:	df 93       	push	r29
    28fe:	00 d0       	rcall	.+0      	; 0x2900 <_ZN3Lcd10outCommandEh+0x6>
    2900:	1f 92       	push	r1
    2902:	cd b7       	in	r28, 0x3d	; 61
    2904:	de b7       	in	r29, 0x3e	; 62
    2906:	9a 83       	std	Y+2, r25	; 0x02
    2908:	89 83       	std	Y+1, r24	; 0x01
    290a:	6b 83       	std	Y+3, r22	; 0x03
    tstDsp();
    290c:	6c df       	rcall	.-296    	; 0x27e6 <_ZN3Lcd6tstDspEv>
    DDRA = 0xff;
    290e:	8a e3       	ldi	r24, 0x3A	; 58
    2910:	90 e0       	ldi	r25, 0x00	; 0
    2912:	2f ef       	ldi	r18, 0xFF	; 255
    2914:	fc 01       	movw	r30, r24
    2916:	20 83       	st	Z, r18
	PORTG &= ~(_BV(RW));    //cbi(PORTG, RW);
    2918:	85 e6       	ldi	r24, 0x65	; 101
    291a:	90 e0       	ldi	r25, 0x00	; 0
    291c:	25 e6       	ldi	r18, 0x65	; 101
    291e:	30 e0       	ldi	r19, 0x00	; 0
    2920:	f9 01       	movw	r30, r18
    2922:	20 81       	ld	r18, Z
    2924:	2e 7f       	andi	r18, 0xFE	; 254
    2926:	fc 01       	movw	r30, r24
    2928:	20 83       	st	Z, r18
    PORTC &= ~(_BV(RS));	//cbi(PORTC, RS);             // R/W = 0 , RS = 0
    292a:	85 e3       	ldi	r24, 0x35	; 53
    292c:	90 e0       	ldi	r25, 0x00	; 0
    292e:	25 e3       	ldi	r18, 0x35	; 53
    2930:	30 e0       	ldi	r19, 0x00	; 0
    2932:	f9 01       	movw	r30, r18
    2934:	20 81       	ld	r18, Z
    2936:	2e 7f       	andi	r18, 0xFE	; 254
    2938:	fc 01       	movw	r30, r24
    293a:	20 83       	st	Z, r18
    PORTC |= _BV(EN);	//sbi(PORTC, EN);             // EN = 1
    293c:	85 e3       	ldi	r24, 0x35	; 53
    293e:	90 e0       	ldi	r25, 0x00	; 0
    2940:	25 e3       	ldi	r18, 0x35	; 53
    2942:	30 e0       	ldi	r19, 0x00	; 0
    2944:	f9 01       	movw	r30, r18
    2946:	20 81       	ld	r18, Z
    2948:	20 68       	ori	r18, 0x80	; 128
    294a:	fc 01       	movw	r30, r24
    294c:	20 83       	st	Z, r18
    PORTA = cmd;                // data
    294e:	8b e3       	ldi	r24, 0x3B	; 59
    2950:	90 e0       	ldi	r25, 0x00	; 0
    2952:	2b 81       	ldd	r18, Y+3	; 0x03
    2954:	fc 01       	movw	r30, r24
    2956:	20 83       	st	Z, r18
	...
    asm("nop\n\t" "nop\n\t" "nop\n\t" "nop\n\t");
    asm("nop\n\t" "nop\n\t" "nop\n\t" "nop\n\t");
    PORTC &= ~(_BV(EN));	//cbi(PORTC, EN);
    2968:	85 e3       	ldi	r24, 0x35	; 53
    296a:	90 e0       	ldi	r25, 0x00	; 0
    296c:	25 e3       	ldi	r18, 0x35	; 53
    296e:	30 e0       	ldi	r19, 0x00	; 0
    2970:	f9 01       	movw	r30, r18
    2972:	20 81       	ld	r18, Z
    2974:	2f 77       	andi	r18, 0x7F	; 127
    2976:	fc 01       	movw	r30, r24
    2978:	20 83       	st	Z, r18
}
    297a:	0f 90       	pop	r0
    297c:	0f 90       	pop	r0
    297e:	0f 90       	pop	r0
    2980:	df 91       	pop	r29
    2982:	cf 91       	pop	r28
    2984:	08 95       	ret

00002986 <_ZN3Lcd5writeEh>:

void Lcd::write(unsigned char c)
{
    2986:	cf 93       	push	r28
    2988:	df 93       	push	r29
    298a:	1f 92       	push	r1
    298c:	cd b7       	in	r28, 0x3d	; 61
    298e:	de b7       	in	r29, 0x3e	; 62
    2990:	89 83       	std	Y+1, r24	; 0x01
    tstDsp();
    2992:	29 df       	rcall	.-430    	; 0x27e6 <_ZN3Lcd6tstDspEv>
    DDRA = 0xff;
    2994:	8a e3       	ldi	r24, 0x3A	; 58
    2996:	90 e0       	ldi	r25, 0x00	; 0
    2998:	2f ef       	ldi	r18, 0xFF	; 255
    299a:	fc 01       	movw	r30, r24
    299c:	20 83       	st	Z, r18
	PORTG &= ~(_BV(RW));    //cbi(PORTG, RW);
    299e:	85 e6       	ldi	r24, 0x65	; 101
    29a0:	90 e0       	ldi	r25, 0x00	; 0
    29a2:	25 e6       	ldi	r18, 0x65	; 101
    29a4:	30 e0       	ldi	r19, 0x00	; 0
    29a6:	f9 01       	movw	r30, r18
    29a8:	20 81       	ld	r18, Z
    29aa:	2e 7f       	andi	r18, 0xFE	; 254
    29ac:	fc 01       	movw	r30, r24
    29ae:	20 83       	st	Z, r18
	PORTC |= _BV(RS);    //sbi(PORTC, RS);             // R/W = 0 , RS = 1
    29b0:	85 e3       	ldi	r24, 0x35	; 53
    29b2:	90 e0       	ldi	r25, 0x00	; 0
    29b4:	25 e3       	ldi	r18, 0x35	; 53
    29b6:	30 e0       	ldi	r19, 0x00	; 0
    29b8:	f9 01       	movw	r30, r18
    29ba:	20 81       	ld	r18, Z
    29bc:	21 60       	ori	r18, 0x01	; 1
    29be:	fc 01       	movw	r30, r24
    29c0:	20 83       	st	Z, r18
	PORTC |= _BV(EN);    //sbi(PORTC, EN);             // EN = 1
    29c2:	85 e3       	ldi	r24, 0x35	; 53
    29c4:	90 e0       	ldi	r25, 0x00	; 0
    29c6:	25 e3       	ldi	r18, 0x35	; 53
    29c8:	30 e0       	ldi	r19, 0x00	; 0
    29ca:	f9 01       	movw	r30, r18
    29cc:	20 81       	ld	r18, Z
    29ce:	20 68       	ori	r18, 0x80	; 128
    29d0:	fc 01       	movw	r30, r24
    29d2:	20 83       	st	Z, r18
    PORTA = c;                  // data
    29d4:	8b e3       	ldi	r24, 0x3B	; 59
    29d6:	90 e0       	ldi	r25, 0x00	; 0
    29d8:	29 81       	ldd	r18, Y+1	; 0x01
    29da:	fc 01       	movw	r30, r24
    29dc:	20 83       	st	Z, r18
	...
    asm("nop\n\t" "nop\n\t" "nop\n\t" "nop\n\t");
    asm("nop\n\t" "nop\n\t" "nop\n\t" "nop\n\t");
    PORTC &= ~(_BV(EN));	//cbi(PORTC, EN);
    29ee:	85 e3       	ldi	r24, 0x35	; 53
    29f0:	90 e0       	ldi	r25, 0x00	; 0
    29f2:	25 e3       	ldi	r18, 0x35	; 53
    29f4:	30 e0       	ldi	r19, 0x00	; 0
    29f6:	f9 01       	movw	r30, r18
    29f8:	20 81       	ld	r18, Z
    29fa:	2f 77       	andi	r18, 0x7F	; 127
    29fc:	fc 01       	movw	r30, r24
    29fe:	20 83       	st	Z, r18
}
    2a00:	0f 90       	pop	r0
    2a02:	df 91       	pop	r29
    2a04:	cf 91       	pop	r28
    2a06:	08 95       	ret

00002a08 <_ZN3Lcd4goToEhh>:

void Lcd::goTo(unsigned char y, unsigned char x)
{
    2a08:	cf 93       	push	r28
    2a0a:	df 93       	push	r29
    2a0c:	00 d0       	rcall	.+0      	; 0x2a0e <_ZN3Lcd4goToEhh+0x6>
    2a0e:	00 d0       	rcall	.+0      	; 0x2a10 <_ZN3Lcd4goToEhh+0x8>
    2a10:	1f 92       	push	r1
    2a12:	cd b7       	in	r28, 0x3d	; 61
    2a14:	de b7       	in	r29, 0x3e	; 62
    2a16:	9b 83       	std	Y+3, r25	; 0x03
    2a18:	8a 83       	std	Y+2, r24	; 0x02
    2a1a:	6c 83       	std	Y+4, r22	; 0x04
    2a1c:	4d 83       	std	Y+5, r20	; 0x05
    /*prva vrsta se zane z addr 0x80, druga 0xC0, tretja 0x94, etrta 0xD4*/
	
	unsigned char pos = x;
    2a1e:	8d 81       	ldd	r24, Y+5	; 0x05
    2a20:	89 83       	std	Y+1, r24	; 0x01
    switch (y) {
    2a22:	8c 81       	ldd	r24, Y+4	; 0x04
    2a24:	88 2f       	mov	r24, r24
    2a26:	90 e0       	ldi	r25, 0x00	; 0
    2a28:	81 30       	cpi	r24, 0x01	; 1
    2a2a:	91 05       	cpc	r25, r1
    2a2c:	49 f0       	breq	.+18     	; 0x2a40 <_ZN3Lcd4goToEhh+0x38>
    2a2e:	82 30       	cpi	r24, 0x02	; 2
    2a30:	91 05       	cpc	r25, r1
    2a32:	ac f0       	brlt	.+42     	; 0x2a5e <_ZN3Lcd4goToEhh+0x56>
    2a34:	82 30       	cpi	r24, 0x02	; 2
    2a36:	91 05       	cpc	r25, r1
    2a38:	39 f0       	breq	.+14     	; 0x2a48 <_ZN3Lcd4goToEhh+0x40>
    2a3a:	03 97       	sbiw	r24, 0x03	; 3
    2a3c:	49 f0       	breq	.+18     	; 0x2a50 <_ZN3Lcd4goToEhh+0x48>
    2a3e:	10 c0       	rjmp	.+32     	; 0x2a60 <_ZN3Lcd4goToEhh+0x58>
        case 0:
            break;
        case 1:
            pos += 0x40;
    2a40:	89 81       	ldd	r24, Y+1	; 0x01
    2a42:	80 5c       	subi	r24, 0xC0	; 192
    2a44:	89 83       	std	Y+1, r24	; 0x01
            break;
    2a46:	0c c0       	rjmp	.+24     	; 0x2a60 <_ZN3Lcd4goToEhh+0x58>
        case 2:
            pos += 16;
    2a48:	89 81       	ldd	r24, Y+1	; 0x01
    2a4a:	80 5f       	subi	r24, 0xF0	; 240
    2a4c:	89 83       	std	Y+1, r24	; 0x01
            break;
    2a4e:	08 c0       	rjmp	.+16     	; 0x2a60 <_ZN3Lcd4goToEhh+0x58>
        case 3:
            pos += 0x40;
    2a50:	89 81       	ldd	r24, Y+1	; 0x01
    2a52:	80 5c       	subi	r24, 0xC0	; 192
    2a54:	89 83       	std	Y+1, r24	; 0x01
            pos += 16;
    2a56:	89 81       	ldd	r24, Y+1	; 0x01
    2a58:	80 5f       	subi	r24, 0xF0	; 240
    2a5a:	89 83       	std	Y+1, r24	; 0x01
            break;
    2a5c:	01 c0       	rjmp	.+2      	; 0x2a60 <_ZN3Lcd4goToEhh+0x58>
    /*prva vrsta se zane z addr 0x80, druga 0xC0, tretja 0x94, etrta 0xD4*/
	
	unsigned char pos = x;
    switch (y) {
        case 0:
            break;
    2a5e:	00 00       	nop
        case 3:
            pos += 0x40;
            pos += 16;
            break;
    }
    pos |= 0x80;
    2a60:	89 81       	ldd	r24, Y+1	; 0x01
    2a62:	80 68       	ori	r24, 0x80	; 128
    2a64:	89 83       	std	Y+1, r24	; 0x01
    outCommand(pos);
    2a66:	8a 81       	ldd	r24, Y+2	; 0x02
    2a68:	9b 81       	ldd	r25, Y+3	; 0x03
    2a6a:	69 81       	ldd	r22, Y+1	; 0x01
    2a6c:	46 df       	rcall	.-372    	; 0x28fa <_ZN3Lcd10outCommandEh>
}
    2a6e:	0f 90       	pop	r0
    2a70:	0f 90       	pop	r0
    2a72:	0f 90       	pop	r0
    2a74:	0f 90       	pop	r0
    2a76:	0f 90       	pop	r0
    2a78:	df 91       	pop	r29
    2a7a:	cf 91       	pop	r28
    2a7c:	08 95       	ret

00002a7e <_ZN3Lcd5printEhhPKcz>:

void Lcd::print(unsigned char y, unsigned char x, char const *fmt, ...)
{
    2a7e:	cf 93       	push	r28
    2a80:	df 93       	push	r29
    2a82:	00 d0       	rcall	.+0      	; 0x2a84 <_ZN3Lcd5printEhhPKcz+0x6>
    2a84:	cd b7       	in	r28, 0x3d	; 61
    2a86:	de b7       	in	r29, 0x3e	; 62
    goTo(y, x);
    2a88:	8f 81       	ldd	r24, Y+7	; 0x07
    2a8a:	98 85       	ldd	r25, Y+8	; 0x08
    2a8c:	4a 85       	ldd	r20, Y+10	; 0x0a
    2a8e:	69 85       	ldd	r22, Y+9	; 0x09
    2a90:	bb df       	rcall	.-138    	; 0x2a08 <_ZN3Lcd4goToEhh>
    va_list va;
    va_start(va, fmt);
    2a92:	ce 01       	movw	r24, r28
    2a94:	0d 96       	adiw	r24, 0x0d	; 13
    2a96:	9a 83       	std	Y+2, r25	; 0x02
    2a98:	89 83       	std	Y+1, r24	; 0x01
    vfprintf_P(console, fmt, va);
    2a9a:	49 81       	ldd	r20, Y+1	; 0x01
    2a9c:	5a 81       	ldd	r21, Y+2	; 0x02
    2a9e:	80 91 9f 01 	lds	r24, 0x019F
    2aa2:	90 91 a0 01 	lds	r25, 0x01A0
    2aa6:	2b 85       	ldd	r18, Y+11	; 0x0b
    2aa8:	3c 85       	ldd	r19, Y+12	; 0x0c
    2aaa:	b9 01       	movw	r22, r18
    2aac:	0e 94 e6 33 	call	0x67cc	; 0x67cc <vfprintf_P>
}
    2ab0:	0f 90       	pop	r0
    2ab2:	0f 90       	pop	r0
    2ab4:	df 91       	pop	r29
    2ab6:	cf 91       	pop	r28
    2ab8:	08 95       	ret

00002aba <_ZN3Lcd5clearEv>:

void Lcd::clear()
{
    2aba:	cf 93       	push	r28
    2abc:	df 93       	push	r29
    2abe:	00 d0       	rcall	.+0      	; 0x2ac0 <_ZN3Lcd5clearEv+0x6>
    2ac0:	cd b7       	in	r28, 0x3d	; 61
    2ac2:	de b7       	in	r29, 0x3e	; 62
    2ac4:	9a 83       	std	Y+2, r25	; 0x02
    2ac6:	89 83       	std	Y+1, r24	; 0x01
    outCommand(1);              // Clear dispaly
    2ac8:	89 81       	ldd	r24, Y+1	; 0x01
    2aca:	9a 81       	ldd	r25, Y+2	; 0x02
    2acc:	61 e0       	ldi	r22, 0x01	; 1
    2ace:	15 df       	rcall	.-470    	; 0x28fa <_ZN3Lcd10outCommandEh>
    outCommand(2);              // cursor home
    2ad0:	89 81       	ldd	r24, Y+1	; 0x01
    2ad2:	9a 81       	ldd	r25, Y+2	; 0x02
    2ad4:	62 e0       	ldi	r22, 0x02	; 2
    2ad6:	11 df       	rcall	.-478    	; 0x28fa <_ZN3Lcd10outCommandEh>
}
    2ad8:	0f 90       	pop	r0
    2ada:	0f 90       	pop	r0
    2adc:	df 91       	pop	r29
    2ade:	cf 91       	pop	r28
    2ae0:	08 95       	ret

00002ae2 <_Z41__static_initialization_and_destruction_0ii>:
    2ae2:	cf 93       	push	r28
    2ae4:	df 93       	push	r29
    2ae6:	00 d0       	rcall	.+0      	; 0x2ae8 <_Z41__static_initialization_and_destruction_0ii+0x6>
    2ae8:	00 d0       	rcall	.+0      	; 0x2aea <_Z41__static_initialization_and_destruction_0ii+0x8>
    2aea:	cd b7       	in	r28, 0x3d	; 61
    2aec:	de b7       	in	r29, 0x3e	; 62
    2aee:	9a 83       	std	Y+2, r25	; 0x02
    2af0:	89 83       	std	Y+1, r24	; 0x01
    2af2:	7c 83       	std	Y+4, r23	; 0x04
    2af4:	6b 83       	std	Y+3, r22	; 0x03
    2af6:	89 81       	ldd	r24, Y+1	; 0x01
    2af8:	9a 81       	ldd	r25, Y+2	; 0x02
    2afa:	01 97       	sbiw	r24, 0x01	; 1
    2afc:	39 f4       	brne	.+14     	; 0x2b0c <_Z41__static_initialization_and_destruction_0ii+0x2a>
    2afe:	8b 81       	ldd	r24, Y+3	; 0x03
    2b00:	9c 81       	ldd	r25, Y+4	; 0x04
    2b02:	01 96       	adiw	r24, 0x01	; 1
    2b04:	19 f4       	brne	.+6      	; 0x2b0c <_Z41__static_initialization_and_destruction_0ii+0x2a>
#include "Kbd.h"
//
// Static class instances and members
//

Lcd Lcd::lcd;
    2b06:	8e e9       	ldi	r24, 0x9E	; 158
    2b08:	91 e0       	ldi	r25, 0x01	; 1
    2b0a:	d3 dd       	rcall	.-1114   	; 0x26b2 <_ZN3LcdC1Ev>

void Lcd::clear()
{
    outCommand(1);              // Clear dispaly
    outCommand(2);              // cursor home
}
    2b0c:	0f 90       	pop	r0
    2b0e:	0f 90       	pop	r0
    2b10:	0f 90       	pop	r0
    2b12:	0f 90       	pop	r0
    2b14:	df 91       	pop	r29
    2b16:	cf 91       	pop	r28
    2b18:	08 95       	ret

00002b1a <_GLOBAL__sub_I__ZN3Lcd3lcdE>:
    2b1a:	cf 93       	push	r28
    2b1c:	df 93       	push	r29
    2b1e:	cd b7       	in	r28, 0x3d	; 61
    2b20:	de b7       	in	r29, 0x3e	; 62
    2b22:	6f ef       	ldi	r22, 0xFF	; 255
    2b24:	7f ef       	ldi	r23, 0xFF	; 255
    2b26:	81 e0       	ldi	r24, 0x01	; 1
    2b28:	90 e0       	ldi	r25, 0x00	; 0
    2b2a:	db df       	rcall	.-74     	; 0x2ae2 <_Z41__static_initialization_and_destruction_0ii>
    2b2c:	df 91       	pop	r29
    2b2e:	cf 91       	pop	r28
    2b30:	08 95       	ret

00002b32 <_ZN3Adc6getRmsEh>:
//

class Adc{
public:
    Adc();
    static inline unsigned int getRms(unsigned char phase)
    2b32:	cf 93       	push	r28
    2b34:	df 93       	push	r29
    2b36:	1f 92       	push	r1
    2b38:	cd b7       	in	r28, 0x3d	; 61
    2b3a:	de b7       	in	r29, 0x3e	; 62
    2b3c:	89 83       	std	Y+1, r24	; 0x01
    {
        return (rms[phase]>>4);
    2b3e:	89 81       	ldd	r24, Y+1	; 0x01
    2b40:	88 2f       	mov	r24, r24
    2b42:	90 e0       	ldi	r25, 0x00	; 0
    2b44:	88 0f       	add	r24, r24
    2b46:	99 1f       	adc	r25, r25
    2b48:	83 5f       	subi	r24, 0xF3	; 243
    2b4a:	9e 4f       	sbci	r25, 0xFE	; 254
    2b4c:	fc 01       	movw	r30, r24
    2b4e:	80 81       	ld	r24, Z
    2b50:	91 81       	ldd	r25, Z+1	; 0x01
    2b52:	92 95       	swap	r25
    2b54:	82 95       	swap	r24
    2b56:	8f 70       	andi	r24, 0x0F	; 15
    2b58:	89 27       	eor	r24, r25
    2b5a:	9f 70       	andi	r25, 0x0F	; 15
    2b5c:	89 27       	eor	r24, r25
    };
    2b5e:	0f 90       	pop	r0
    2b60:	df 91       	pop	r29
    2b62:	cf 91       	pop	r28
    2b64:	08 95       	ret

00002b66 <_ZN5Menue4baseEv>:
//
// mem
//

void Menue::base()
{
    2b66:	cf 93       	push	r28
    2b68:	df 93       	push	r29
    2b6a:	00 d0       	rcall	.+0      	; 0x2b6c <_ZN5Menue4baseEv+0x6>
    2b6c:	1f 92       	push	r1
    2b6e:	cd b7       	in	r28, 0x3d	; 61
    2b70:	de b7       	in	r29, 0x3e	; 62
    2b72:	9b 83       	std	Y+3, r25	; 0x03
    2b74:	8a 83       	std	Y+2, r24	; 0x02
    unsigned char key;
  repaint:
    wdt_reset();
    2b76:	a8 95       	wdr
    Lcd::lcd.clear();
    2b78:	8e e9       	ldi	r24, 0x9E	; 158
    2b7a:	91 e0       	ldi	r25, 0x01	; 1
    2b7c:	9e df       	rcall	.-196    	; 0x2aba <_ZN3Lcd5clearEv>
    printfLcd(0, 0, "  Main          ");
    2b7e:	8b e8       	ldi	r24, 0x8B	; 139
    2b80:	97 e0       	ldi	r25, 0x07	; 7
    2b82:	29 2f       	mov	r18, r25
    2b84:	2f 93       	push	r18
    2b86:	8f 93       	push	r24
    2b88:	1f 92       	push	r1
    2b8a:	1f 92       	push	r1
    2b8c:	8e e9       	ldi	r24, 0x9E	; 158
    2b8e:	91 e0       	ldi	r25, 0x01	; 1
    2b90:	89 2f       	mov	r24, r25
    2b92:	8f 93       	push	r24
    2b94:	8e e9       	ldi	r24, 0x9E	; 158
    2b96:	91 e0       	ldi	r25, 0x01	; 1
    2b98:	8f 93       	push	r24
    2b9a:	71 df       	rcall	.-286    	; 0x2a7e <_ZN3Lcd5printEhhPKcz>
    2b9c:	0f 90       	pop	r0
    2b9e:	0f 90       	pop	r0
    2ba0:	0f 90       	pop	r0
    2ba2:	0f 90       	pop	r0
    2ba4:	0f 90       	pop	r0
    2ba6:	0f 90       	pop	r0
    printfLcd(1, 0, "       Menu     ");
    2ba8:	8c e9       	ldi	r24, 0x9C	; 156
    2baa:	97 e0       	ldi	r25, 0x07	; 7
    2bac:	29 2f       	mov	r18, r25
    2bae:	2f 93       	push	r18
    2bb0:	8f 93       	push	r24
    2bb2:	1f 92       	push	r1
    2bb4:	81 e0       	ldi	r24, 0x01	; 1
    2bb6:	8f 93       	push	r24
    2bb8:	8e e9       	ldi	r24, 0x9E	; 158
    2bba:	91 e0       	ldi	r25, 0x01	; 1
    2bbc:	89 2f       	mov	r24, r25
    2bbe:	8f 93       	push	r24
    2bc0:	8e e9       	ldi	r24, 0x9E	; 158
    2bc2:	91 e0       	ldi	r25, 0x01	; 1
    2bc4:	8f 93       	push	r24
    2bc6:	5b df       	rcall	.-330    	; 0x2a7e <_ZN3Lcd5printEhhPKcz>
    2bc8:	0f 90       	pop	r0
    2bca:	0f 90       	pop	r0
    2bcc:	0f 90       	pop	r0
    2bce:	0f 90       	pop	r0
    2bd0:	0f 90       	pop	r0
    2bd2:	0f 90       	pop	r0
    printfLcd(3, 0, "Mem   Play   Stp");
    2bd4:	8d ea       	ldi	r24, 0xAD	; 173
    2bd6:	97 e0       	ldi	r25, 0x07	; 7
    2bd8:	29 2f       	mov	r18, r25
    2bda:	2f 93       	push	r18
    2bdc:	8f 93       	push	r24
    2bde:	1f 92       	push	r1
    2be0:	83 e0       	ldi	r24, 0x03	; 3
    2be2:	8f 93       	push	r24
    2be4:	8e e9       	ldi	r24, 0x9E	; 158
    2be6:	91 e0       	ldi	r25, 0x01	; 1
    2be8:	89 2f       	mov	r24, r25
    2bea:	8f 93       	push	r24
    2bec:	8e e9       	ldi	r24, 0x9E	; 158
    2bee:	91 e0       	ldi	r25, 0x01	; 1
    2bf0:	8f 93       	push	r24
    2bf2:	45 df       	rcall	.-374    	; 0x2a7e <_ZN3Lcd5printEhhPKcz>
    2bf4:	0f 90       	pop	r0
    2bf6:	0f 90       	pop	r0
    2bf8:	0f 90       	pop	r0
    2bfa:	0f 90       	pop	r0
    2bfc:	0f 90       	pop	r0
    2bfe:	0f 90       	pop	r0
    for (;;) {
        switch (key=getch()) {
    2c00:	8a 81       	ldd	r24, Y+2	; 0x02
    2c02:	9b 81       	ldd	r25, Y+3	; 0x03
    2c04:	0e 94 11 28 	call	0x5022	; 0x5022 <_ZN5Menue5getchEv>
    2c08:	89 83       	std	Y+1, r24	; 0x01
    2c0a:	89 81       	ldd	r24, Y+1	; 0x01
    2c0c:	88 2f       	mov	r24, r24
    2c0e:	90 e0       	ldi	r25, 0x00	; 0
    2c10:	80 31       	cpi	r24, 0x10	; 16
    2c12:	91 05       	cpc	r25, r1
    2c14:	09 f1       	breq	.+66     	; 0x2c58 <_ZN5Menue4baseEv+0xf2>
    2c16:	81 31       	cpi	r24, 0x11	; 17
    2c18:	91 05       	cpc	r25, r1
    2c1a:	34 f4       	brge	.+12     	; 0x2c28 <_ZN5Menue4baseEv+0xc2>
    2c1c:	84 30       	cpi	r24, 0x04	; 4
    2c1e:	91 05       	cpc	r25, r1
    2c20:	51 f0       	breq	.+20     	; 0x2c36 <_ZN5Menue4baseEv+0xd0>
    2c22:	08 97       	sbiw	r24, 0x08	; 8
    2c24:	61 f0       	breq	.+24     	; 0x2c3e <_ZN5Menue4baseEv+0xd8>
    2c26:	1c c0       	rjmp	.+56     	; 0x2c60 <_ZN5Menue4baseEv+0xfa>
    2c28:	80 32       	cpi	r24, 0x20	; 32
    2c2a:	91 05       	cpc	r25, r1
    2c2c:	d9 f0       	breq	.+54     	; 0x2c64 <_ZN5Menue4baseEv+0xfe>
    2c2e:	80 38       	cpi	r24, 0x80	; 128
    2c30:	91 05       	cpc	r25, r1
    2c32:	d1 f0       	breq	.+52     	; 0x2c68 <_ZN5Menue4baseEv+0x102>
    2c34:	15 c0       	rjmp	.+42     	; 0x2c60 <_ZN5Menue4baseEv+0xfa>
            case ENT:
                return;
            case ESC:
                return;
            case BACK:
                mem();
    2c36:	8a 81       	ldd	r24, Y+2	; 0x02
    2c38:	9b 81       	ldd	r25, Y+3	; 0x03
    2c3a:	1d d0       	rcall	.+58     	; 0x2c76 <_ZN5Menue3memEv>
                return;
    2c3c:	16 c0       	rjmp	.+44     	; 0x2c6a <_ZN5Menue4baseEv+0x104>
            case UP:
                if (Dmx::valid) break;
    2c3e:	90 91 7c 01 	lds	r25, 0x017C
    2c42:	81 e0       	ldi	r24, 0x01	; 1
    2c44:	99 23       	and	r25, r25
    2c46:	09 f4       	brne	.+2      	; 0x2c4a <_ZN5Menue4baseEv+0xe4>
    2c48:	80 e0       	ldi	r24, 0x00	; 0
    2c4a:	88 23       	and	r24, r24
    2c4c:	09 f0       	breq	.+2      	; 0x2c50 <_ZN5Menue4baseEv+0xea>
    2c4e:	08 c0       	rjmp	.+16     	; 0x2c60 <_ZN5Menue4baseEv+0xfa>
                else {
                    play();
    2c50:	8a 81       	ldd	r24, Y+2	; 0x02
    2c52:	9b 81       	ldd	r25, Y+3	; 0x03
    2c54:	7d d5       	rcall	.+2810   	; 0x3750 <_ZN5Menue4playEv>
                    return;
    2c56:	09 c0       	rjmp	.+18     	; 0x2c6a <_ZN5Menue4baseEv+0x104>
                }
            case FORW:
                setup();
    2c58:	8a 81       	ldd	r24, Y+2	; 0x02
    2c5a:	9b 81       	ldd	r25, Y+3	; 0x03
    2c5c:	fe d6       	rcall	.+3580   	; 0x3a5a <_ZN5Menue5setupEv>
                goto repaint;
    2c5e:	8b cf       	rjmp	.-234    	; 0x2b76 <_ZN5Menue4baseEv+0x10>
        }
        wdt_reset();
    2c60:	a8 95       	wdr
    }
    2c62:	ce cf       	rjmp	.-100    	; 0x2c00 <_ZN5Menue4baseEv+0x9a>
    for (;;) {
        switch (key=getch()) {
            case ENT:
                return;
            case ESC:
                return;
    2c64:	00 00       	nop
    2c66:	01 c0       	rjmp	.+2      	; 0x2c6a <_ZN5Menue4baseEv+0x104>
    printfLcd(1, 0, "       Menu     ");
    printfLcd(3, 0, "Mem   Play   Stp");
    for (;;) {
        switch (key=getch()) {
            case ENT:
                return;
    2c68:	00 00       	nop
                setup();
                goto repaint;
        }
        wdt_reset();
    }
}
    2c6a:	0f 90       	pop	r0
    2c6c:	0f 90       	pop	r0
    2c6e:	0f 90       	pop	r0
    2c70:	df 91       	pop	r29
    2c72:	cf 91       	pop	r28
    2c74:	08 95       	ret

00002c76 <_ZN5Menue3memEv>:
//
// mem
//

void Menue::mem()
{
    2c76:	cf 93       	push	r28
    2c78:	df 93       	push	r29
    2c7a:	00 d0       	rcall	.+0      	; 0x2c7c <_ZN5Menue3memEv+0x6>
    2c7c:	00 d0       	rcall	.+0      	; 0x2c7e <_ZN5Menue3memEv+0x8>
    2c7e:	1f 92       	push	r1
    2c80:	cd b7       	in	r28, 0x3d	; 61
    2c82:	de b7       	in	r29, 0x3e	; 62
    2c84:	9d 83       	std	Y+5, r25	; 0x05
    2c86:	8c 83       	std	Y+4, r24	; 0x04
    unsigned char key;
    int sel;
  repaint:
    wdt_reset();
    2c88:	a8 95       	wdr
    Lcd::lcd.clear();
    2c8a:	8e e9       	ldi	r24, 0x9E	; 158
    2c8c:	91 e0       	ldi	r25, 0x01	; 1
    2c8e:	15 df       	rcall	.-470    	; 0x2aba <_ZN3Lcd5clearEv>
    printfLcd(0, 0, "    Memory      ");
    2c90:	8e eb       	ldi	r24, 0xBE	; 190
    2c92:	97 e0       	ldi	r25, 0x07	; 7
    2c94:	29 2f       	mov	r18, r25
    2c96:	2f 93       	push	r18
    2c98:	8f 93       	push	r24
    2c9a:	1f 92       	push	r1
    2c9c:	1f 92       	push	r1
    2c9e:	8e e9       	ldi	r24, 0x9E	; 158
    2ca0:	91 e0       	ldi	r25, 0x01	; 1
    2ca2:	89 2f       	mov	r24, r25
    2ca4:	8f 93       	push	r24
    2ca6:	8e e9       	ldi	r24, 0x9E	; 158
    2ca8:	91 e0       	ldi	r25, 0x01	; 1
    2caa:	8f 93       	push	r24
    2cac:	e8 de       	rcall	.-560    	; 0x2a7e <_ZN3Lcd5printEhhPKcz>
    2cae:	0f 90       	pop	r0
    2cb0:	0f 90       	pop	r0
    2cb2:	0f 90       	pop	r0
    2cb4:	0f 90       	pop	r0
    2cb6:	0f 90       	pop	r0
    2cb8:	0f 90       	pop	r0
    printfLcd(1, 0, "  Current %d     ", Nvr::nvr.numCurrent+1);
    2cba:	80 91 a8 01 	lds	r24, 0x01A8
    2cbe:	88 2f       	mov	r24, r24
    2cc0:	90 e0       	ldi	r25, 0x00	; 0
    2cc2:	9c 01       	movw	r18, r24
    2cc4:	2f 5f       	subi	r18, 0xFF	; 255
    2cc6:	3f 4f       	sbci	r19, 0xFF	; 255
    2cc8:	8f ec       	ldi	r24, 0xCF	; 207
    2cca:	97 e0       	ldi	r25, 0x07	; 7
    2ccc:	43 2f       	mov	r20, r19
    2cce:	4f 93       	push	r20
    2cd0:	2f 93       	push	r18
    2cd2:	29 2f       	mov	r18, r25
    2cd4:	2f 93       	push	r18
    2cd6:	8f 93       	push	r24
    2cd8:	1f 92       	push	r1
    2cda:	81 e0       	ldi	r24, 0x01	; 1
    2cdc:	8f 93       	push	r24
    2cde:	8e e9       	ldi	r24, 0x9E	; 158
    2ce0:	91 e0       	ldi	r25, 0x01	; 1
    2ce2:	89 2f       	mov	r24, r25
    2ce4:	8f 93       	push	r24
    2ce6:	8e e9       	ldi	r24, 0x9E	; 158
    2ce8:	91 e0       	ldi	r25, 0x01	; 1
    2cea:	8f 93       	push	r24
    2cec:	c8 de       	rcall	.-624    	; 0x2a7e <_ZN3Lcd5printEhhPKcz>
    2cee:	8d b7       	in	r24, 0x3d	; 61
    2cf0:	9e b7       	in	r25, 0x3e	; 62
    2cf2:	08 96       	adiw	r24, 0x08	; 8
    2cf4:	0f b6       	in	r0, 0x3f	; 63
    2cf6:	f8 94       	cli
    2cf8:	de bf       	out	0x3e, r29	; 62
    2cfa:	0f be       	out	0x3f, r0	; 63
    2cfc:	cd bf       	out	0x3d, r28	; 61
    printfLcd(3, 0, "Edit  Sto   Sto+");
    2cfe:	81 ee       	ldi	r24, 0xE1	; 225
    2d00:	97 e0       	ldi	r25, 0x07	; 7
    2d02:	29 2f       	mov	r18, r25
    2d04:	2f 93       	push	r18
    2d06:	8f 93       	push	r24
    2d08:	1f 92       	push	r1
    2d0a:	83 e0       	ldi	r24, 0x03	; 3
    2d0c:	8f 93       	push	r24
    2d0e:	8e e9       	ldi	r24, 0x9E	; 158
    2d10:	91 e0       	ldi	r25, 0x01	; 1
    2d12:	89 2f       	mov	r24, r25
    2d14:	8f 93       	push	r24
    2d16:	8e e9       	ldi	r24, 0x9E	; 158
    2d18:	91 e0       	ldi	r25, 0x01	; 1
    2d1a:	8f 93       	push	r24
    2d1c:	b0 de       	rcall	.-672    	; 0x2a7e <_ZN3Lcd5printEhhPKcz>
    2d1e:	0f 90       	pop	r0
    2d20:	0f 90       	pop	r0
    2d22:	0f 90       	pop	r0
    2d24:	0f 90       	pop	r0
    2d26:	0f 90       	pop	r0
    2d28:	0f 90       	pop	r0
    for (;;) {
        switch (key=getch()) {
    2d2a:	8c 81       	ldd	r24, Y+4	; 0x04
    2d2c:	9d 81       	ldd	r25, Y+5	; 0x05
    2d2e:	0e 94 11 28 	call	0x5022	; 0x5022 <_ZN5Menue5getchEv>
    2d32:	89 83       	std	Y+1, r24	; 0x01
    2d34:	89 81       	ldd	r24, Y+1	; 0x01
    2d36:	88 2f       	mov	r24, r24
    2d38:	90 e0       	ldi	r25, 0x00	; 0
    2d3a:	80 31       	cpi	r24, 0x10	; 16
    2d3c:	91 05       	cpc	r25, r1
    2d3e:	09 f4       	brne	.+2      	; 0x2d42 <_ZN5Menue3memEv+0xcc>
    2d40:	8e c0       	rjmp	.+284    	; 0x2e5e <_ZN5Menue3memEv+0x1e8>
    2d42:	81 31       	cpi	r24, 0x11	; 17
    2d44:	91 05       	cpc	r25, r1
    2d46:	34 f4       	brge	.+12     	; 0x2d54 <_ZN5Menue3memEv+0xde>
    2d48:	84 30       	cpi	r24, 0x04	; 4
    2d4a:	91 05       	cpc	r25, r1
    2d4c:	39 f0       	breq	.+14     	; 0x2d5c <_ZN5Menue3memEv+0xe6>
    2d4e:	08 97       	sbiw	r24, 0x08	; 8
    2d50:	49 f0       	breq	.+18     	; 0x2d64 <_ZN5Menue3memEv+0xee>
    2d52:	fc c0       	rjmp	.+504    	; 0x2f4c <_ZN5Menue3memEv+0x2d6>
    2d54:	80 97       	sbiw	r24, 0x20	; 32
    2d56:	09 f4       	brne	.+2      	; 0x2d5a <_ZN5Menue3memEv+0xe4>
    2d58:	fb c0       	rjmp	.+502    	; 0x2f50 <_ZN5Menue3memEv+0x2da>
            case ENT:
                break;
    2d5a:	f8 c0       	rjmp	.+496    	; 0x2f4c <_ZN5Menue3memEv+0x2d6>
            case ESC:
                return;
            case BACK:
				memEdit();
    2d5c:	8c 81       	ldd	r24, Y+4	; 0x04
    2d5e:	9d 81       	ldd	r25, Y+5	; 0x05
    2d60:	b2 d1       	rcall	.+868    	; 0x30c6 <_ZN5Menue7memEditEv>
                goto repaint;
    2d62:	92 cf       	rjmp	.-220    	; 0x2c88 <_ZN5Menue3memEv+0x12>
            case UP:
                if ((sel=memStoreTo())>(-1)) {
    2d64:	8c 81       	ldd	r24, Y+4	; 0x04
    2d66:	9d 81       	ldd	r25, Y+5	; 0x05
    2d68:	fc d0       	rcall	.+504    	; 0x2f62 <_ZN5Menue10memStoreToEv>
    2d6a:	9b 83       	std	Y+3, r25	; 0x03
    2d6c:	8a 83       	std	Y+2, r24	; 0x02
    2d6e:	8b 81       	ldd	r24, Y+3	; 0x03
    2d70:	80 95       	com	r24
    2d72:	88 1f       	adc	r24, r24
    2d74:	88 27       	eor	r24, r24
    2d76:	88 1f       	adc	r24, r24
    2d78:	88 23       	and	r24, r24
    2d7a:	09 f4       	brne	.+2      	; 0x2d7e <_ZN5Menue3memEv+0x108>
    2d7c:	40 c0       	rjmp	.+128    	; 0x2dfe <_ZN5Menue3memEv+0x188>
                    Nvr::nvr.memStoreTo((unsigned char) sel);
    2d7e:	8a 81       	ldd	r24, Y+2	; 0x02
    2d80:	68 2f       	mov	r22, r24
    2d82:	88 ea       	ldi	r24, 0xA8	; 168
    2d84:	91 e0       	ldi	r25, 0x01	; 1
    2d86:	0e 94 53 2b 	call	0x56a6	; 0x56a6 <_ZN3Nvr10memStoreToEh>
    				printfLcd(0, 0, "  Stored to:    ");
    2d8a:	82 ef       	ldi	r24, 0xF2	; 242
    2d8c:	97 e0       	ldi	r25, 0x07	; 7
    2d8e:	29 2f       	mov	r18, r25
    2d90:	2f 93       	push	r18
    2d92:	8f 93       	push	r24
    2d94:	1f 92       	push	r1
    2d96:	1f 92       	push	r1
    2d98:	8e e9       	ldi	r24, 0x9E	; 158
    2d9a:	91 e0       	ldi	r25, 0x01	; 1
    2d9c:	89 2f       	mov	r24, r25
    2d9e:	8f 93       	push	r24
    2da0:	8e e9       	ldi	r24, 0x9E	; 158
    2da2:	91 e0       	ldi	r25, 0x01	; 1
    2da4:	8f 93       	push	r24
    2da6:	6b de       	rcall	.-810    	; 0x2a7e <_ZN3Lcd5printEhhPKcz>
    2da8:	0f 90       	pop	r0
    2daa:	0f 90       	pop	r0
    2dac:	0f 90       	pop	r0
    2dae:	0f 90       	pop	r0
    2db0:	0f 90       	pop	r0
    2db2:	0f 90       	pop	r0
    				printfLcd(1, 0, "          %d     ",sel+1);
    2db4:	8a 81       	ldd	r24, Y+2	; 0x02
    2db6:	9b 81       	ldd	r25, Y+3	; 0x03
    2db8:	9c 01       	movw	r18, r24
    2dba:	2f 5f       	subi	r18, 0xFF	; 255
    2dbc:	3f 4f       	sbci	r19, 0xFF	; 255
    2dbe:	83 e0       	ldi	r24, 0x03	; 3
    2dc0:	98 e0       	ldi	r25, 0x08	; 8
    2dc2:	43 2f       	mov	r20, r19
    2dc4:	4f 93       	push	r20
    2dc6:	2f 93       	push	r18
    2dc8:	29 2f       	mov	r18, r25
    2dca:	2f 93       	push	r18
    2dcc:	8f 93       	push	r24
    2dce:	1f 92       	push	r1
    2dd0:	81 e0       	ldi	r24, 0x01	; 1
    2dd2:	8f 93       	push	r24
    2dd4:	8e e9       	ldi	r24, 0x9E	; 158
    2dd6:	91 e0       	ldi	r25, 0x01	; 1
    2dd8:	89 2f       	mov	r24, r25
    2dda:	8f 93       	push	r24
    2ddc:	8e e9       	ldi	r24, 0x9E	; 158
    2dde:	91 e0       	ldi	r25, 0x01	; 1
    2de0:	8f 93       	push	r24
    2de2:	4d de       	rcall	.-870    	; 0x2a7e <_ZN3Lcd5printEhhPKcz>
    2de4:	8d b7       	in	r24, 0x3d	; 61
    2de6:	9e b7       	in	r25, 0x3e	; 62
    2de8:	08 96       	adiw	r24, 0x08	; 8
    2dea:	0f b6       	in	r0, 0x3f	; 63
    2dec:	f8 94       	cli
    2dee:	de bf       	out	0x3e, r29	; 62
    2df0:	0f be       	out	0x3f, r0	; 63
    2df2:	cd bf       	out	0x3d, r28	; 61
    				delay();
    2df4:	8c 81       	ldd	r24, Y+4	; 0x04
    2df6:	9d 81       	ldd	r25, Y+5	; 0x05
    2df8:	0e 94 e4 27 	call	0x4fc8	; 0x4fc8 <_ZN5Menue5delayEv>
                    return;
    2dfc:	aa c0       	rjmp	.+340    	; 0x2f52 <_ZN5Menue3memEv+0x2dc>
                } 
                else {
    				printfLcd(0, 0, "    Escaped     ");
    2dfe:	85 e1       	ldi	r24, 0x15	; 21
    2e00:	98 e0       	ldi	r25, 0x08	; 8
    2e02:	29 2f       	mov	r18, r25
    2e04:	2f 93       	push	r18
    2e06:	8f 93       	push	r24
    2e08:	1f 92       	push	r1
    2e0a:	1f 92       	push	r1
    2e0c:	8e e9       	ldi	r24, 0x9E	; 158
    2e0e:	91 e0       	ldi	r25, 0x01	; 1
    2e10:	89 2f       	mov	r24, r25
    2e12:	8f 93       	push	r24
    2e14:	8e e9       	ldi	r24, 0x9E	; 158
    2e16:	91 e0       	ldi	r25, 0x01	; 1
    2e18:	8f 93       	push	r24
    2e1a:	31 de       	rcall	.-926    	; 0x2a7e <_ZN3Lcd5printEhhPKcz>
    2e1c:	0f 90       	pop	r0
    2e1e:	0f 90       	pop	r0
    2e20:	0f 90       	pop	r0
    2e22:	0f 90       	pop	r0
    2e24:	0f 90       	pop	r0
    2e26:	0f 90       	pop	r0
    				printfLcd(1, 0, "                ");
    2e28:	86 e2       	ldi	r24, 0x26	; 38
    2e2a:	98 e0       	ldi	r25, 0x08	; 8
    2e2c:	29 2f       	mov	r18, r25
    2e2e:	2f 93       	push	r18
    2e30:	8f 93       	push	r24
    2e32:	1f 92       	push	r1
    2e34:	81 e0       	ldi	r24, 0x01	; 1
    2e36:	8f 93       	push	r24
    2e38:	8e e9       	ldi	r24, 0x9E	; 158
    2e3a:	91 e0       	ldi	r25, 0x01	; 1
    2e3c:	89 2f       	mov	r24, r25
    2e3e:	8f 93       	push	r24
    2e40:	8e e9       	ldi	r24, 0x9E	; 158
    2e42:	91 e0       	ldi	r25, 0x01	; 1
    2e44:	8f 93       	push	r24
    2e46:	1b de       	rcall	.-970    	; 0x2a7e <_ZN3Lcd5printEhhPKcz>
    2e48:	0f 90       	pop	r0
    2e4a:	0f 90       	pop	r0
    2e4c:	0f 90       	pop	r0
    2e4e:	0f 90       	pop	r0
    2e50:	0f 90       	pop	r0
    2e52:	0f 90       	pop	r0
    				delay();
    2e54:	8c 81       	ldd	r24, Y+4	; 0x04
    2e56:	9d 81       	ldd	r25, Y+5	; 0x05
    2e58:	0e 94 e4 27 	call	0x4fc8	; 0x4fc8 <_ZN5Menue5delayEv>
    				goto repaint;
    2e5c:	15 cf       	rjmp	.-470    	; 0x2c88 <_ZN5Menue3memEv+0x12>
                }
            case FORW:
                if ((sel = Nvr::nvr.memStore()) > (-1)) {
    2e5e:	88 ea       	ldi	r24, 0xA8	; 168
    2e60:	91 e0       	ldi	r25, 0x01	; 1
    2e62:	0e 94 d0 2a 	call	0x55a0	; 0x55a0 <_ZN3Nvr8memStoreEv>
    2e66:	9b 83       	std	Y+3, r25	; 0x03
    2e68:	8a 83       	std	Y+2, r24	; 0x02
    2e6a:	8b 81       	ldd	r24, Y+3	; 0x03
    2e6c:	80 95       	com	r24
    2e6e:	88 1f       	adc	r24, r24
    2e70:	88 27       	eor	r24, r24
    2e72:	88 1f       	adc	r24, r24
    2e74:	88 23       	and	r24, r24
    2e76:	d1 f1       	breq	.+116    	; 0x2eec <_ZN5Menue3memEv+0x276>
    				printfLcd(0, 0, "  Stored to:    ");
    2e78:	87 e3       	ldi	r24, 0x37	; 55
    2e7a:	98 e0       	ldi	r25, 0x08	; 8
    2e7c:	29 2f       	mov	r18, r25
    2e7e:	2f 93       	push	r18
    2e80:	8f 93       	push	r24
    2e82:	1f 92       	push	r1
    2e84:	1f 92       	push	r1
    2e86:	8e e9       	ldi	r24, 0x9E	; 158
    2e88:	91 e0       	ldi	r25, 0x01	; 1
    2e8a:	89 2f       	mov	r24, r25
    2e8c:	8f 93       	push	r24
    2e8e:	8e e9       	ldi	r24, 0x9E	; 158
    2e90:	91 e0       	ldi	r25, 0x01	; 1
    2e92:	8f 93       	push	r24
    2e94:	f4 dd       	rcall	.-1048   	; 0x2a7e <_ZN3Lcd5printEhhPKcz>
    2e96:	0f 90       	pop	r0
    2e98:	0f 90       	pop	r0
    2e9a:	0f 90       	pop	r0
    2e9c:	0f 90       	pop	r0
    2e9e:	0f 90       	pop	r0
    2ea0:	0f 90       	pop	r0
    				printfLcd(1, 0, "          %d     ",sel+1);
    2ea2:	8a 81       	ldd	r24, Y+2	; 0x02
    2ea4:	9b 81       	ldd	r25, Y+3	; 0x03
    2ea6:	9c 01       	movw	r18, r24
    2ea8:	2f 5f       	subi	r18, 0xFF	; 255
    2eaa:	3f 4f       	sbci	r19, 0xFF	; 255
    2eac:	88 e4       	ldi	r24, 0x48	; 72
    2eae:	98 e0       	ldi	r25, 0x08	; 8
    2eb0:	43 2f       	mov	r20, r19
    2eb2:	4f 93       	push	r20
    2eb4:	2f 93       	push	r18
    2eb6:	29 2f       	mov	r18, r25
    2eb8:	2f 93       	push	r18
    2eba:	8f 93       	push	r24
    2ebc:	1f 92       	push	r1
    2ebe:	81 e0       	ldi	r24, 0x01	; 1
    2ec0:	8f 93       	push	r24
    2ec2:	8e e9       	ldi	r24, 0x9E	; 158
    2ec4:	91 e0       	ldi	r25, 0x01	; 1
    2ec6:	89 2f       	mov	r24, r25
    2ec8:	8f 93       	push	r24
    2eca:	8e e9       	ldi	r24, 0x9E	; 158
    2ecc:	91 e0       	ldi	r25, 0x01	; 1
    2ece:	8f 93       	push	r24
    2ed0:	d6 dd       	rcall	.-1108   	; 0x2a7e <_ZN3Lcd5printEhhPKcz>
    2ed2:	8d b7       	in	r24, 0x3d	; 61
    2ed4:	9e b7       	in	r25, 0x3e	; 62
    2ed6:	08 96       	adiw	r24, 0x08	; 8
    2ed8:	0f b6       	in	r0, 0x3f	; 63
    2eda:	f8 94       	cli
    2edc:	de bf       	out	0x3e, r29	; 62
    2ede:	0f be       	out	0x3f, r0	; 63
    2ee0:	cd bf       	out	0x3d, r28	; 61
    				delay();
    2ee2:	8c 81       	ldd	r24, Y+4	; 0x04
    2ee4:	9d 81       	ldd	r25, Y+5	; 0x05
    2ee6:	0e 94 e4 27 	call	0x4fc8	; 0x4fc8 <_ZN5Menue5delayEv>
                    return;
    2eea:	33 c0       	rjmp	.+102    	; 0x2f52 <_ZN5Menue3memEv+0x2dc>
                }
                else {
    				printfLcd(0, 0, "    Memory      ");
    2eec:	8a e5       	ldi	r24, 0x5A	; 90
    2eee:	98 e0       	ldi	r25, 0x08	; 8
    2ef0:	29 2f       	mov	r18, r25
    2ef2:	2f 93       	push	r18
    2ef4:	8f 93       	push	r24
    2ef6:	1f 92       	push	r1
    2ef8:	1f 92       	push	r1
    2efa:	8e e9       	ldi	r24, 0x9E	; 158
    2efc:	91 e0       	ldi	r25, 0x01	; 1
    2efe:	89 2f       	mov	r24, r25
    2f00:	8f 93       	push	r24
    2f02:	8e e9       	ldi	r24, 0x9E	; 158
    2f04:	91 e0       	ldi	r25, 0x01	; 1
    2f06:	8f 93       	push	r24
    2f08:	ba dd       	rcall	.-1164   	; 0x2a7e <_ZN3Lcd5printEhhPKcz>
    2f0a:	0f 90       	pop	r0
    2f0c:	0f 90       	pop	r0
    2f0e:	0f 90       	pop	r0
    2f10:	0f 90       	pop	r0
    2f12:	0f 90       	pop	r0
    2f14:	0f 90       	pop	r0
    				printfLcd(1, 0, "       full     ");
    2f16:	8b e6       	ldi	r24, 0x6B	; 107
    2f18:	98 e0       	ldi	r25, 0x08	; 8
    2f1a:	29 2f       	mov	r18, r25
    2f1c:	2f 93       	push	r18
    2f1e:	8f 93       	push	r24
    2f20:	1f 92       	push	r1
    2f22:	81 e0       	ldi	r24, 0x01	; 1
    2f24:	8f 93       	push	r24
    2f26:	8e e9       	ldi	r24, 0x9E	; 158
    2f28:	91 e0       	ldi	r25, 0x01	; 1
    2f2a:	89 2f       	mov	r24, r25
    2f2c:	8f 93       	push	r24
    2f2e:	8e e9       	ldi	r24, 0x9E	; 158
    2f30:	91 e0       	ldi	r25, 0x01	; 1
    2f32:	8f 93       	push	r24
    2f34:	a4 dd       	rcall	.-1208   	; 0x2a7e <_ZN3Lcd5printEhhPKcz>
    2f36:	0f 90       	pop	r0
    2f38:	0f 90       	pop	r0
    2f3a:	0f 90       	pop	r0
    2f3c:	0f 90       	pop	r0
    2f3e:	0f 90       	pop	r0
    2f40:	0f 90       	pop	r0
    				delay();
    2f42:	8c 81       	ldd	r24, Y+4	; 0x04
    2f44:	9d 81       	ldd	r25, Y+5	; 0x05
    2f46:	0e 94 e4 27 	call	0x4fc8	; 0x4fc8 <_ZN5Menue5delayEv>
    				goto repaint;
    2f4a:	9e ce       	rjmp	.-708    	; 0x2c88 <_ZN5Menue3memEv+0x12>
                }
        }
        wdt_reset();
    2f4c:	a8 95       	wdr
    }
    2f4e:	ed ce       	rjmp	.-550    	; 0x2d2a <_ZN5Menue3memEv+0xb4>
    for (;;) {
        switch (key=getch()) {
            case ENT:
                break;
            case ESC:
                return;
    2f50:	00 00       	nop
    				goto repaint;
                }
        }
        wdt_reset();
    }
}
    2f52:	0f 90       	pop	r0
    2f54:	0f 90       	pop	r0
    2f56:	0f 90       	pop	r0
    2f58:	0f 90       	pop	r0
    2f5a:	0f 90       	pop	r0
    2f5c:	df 91       	pop	r29
    2f5e:	cf 91       	pop	r28
    2f60:	08 95       	ret

00002f62 <_ZN5Menue10memStoreToEv>:

int Menue::memStoreTo()
{
    2f62:	cf 93       	push	r28
    2f64:	df 93       	push	r29
    2f66:	00 d0       	rcall	.+0      	; 0x2f68 <_ZN5Menue10memStoreToEv+0x6>
    2f68:	00 d0       	rcall	.+0      	; 0x2f6a <_ZN5Menue10memStoreToEv+0x8>
    2f6a:	1f 92       	push	r1
    2f6c:	cd b7       	in	r28, 0x3d	; 61
    2f6e:	de b7       	in	r29, 0x3e	; 62
    2f70:	9d 83       	std	Y+5, r25	; 0x05
    2f72:	8c 83       	std	Y+4, r24	; 0x04
    unsigned char key;
    Lcd::lcd.clear();
    2f74:	8e e9       	ldi	r24, 0x9E	; 158
    2f76:	91 e0       	ldi	r25, 0x01	; 1
    2f78:	a0 dd       	rcall	.-1216   	; 0x2aba <_ZN3Lcd5clearEv>
    printfLcd(0, 0, "     Memory     ");
    2f7a:	8c e7       	ldi	r24, 0x7C	; 124
    2f7c:	98 e0       	ldi	r25, 0x08	; 8
    2f7e:	29 2f       	mov	r18, r25
    2f80:	2f 93       	push	r18
    2f82:	8f 93       	push	r24
    2f84:	1f 92       	push	r1
    2f86:	1f 92       	push	r1
    2f88:	8e e9       	ldi	r24, 0x9E	; 158
    2f8a:	91 e0       	ldi	r25, 0x01	; 1
    2f8c:	89 2f       	mov	r24, r25
    2f8e:	8f 93       	push	r24
    2f90:	8e e9       	ldi	r24, 0x9E	; 158
    2f92:	91 e0       	ldi	r25, 0x01	; 1
    2f94:	8f 93       	push	r24
    2f96:	73 dd       	rcall	.-1306   	; 0x2a7e <_ZN3Lcd5printEhhPKcz>
    2f98:	0f 90       	pop	r0
    2f9a:	0f 90       	pop	r0
    2f9c:	0f 90       	pop	r0
    2f9e:	0f 90       	pop	r0
    2fa0:	0f 90       	pop	r0
    2fa2:	0f 90       	pop	r0
    int sel=Nvr::nvr.numCurrent+1;
    2fa4:	80 91 a8 01 	lds	r24, 0x01A8
    2fa8:	88 2f       	mov	r24, r24
    2faa:	90 e0       	ldi	r25, 0x00	; 0
    2fac:	01 96       	adiw	r24, 0x01	; 1
    2fae:	9a 83       	std	Y+2, r25	; 0x02
    2fb0:	89 83       	std	Y+1, r24	; 0x01
    printfLcd(1, 0, "   Current:  %2d  ", sel);
    2fb2:	8d e8       	ldi	r24, 0x8D	; 141
    2fb4:	98 e0       	ldi	r25, 0x08	; 8
    2fb6:	2a 81       	ldd	r18, Y+2	; 0x02
    2fb8:	2f 93       	push	r18
    2fba:	29 81       	ldd	r18, Y+1	; 0x01
    2fbc:	2f 93       	push	r18
    2fbe:	29 2f       	mov	r18, r25
    2fc0:	2f 93       	push	r18
    2fc2:	8f 93       	push	r24
    2fc4:	1f 92       	push	r1
    2fc6:	81 e0       	ldi	r24, 0x01	; 1
    2fc8:	8f 93       	push	r24
    2fca:	8e e9       	ldi	r24, 0x9E	; 158
    2fcc:	91 e0       	ldi	r25, 0x01	; 1
    2fce:	89 2f       	mov	r24, r25
    2fd0:	8f 93       	push	r24
    2fd2:	8e e9       	ldi	r24, 0x9E	; 158
    2fd4:	91 e0       	ldi	r25, 0x01	; 1
    2fd6:	8f 93       	push	r24
    2fd8:	52 dd       	rcall	.-1372   	; 0x2a7e <_ZN3Lcd5printEhhPKcz>
    2fda:	8d b7       	in	r24, 0x3d	; 61
    2fdc:	9e b7       	in	r25, 0x3e	; 62
    2fde:	08 96       	adiw	r24, 0x08	; 8
    2fe0:	0f b6       	in	r0, 0x3f	; 63
    2fe2:	f8 94       	cli
    2fe4:	de bf       	out	0x3e, r29	; 62
    2fe6:	0f be       	out	0x3f, r0	; 63
    2fe8:	cd bf       	out	0x3d, r28	; 61
    if (!sel) sel=1;
    2fea:	89 81       	ldd	r24, Y+1	; 0x01
    2fec:	9a 81       	ldd	r25, Y+2	; 0x02
    2fee:	89 2b       	or	r24, r25
    2ff0:	21 f4       	brne	.+8      	; 0x2ffa <_ZN5Menue10memStoreToEv+0x98>
    2ff2:	81 e0       	ldi	r24, 0x01	; 1
    2ff4:	90 e0       	ldi	r25, 0x00	; 0
    2ff6:	9a 83       	std	Y+2, r25	; 0x02
    2ff8:	89 83       	std	Y+1, r24	; 0x01
    Kbd::autoRepeat = 1;
    2ffa:	81 e0       	ldi	r24, 0x01	; 1
    2ffc:	80 93 94 01 	sts	0x0194, r24
  repaint:
    wdt_reset();
    3000:	a8 95       	wdr
    printfLcd(3, 0, "   Store to: %2d  ", sel);
    3002:	80 ea       	ldi	r24, 0xA0	; 160
    3004:	98 e0       	ldi	r25, 0x08	; 8
    3006:	2a 81       	ldd	r18, Y+2	; 0x02
    3008:	2f 93       	push	r18
    300a:	29 81       	ldd	r18, Y+1	; 0x01
    300c:	2f 93       	push	r18
    300e:	29 2f       	mov	r18, r25
    3010:	2f 93       	push	r18
    3012:	8f 93       	push	r24
    3014:	1f 92       	push	r1
    3016:	83 e0       	ldi	r24, 0x03	; 3
    3018:	8f 93       	push	r24
    301a:	8e e9       	ldi	r24, 0x9E	; 158
    301c:	91 e0       	ldi	r25, 0x01	; 1
    301e:	89 2f       	mov	r24, r25
    3020:	8f 93       	push	r24
    3022:	8e e9       	ldi	r24, 0x9E	; 158
    3024:	91 e0       	ldi	r25, 0x01	; 1
    3026:	8f 93       	push	r24
    3028:	2a dd       	rcall	.-1452   	; 0x2a7e <_ZN3Lcd5printEhhPKcz>
    302a:	8d b7       	in	r24, 0x3d	; 61
    302c:	9e b7       	in	r25, 0x3e	; 62
    302e:	08 96       	adiw	r24, 0x08	; 8
    3030:	0f b6       	in	r0, 0x3f	; 63
    3032:	f8 94       	cli
    3034:	de bf       	out	0x3e, r29	; 62
    3036:	0f be       	out	0x3f, r0	; 63
    3038:	cd bf       	out	0x3d, r28	; 61
    for (;;) {
        switch (key=getch()) {
    303a:	8c 81       	ldd	r24, Y+4	; 0x04
    303c:	9d 81       	ldd	r25, Y+5	; 0x05
    303e:	0e 94 11 28 	call	0x5022	; 0x5022 <_ZN5Menue5getchEv>
    3042:	8b 83       	std	Y+3, r24	; 0x03
    3044:	8b 81       	ldd	r24, Y+3	; 0x03
    3046:	88 2f       	mov	r24, r24
    3048:	90 e0       	ldi	r25, 0x00	; 0
    304a:	80 31       	cpi	r24, 0x10	; 16
    304c:	91 05       	cpc	r25, r1
    304e:	e9 f0       	breq	.+58     	; 0x308a <_ZN5Menue10memStoreToEv+0x128>
    3050:	81 31       	cpi	r24, 0x11	; 17
    3052:	91 05       	cpc	r25, r1
    3054:	34 f4       	brge	.+12     	; 0x3062 <_ZN5Menue10memStoreToEv+0x100>
    3056:	84 30       	cpi	r24, 0x04	; 4
    3058:	91 05       	cpc	r25, r1
    305a:	09 f1       	breq	.+66     	; 0x309e <_ZN5Menue10memStoreToEv+0x13c>
    305c:	08 97       	sbiw	r24, 0x08	; 8
    305e:	a9 f0       	breq	.+42     	; 0x308a <_ZN5Menue10memStoreToEv+0x128>
    3060:	28 c0       	rjmp	.+80     	; 0x30b2 <_ZN5Menue10memStoreToEv+0x150>
    3062:	80 34       	cpi	r24, 0x40	; 64
    3064:	91 05       	cpc	r25, r1
    3066:	d9 f0       	breq	.+54     	; 0x309e <_ZN5Menue10memStoreToEv+0x13c>
    3068:	80 38       	cpi	r24, 0x80	; 128
    306a:	91 05       	cpc	r25, r1
    306c:	19 f0       	breq	.+6      	; 0x3074 <_ZN5Menue10memStoreToEv+0x112>
    306e:	80 97       	sbiw	r24, 0x20	; 32
    3070:	39 f0       	breq	.+14     	; 0x3080 <_ZN5Menue10memStoreToEv+0x11e>
    3072:	1f c0       	rjmp	.+62     	; 0x30b2 <_ZN5Menue10memStoreToEv+0x150>
            case ENT:
			    Kbd::autoRepeat = 0;
    3074:	10 92 94 01 	sts	0x0194, r1
                return sel-1;
    3078:	89 81       	ldd	r24, Y+1	; 0x01
    307a:	9a 81       	ldd	r25, Y+2	; 0x02
    307c:	01 97       	sbiw	r24, 0x01	; 1
    307e:	1b c0       	rjmp	.+54     	; 0x30b6 <_ZN5Menue10memStoreToEv+0x154>
            case ESC:
			    Kbd::autoRepeat = 0;
    3080:	10 92 94 01 	sts	0x0194, r1
                return -1;
    3084:	8f ef       	ldi	r24, 0xFF	; 255
    3086:	9f ef       	ldi	r25, 0xFF	; 255
    3088:	16 c0       	rjmp	.+44     	; 0x30b6 <_ZN5Menue10memStoreToEv+0x154>
            case UP:
            case FORW:
                if (sel<MAXMEM) sel++;
    308a:	89 81       	ldd	r24, Y+1	; 0x01
    308c:	9a 81       	ldd	r25, Y+2	; 0x02
    308e:	48 97       	sbiw	r24, 0x18	; 24
    3090:	2c f4       	brge	.+10     	; 0x309c <_ZN5Menue10memStoreToEv+0x13a>
    3092:	89 81       	ldd	r24, Y+1	; 0x01
    3094:	9a 81       	ldd	r25, Y+2	; 0x02
    3096:	01 96       	adiw	r24, 0x01	; 1
    3098:	9a 83       	std	Y+2, r25	; 0x02
    309a:	89 83       	std	Y+1, r24	; 0x01
                goto repaint;
    309c:	b1 cf       	rjmp	.-158    	; 0x3000 <_ZN5Menue10memStoreToEv+0x9e>
            case DOWN:
            case BACK:
                if (sel>1) sel--;
    309e:	89 81       	ldd	r24, Y+1	; 0x01
    30a0:	9a 81       	ldd	r25, Y+2	; 0x02
    30a2:	02 97       	sbiw	r24, 0x02	; 2
    30a4:	2c f0       	brlt	.+10     	; 0x30b0 <_ZN5Menue10memStoreToEv+0x14e>
    30a6:	89 81       	ldd	r24, Y+1	; 0x01
    30a8:	9a 81       	ldd	r25, Y+2	; 0x02
    30aa:	01 97       	sbiw	r24, 0x01	; 1
    30ac:	9a 83       	std	Y+2, r25	; 0x02
    30ae:	89 83       	std	Y+1, r24	; 0x01
                goto repaint;
    30b0:	a7 cf       	rjmp	.-178    	; 0x3000 <_ZN5Menue10memStoreToEv+0x9e>
        }
        wdt_reset();
    30b2:	a8 95       	wdr
    }
    30b4:	c2 cf       	rjmp	.-124    	; 0x303a <_ZN5Menue10memStoreToEv+0xd8>
}
    30b6:	0f 90       	pop	r0
    30b8:	0f 90       	pop	r0
    30ba:	0f 90       	pop	r0
    30bc:	0f 90       	pop	r0
    30be:	0f 90       	pop	r0
    30c0:	df 91       	pop	r29
    30c2:	cf 91       	pop	r28
    30c4:	08 95       	ret

000030c6 <_ZN5Menue7memEditEv>:

void Menue::memEdit()
{
    30c6:	ef 92       	push	r14
    30c8:	ff 92       	push	r15
    30ca:	0f 93       	push	r16
    30cc:	1f 93       	push	r17
    30ce:	cf 93       	push	r28
    30d0:	df 93       	push	r29
    30d2:	cd b7       	in	r28, 0x3d	; 61
    30d4:	de b7       	in	r29, 0x3e	; 62
    30d6:	63 97       	sbiw	r28, 0x13	; 19
    30d8:	0f b6       	in	r0, 0x3f	; 63
    30da:	f8 94       	cli
    30dc:	de bf       	out	0x3e, r29	; 62
    30de:	0f be       	out	0x3f, r0	; 63
    30e0:	cd bf       	out	0x3d, r28	; 61
    30e2:	9b 87       	std	Y+11, r25	; 0x0b
    30e4:	8a 87       	std	Y+10, r24	; 0x0a
    unsigned char key;
    int sel;
    unsigned int time1;
    static unsigned int timeIn;
  repaint:
    wdt_reset();
    30e6:	a8 95       	wdr
    Lcd::lcd.clear();
    30e8:	8e e9       	ldi	r24, 0x9E	; 158
    30ea:	91 e0       	ldi	r25, 0x01	; 1
    30ec:	e6 dc       	rcall	.-1588   	; 0x2aba <_ZN3Lcd5clearEv>
    printfLcd(0, 0, "    Memory      ");
    30ee:	83 eb       	ldi	r24, 0xB3	; 179
    30f0:	98 e0       	ldi	r25, 0x08	; 8
    30f2:	29 2f       	mov	r18, r25
    30f4:	2f 93       	push	r18
    30f6:	8f 93       	push	r24
    30f8:	1f 92       	push	r1
    30fa:	1f 92       	push	r1
    30fc:	8e e9       	ldi	r24, 0x9E	; 158
    30fe:	91 e0       	ldi	r25, 0x01	; 1
    3100:	89 2f       	mov	r24, r25
    3102:	8f 93       	push	r24
    3104:	8e e9       	ldi	r24, 0x9E	; 158
    3106:	91 e0       	ldi	r25, 0x01	; 1
    3108:	8f 93       	push	r24
    310a:	b9 dc       	rcall	.-1678   	; 0x2a7e <_ZN3Lcd5printEhhPKcz>
    310c:	0f 90       	pop	r0
    310e:	0f 90       	pop	r0
    3110:	0f 90       	pop	r0
    3112:	0f 90       	pop	r0
    3114:	0f 90       	pop	r0
    3116:	0f 90       	pop	r0
    printfLcd(1, 0, "     Edit       ");
    3118:	84 ec       	ldi	r24, 0xC4	; 196
    311a:	98 e0       	ldi	r25, 0x08	; 8
    311c:	29 2f       	mov	r18, r25
    311e:	2f 93       	push	r18
    3120:	8f 93       	push	r24
    3122:	1f 92       	push	r1
    3124:	81 e0       	ldi	r24, 0x01	; 1
    3126:	8f 93       	push	r24
    3128:	8e e9       	ldi	r24, 0x9E	; 158
    312a:	91 e0       	ldi	r25, 0x01	; 1
    312c:	89 2f       	mov	r24, r25
    312e:	8f 93       	push	r24
    3130:	8e e9       	ldi	r24, 0x9E	; 158
    3132:	91 e0       	ldi	r25, 0x01	; 1
    3134:	8f 93       	push	r24
    3136:	a3 dc       	rcall	.-1722   	; 0x2a7e <_ZN3Lcd5printEhhPKcz>
    3138:	0f 90       	pop	r0
    313a:	0f 90       	pop	r0
    313c:	0f 90       	pop	r0
    313e:	0f 90       	pop	r0
    3140:	0f 90       	pop	r0
    3142:	0f 90       	pop	r0
    printfLcd(3, 0, "Time   Del   Clr");
    3144:	85 ed       	ldi	r24, 0xD5	; 213
    3146:	98 e0       	ldi	r25, 0x08	; 8
    3148:	29 2f       	mov	r18, r25
    314a:	2f 93       	push	r18
    314c:	8f 93       	push	r24
    314e:	1f 92       	push	r1
    3150:	83 e0       	ldi	r24, 0x03	; 3
    3152:	8f 93       	push	r24
    3154:	8e e9       	ldi	r24, 0x9E	; 158
    3156:	91 e0       	ldi	r25, 0x01	; 1
    3158:	89 2f       	mov	r24, r25
    315a:	8f 93       	push	r24
    315c:	8e e9       	ldi	r24, 0x9E	; 158
    315e:	91 e0       	ldi	r25, 0x01	; 1
    3160:	8f 93       	push	r24
    3162:	8d dc       	rcall	.-1766   	; 0x2a7e <_ZN3Lcd5printEhhPKcz>
    3164:	0f 90       	pop	r0
    3166:	0f 90       	pop	r0
    3168:	0f 90       	pop	r0
    316a:	0f 90       	pop	r0
    316c:	0f 90       	pop	r0
    316e:	0f 90       	pop	r0
    for (;;) {
        switch (key=getch()) {
    3170:	8a 85       	ldd	r24, Y+10	; 0x0a
    3172:	9b 85       	ldd	r25, Y+11	; 0x0b
    3174:	0e 94 11 28 	call	0x5022	; 0x5022 <_ZN5Menue5getchEv>
    3178:	89 83       	std	Y+1, r24	; 0x01
    317a:	89 81       	ldd	r24, Y+1	; 0x01
    317c:	88 2f       	mov	r24, r24
    317e:	90 e0       	ldi	r25, 0x00	; 0
    3180:	80 31       	cpi	r24, 0x10	; 16
    3182:	91 05       	cpc	r25, r1
    3184:	09 f4       	brne	.+2      	; 0x3188 <_ZN5Menue7memEditEv+0xc2>
    3186:	af c1       	rjmp	.+862    	; 0x34e6 <_ZN5Menue7memEditEv+0x420>
    3188:	81 31       	cpi	r24, 0x11	; 17
    318a:	91 05       	cpc	r25, r1
    318c:	3c f4       	brge	.+14     	; 0x319c <_ZN5Menue7memEditEv+0xd6>
    318e:	84 30       	cpi	r24, 0x04	; 4
    3190:	91 05       	cpc	r25, r1
    3192:	69 f0       	breq	.+26     	; 0x31ae <_ZN5Menue7memEditEv+0xe8>
    3194:	08 97       	sbiw	r24, 0x08	; 8
    3196:	09 f4       	brne	.+2      	; 0x319a <_ZN5Menue7memEditEv+0xd4>
    3198:	e5 c0       	rjmp	.+458    	; 0x3364 <_ZN5Menue7memEditEv+0x29e>
    319a:	69 c2       	rjmp	.+1234   	; 0x366e <_ZN5Menue7memEditEv+0x5a8>
    319c:	80 32       	cpi	r24, 0x20	; 32
    319e:	91 05       	cpc	r25, r1
    31a0:	09 f4       	brne	.+2      	; 0x31a4 <_ZN5Menue7memEditEv+0xde>
    31a2:	67 c2       	rjmp	.+1230   	; 0x3672 <_ZN5Menue7memEditEv+0x5ac>
    31a4:	80 38       	cpi	r24, 0x80	; 128
    31a6:	91 05       	cpc	r25, r1
    31a8:	09 f4       	brne	.+2      	; 0x31ac <_ZN5Menue7memEditEv+0xe6>
    31aa:	65 c2       	rjmp	.+1226   	; 0x3676 <_ZN5Menue7memEditEv+0x5b0>
    31ac:	60 c2       	rjmp	.+1216   	; 0x366e <_ZN5Menue7memEditEv+0x5a8>
        	case BACK:
			    printfLcd(0, 0, " Select memory  ");
    31ae:	86 ee       	ldi	r24, 0xE6	; 230
    31b0:	98 e0       	ldi	r25, 0x08	; 8
    31b2:	29 2f       	mov	r18, r25
    31b4:	2f 93       	push	r18
    31b6:	8f 93       	push	r24
    31b8:	1f 92       	push	r1
    31ba:	1f 92       	push	r1
    31bc:	8e e9       	ldi	r24, 0x9E	; 158
    31be:	91 e0       	ldi	r25, 0x01	; 1
    31c0:	89 2f       	mov	r24, r25
    31c2:	8f 93       	push	r24
    31c4:	8e e9       	ldi	r24, 0x9E	; 158
    31c6:	91 e0       	ldi	r25, 0x01	; 1
    31c8:	8f 93       	push	r24
    31ca:	59 dc       	rcall	.-1870   	; 0x2a7e <_ZN3Lcd5printEhhPKcz>
    31cc:	0f 90       	pop	r0
    31ce:	0f 90       	pop	r0
    31d0:	0f 90       	pop	r0
    31d2:	0f 90       	pop	r0
    31d4:	0f 90       	pop	r0
    31d6:	0f 90       	pop	r0
			    printfLcd(1, 0, " to edit time   ");
    31d8:	87 ef       	ldi	r24, 0xF7	; 247
    31da:	98 e0       	ldi	r25, 0x08	; 8
    31dc:	29 2f       	mov	r18, r25
    31de:	2f 93       	push	r18
    31e0:	8f 93       	push	r24
    31e2:	1f 92       	push	r1
    31e4:	81 e0       	ldi	r24, 0x01	; 1
    31e6:	8f 93       	push	r24
    31e8:	8e e9       	ldi	r24, 0x9E	; 158
    31ea:	91 e0       	ldi	r25, 0x01	; 1
    31ec:	89 2f       	mov	r24, r25
    31ee:	8f 93       	push	r24
    31f0:	8e e9       	ldi	r24, 0x9E	; 158
    31f2:	91 e0       	ldi	r25, 0x01	; 1
    31f4:	8f 93       	push	r24
    31f6:	43 dc       	rcall	.-1914   	; 0x2a7e <_ZN3Lcd5printEhhPKcz>
    31f8:	0f 90       	pop	r0
    31fa:	0f 90       	pop	r0
    31fc:	0f 90       	pop	r0
    31fe:	0f 90       	pop	r0
    3200:	0f 90       	pop	r0
    3202:	0f 90       	pop	r0
                if ((sel=memSelect())>=0) {
    3204:	8a 85       	ldd	r24, Y+10	; 0x0a
    3206:	9b 85       	ldd	r25, Y+11	; 0x0b
    3208:	0e 94 c8 26 	call	0x4d90	; 0x4d90 <_ZN5Menue9memSelectEv>
    320c:	9b 83       	std	Y+3, r25	; 0x03
    320e:	8a 83       	std	Y+2, r24	; 0x02
    3210:	8b 81       	ldd	r24, Y+3	; 0x03
    3212:	80 95       	com	r24
    3214:	88 1f       	adc	r24, r24
    3216:	88 27       	eor	r24, r24
    3218:	88 1f       	adc	r24, r24
    321a:	88 23       	and	r24, r24
    321c:	09 f4       	brne	.+2      	; 0x3220 <_ZN5Menue7memEditEv+0x15a>
    321e:	a1 c0       	rjmp	.+322    	; 0x3362 <_ZN5Menue7memEditEv+0x29c>
                    if (!Nvr::nvr.memValid[sel])
    3220:	8a 81       	ldd	r24, Y+2	; 0x02
    3222:	9b 81       	ldd	r25, Y+3	; 0x03
    3224:	85 55       	subi	r24, 0x55	; 85
    3226:	9e 4f       	sbci	r25, 0xFE	; 254
    3228:	fc 01       	movw	r30, r24
    322a:	80 81       	ld	r24, Z
    322c:	88 23       	and	r24, r24
    322e:	39 f4       	brne	.+14     	; 0x323e <_ZN5Menue7memEditEv+0x178>
                        memNonExistent(sel);
    3230:	2a 81       	ldd	r18, Y+2	; 0x02
    3232:	3b 81       	ldd	r19, Y+3	; 0x03
    3234:	8a 85       	ldd	r24, Y+10	; 0x0a
    3236:	9b 85       	ldd	r25, Y+11	; 0x0b
    3238:	b9 01       	movw	r22, r18
    323a:	2b d2       	rcall	.+1110   	; 0x3692 <_ZN5Menue14memNonExistentEi>
    323c:	92 c0       	rjmp	.+292    	; 0x3362 <_ZN5Menue7memEditEv+0x29c>
                    else {
                        Lcd::lcd.clear();
    323e:	8e e9       	ldi	r24, 0x9E	; 158
    3240:	91 e0       	ldi	r25, 0x01	; 1
    3242:	3b dc       	rcall	.-1930   	; 0x2aba <_ZN3Lcd5clearEv>
                        printfLcd(0, 0, "  Specify new   ");
    3244:	88 e0       	ldi	r24, 0x08	; 8
    3246:	99 e0       	ldi	r25, 0x09	; 9
    3248:	29 2f       	mov	r18, r25
    324a:	2f 93       	push	r18
    324c:	8f 93       	push	r24
    324e:	1f 92       	push	r1
    3250:	1f 92       	push	r1
    3252:	8e e9       	ldi	r24, 0x9E	; 158
    3254:	91 e0       	ldi	r25, 0x01	; 1
    3256:	89 2f       	mov	r24, r25
    3258:	8f 93       	push	r24
    325a:	8e e9       	ldi	r24, 0x9E	; 158
    325c:	91 e0       	ldi	r25, 0x01	; 1
    325e:	8f 93       	push	r24
    3260:	0e dc       	rcall	.-2020   	; 0x2a7e <_ZN3Lcd5printEhhPKcz>
    3262:	0f 90       	pop	r0
    3264:	0f 90       	pop	r0
    3266:	0f 90       	pop	r0
    3268:	0f 90       	pop	r0
    326a:	0f 90       	pop	r0
    326c:	0f 90       	pop	r0
                        printfLcd(1, 0, "     time       ");
    326e:	89 e1       	ldi	r24, 0x19	; 25
    3270:	99 e0       	ldi	r25, 0x09	; 9
    3272:	29 2f       	mov	r18, r25
    3274:	2f 93       	push	r18
    3276:	8f 93       	push	r24
    3278:	1f 92       	push	r1
    327a:	81 e0       	ldi	r24, 0x01	; 1
    327c:	8f 93       	push	r24
    327e:	8e e9       	ldi	r24, 0x9E	; 158
    3280:	91 e0       	ldi	r25, 0x01	; 1
    3282:	89 2f       	mov	r24, r25
    3284:	8f 93       	push	r24
    3286:	8e e9       	ldi	r24, 0x9E	; 158
    3288:	91 e0       	ldi	r25, 0x01	; 1
    328a:	8f 93       	push	r24
    328c:	f8 db       	rcall	.-2064   	; 0x2a7e <_ZN3Lcd5printEhhPKcz>
    328e:	0f 90       	pop	r0
    3290:	0f 90       	pop	r0
    3292:	0f 90       	pop	r0
    3294:	0f 90       	pop	r0
    3296:	0f 90       	pop	r0
    3298:	0f 90       	pop	r0
                        int time=Nvr::nvr.memGetTime(sel);
    329a:	8a 81       	ldd	r24, Y+2	; 0x02
    329c:	68 2f       	mov	r22, r24
    329e:	88 ea       	ldi	r24, 0xA8	; 168
    32a0:	91 e0       	ldi	r25, 0x01	; 1
    32a2:	0e 94 a2 2b 	call	0x5744	; 0x5744 <_ZN3Nvr10memGetTimeEh>
    32a6:	9d 83       	std	Y+5, r25	; 0x05
    32a8:	8c 83       	std	Y+4, r24	; 0x04
                        timeIn=(unsigned int)((unsigned long)time*10*REFRESHTICK/1000);
    32aa:	8c 81       	ldd	r24, Y+4	; 0x04
    32ac:	9d 81       	ldd	r25, Y+5	; 0x05
    32ae:	9c 01       	movw	r18, r24
    32b0:	99 0f       	add	r25, r25
    32b2:	44 0b       	sbc	r20, r20
    32b4:	55 0b       	sbc	r21, r21
    32b6:	8a e4       	ldi	r24, 0x4A	; 74
    32b8:	91 e0       	ldi	r25, 0x01	; 1
    32ba:	dc 01       	movw	r26, r24
    32bc:	0e 94 00 33 	call	0x6600	; 0x6600 <__muluhisi3>
    32c0:	dc 01       	movw	r26, r24
    32c2:	cb 01       	movw	r24, r22
    32c4:	28 ee       	ldi	r18, 0xE8	; 232
    32c6:	33 e0       	ldi	r19, 0x03	; 3
    32c8:	40 e0       	ldi	r20, 0x00	; 0
    32ca:	50 e0       	ldi	r21, 0x00	; 0
    32cc:	bc 01       	movw	r22, r24
    32ce:	cd 01       	movw	r24, r26
    32d0:	0e 94 cf 32 	call	0x659e	; 0x659e <__udivmodsi4>
    32d4:	da 01       	movw	r26, r20
    32d6:	c9 01       	movw	r24, r18
    32d8:	90 93 a3 01 	sts	0x01A3, r25
    32dc:	80 93 a2 01 	sts	0x01A2, r24
                        if ((time1=doEdit(timeIn,6,4,9999,1))!=timeIn) {
    32e0:	8a 85       	ldd	r24, Y+10	; 0x0a
    32e2:	9b 85       	ldd	r25, Y+11	; 0x0b
    32e4:	ee 24       	eor	r14, r14
    32e6:	e3 94       	inc	r14
    32e8:	f1 2c       	mov	r15, r1
    32ea:	0f e0       	ldi	r16, 0x0F	; 15
    32ec:	17 e2       	ldi	r17, 0x27	; 39
    32ee:	24 e0       	ldi	r18, 0x04	; 4
    32f0:	46 e0       	ldi	r20, 0x06	; 6
    32f2:	62 ea       	ldi	r22, 0xA2	; 162
    32f4:	71 e0       	ldi	r23, 0x01	; 1
    32f6:	0e 94 d1 24 	call	0x49a2	; 0x49a2 <_ZN5Menue6doEditERjhhjj>
    32fa:	9f 83       	std	Y+7, r25	; 0x07
    32fc:	8e 83       	std	Y+6, r24	; 0x06
    32fe:	80 91 a2 01 	lds	r24, 0x01A2
    3302:	90 91 a3 01 	lds	r25, 0x01A3
    3306:	41 e0       	ldi	r20, 0x01	; 1
    3308:	2e 81       	ldd	r18, Y+6	; 0x06
    330a:	3f 81       	ldd	r19, Y+7	; 0x07
    330c:	28 17       	cp	r18, r24
    330e:	39 07       	cpc	r19, r25
    3310:	09 f4       	brne	.+2      	; 0x3314 <_ZN5Menue7memEditEv+0x24e>
    3312:	40 e0       	ldi	r20, 0x00	; 0
    3314:	44 23       	and	r20, r20
    3316:	29 f1       	breq	.+74     	; 0x3362 <_ZN5Menue7memEditEv+0x29c>
                            timeIn=(unsigned int)((unsigned long)time1*1000/(10*REFRESHTICK));
    3318:	8e 81       	ldd	r24, Y+6	; 0x06
    331a:	9f 81       	ldd	r25, Y+7	; 0x07
    331c:	9c 01       	movw	r18, r24
    331e:	40 e0       	ldi	r20, 0x00	; 0
    3320:	50 e0       	ldi	r21, 0x00	; 0
    3322:	88 ee       	ldi	r24, 0xE8	; 232
    3324:	93 e0       	ldi	r25, 0x03	; 3
    3326:	dc 01       	movw	r26, r24
    3328:	0e 94 00 33 	call	0x6600	; 0x6600 <__muluhisi3>
    332c:	dc 01       	movw	r26, r24
    332e:	cb 01       	movw	r24, r22
    3330:	2a e4       	ldi	r18, 0x4A	; 74
    3332:	31 e0       	ldi	r19, 0x01	; 1
    3334:	40 e0       	ldi	r20, 0x00	; 0
    3336:	50 e0       	ldi	r21, 0x00	; 0
    3338:	bc 01       	movw	r22, r24
    333a:	cd 01       	movw	r24, r26
    333c:	0e 94 cf 32 	call	0x659e	; 0x659e <__udivmodsi4>
    3340:	da 01       	movw	r26, r20
    3342:	c9 01       	movw	r24, r18
    3344:	90 93 a3 01 	sts	0x01A3, r25
    3348:	80 93 a2 01 	sts	0x01A2, r24
                            Nvr::nvr.memSetTime(sel,timeIn);
    334c:	80 91 a2 01 	lds	r24, 0x01A2
    3350:	90 91 a3 01 	lds	r25, 0x01A3
    3354:	2a 81       	ldd	r18, Y+2	; 0x02
    3356:	ac 01       	movw	r20, r24
    3358:	62 2f       	mov	r22, r18
    335a:	88 ea       	ldi	r24, 0xA8	; 168
    335c:	91 e0       	ldi	r25, 0x01	; 1
    335e:	0e 94 d7 2b 	call	0x57ae	; 0x57ae <_ZN3Nvr10memSetTimeEhj>
                        }
                    }
                }
        		goto repaint;
    3362:	c1 ce       	rjmp	.-638    	; 0x30e6 <_ZN5Menue7memEditEv+0x20>
        	case UP:
			    printfLcd(0, 0, " Select memory  ");
    3364:	8a e2       	ldi	r24, 0x2A	; 42
    3366:	99 e0       	ldi	r25, 0x09	; 9
    3368:	29 2f       	mov	r18, r25
    336a:	2f 93       	push	r18
    336c:	8f 93       	push	r24
    336e:	1f 92       	push	r1
    3370:	1f 92       	push	r1
    3372:	8e e9       	ldi	r24, 0x9E	; 158
    3374:	91 e0       	ldi	r25, 0x01	; 1
    3376:	89 2f       	mov	r24, r25
    3378:	8f 93       	push	r24
    337a:	8e e9       	ldi	r24, 0x9E	; 158
    337c:	91 e0       	ldi	r25, 0x01	; 1
    337e:	8f 93       	push	r24
    3380:	7e db       	rcall	.-2308   	; 0x2a7e <_ZN3Lcd5printEhhPKcz>
    3382:	0f 90       	pop	r0
    3384:	0f 90       	pop	r0
    3386:	0f 90       	pop	r0
    3388:	0f 90       	pop	r0
    338a:	0f 90       	pop	r0
    338c:	0f 90       	pop	r0
			    printfLcd(1, 0, "   to delete    ");
    338e:	8b e3       	ldi	r24, 0x3B	; 59
    3390:	99 e0       	ldi	r25, 0x09	; 9
    3392:	29 2f       	mov	r18, r25
    3394:	2f 93       	push	r18
    3396:	8f 93       	push	r24
    3398:	1f 92       	push	r1
    339a:	81 e0       	ldi	r24, 0x01	; 1
    339c:	8f 93       	push	r24
    339e:	8e e9       	ldi	r24, 0x9E	; 158
    33a0:	91 e0       	ldi	r25, 0x01	; 1
    33a2:	89 2f       	mov	r24, r25
    33a4:	8f 93       	push	r24
    33a6:	8e e9       	ldi	r24, 0x9E	; 158
    33a8:	91 e0       	ldi	r25, 0x01	; 1
    33aa:	8f 93       	push	r24
    33ac:	68 db       	rcall	.-2352   	; 0x2a7e <_ZN3Lcd5printEhhPKcz>
    33ae:	0f 90       	pop	r0
    33b0:	0f 90       	pop	r0
    33b2:	0f 90       	pop	r0
    33b4:	0f 90       	pop	r0
    33b6:	0f 90       	pop	r0
    33b8:	0f 90       	pop	r0
                if ((sel=memSelect())>=0) {
    33ba:	8a 85       	ldd	r24, Y+10	; 0x0a
    33bc:	9b 85       	ldd	r25, Y+11	; 0x0b
    33be:	0e 94 c8 26 	call	0x4d90	; 0x4d90 <_ZN5Menue9memSelectEv>
    33c2:	9b 83       	std	Y+3, r25	; 0x03
    33c4:	8a 83       	std	Y+2, r24	; 0x02
    33c6:	8b 81       	ldd	r24, Y+3	; 0x03
    33c8:	80 95       	com	r24
    33ca:	88 1f       	adc	r24, r24
    33cc:	88 27       	eor	r24, r24
    33ce:	88 1f       	adc	r24, r24
    33d0:	88 23       	and	r24, r24
    33d2:	09 f4       	brne	.+2      	; 0x33d6 <_ZN5Menue7memEditEv+0x310>
    33d4:	87 c0       	rjmp	.+270    	; 0x34e4 <_ZN5Menue7memEditEv+0x41e>
                    if (!Nvr::nvr.memValid[sel])
    33d6:	8a 81       	ldd	r24, Y+2	; 0x02
    33d8:	9b 81       	ldd	r25, Y+3	; 0x03
    33da:	85 55       	subi	r24, 0x55	; 85
    33dc:	9e 4f       	sbci	r25, 0xFE	; 254
    33de:	fc 01       	movw	r30, r24
    33e0:	80 81       	ld	r24, Z
    33e2:	88 23       	and	r24, r24
    33e4:	39 f4       	brne	.+14     	; 0x33f4 <_ZN5Menue7memEditEv+0x32e>
                        memNonExistent(sel);
    33e6:	2a 81       	ldd	r18, Y+2	; 0x02
    33e8:	3b 81       	ldd	r19, Y+3	; 0x03
    33ea:	8a 85       	ldd	r24, Y+10	; 0x0a
    33ec:	9b 85       	ldd	r25, Y+11	; 0x0b
    33ee:	b9 01       	movw	r22, r18
    33f0:	50 d1       	rcall	.+672    	; 0x3692 <_ZN5Menue14memNonExistentEi>
    33f2:	78 c0       	rjmp	.+240    	; 0x34e4 <_ZN5Menue7memEditEv+0x41e>
                    else {
                        Lcd::lcd.clear();
    33f4:	8e e9       	ldi	r24, 0x9E	; 158
    33f6:	91 e0       	ldi	r25, 0x01	; 1
    33f8:	60 db       	rcall	.-2368   	; 0x2aba <_ZN3Lcd5clearEv>
                        printfLcd(0, 0, "  Press Enter   ");
    33fa:	8c e4       	ldi	r24, 0x4C	; 76
    33fc:	99 e0       	ldi	r25, 0x09	; 9
    33fe:	29 2f       	mov	r18, r25
    3400:	2f 93       	push	r18
    3402:	8f 93       	push	r24
    3404:	1f 92       	push	r1
    3406:	1f 92       	push	r1
    3408:	8e e9       	ldi	r24, 0x9E	; 158
    340a:	91 e0       	ldi	r25, 0x01	; 1
    340c:	89 2f       	mov	r24, r25
    340e:	8f 93       	push	r24
    3410:	8e e9       	ldi	r24, 0x9E	; 158
    3412:	91 e0       	ldi	r25, 0x01	; 1
    3414:	8f 93       	push	r24
    3416:	33 db       	rcall	.-2458   	; 0x2a7e <_ZN3Lcd5printEhhPKcz>
    3418:	0f 90       	pop	r0
    341a:	0f 90       	pop	r0
    341c:	0f 90       	pop	r0
    341e:	0f 90       	pop	r0
    3420:	0f 90       	pop	r0
    3422:	0f 90       	pop	r0
                        printfLcd(1, 0, " to delete m%d   ",sel+1);
    3424:	8a 81       	ldd	r24, Y+2	; 0x02
    3426:	9b 81       	ldd	r25, Y+3	; 0x03
    3428:	9c 01       	movw	r18, r24
    342a:	2f 5f       	subi	r18, 0xFF	; 255
    342c:	3f 4f       	sbci	r19, 0xFF	; 255
    342e:	8d e5       	ldi	r24, 0x5D	; 93
    3430:	99 e0       	ldi	r25, 0x09	; 9
    3432:	43 2f       	mov	r20, r19
    3434:	4f 93       	push	r20
    3436:	2f 93       	push	r18
    3438:	29 2f       	mov	r18, r25
    343a:	2f 93       	push	r18
    343c:	8f 93       	push	r24
    343e:	1f 92       	push	r1
    3440:	81 e0       	ldi	r24, 0x01	; 1
    3442:	8f 93       	push	r24
    3444:	8e e9       	ldi	r24, 0x9E	; 158
    3446:	91 e0       	ldi	r25, 0x01	; 1
    3448:	89 2f       	mov	r24, r25
    344a:	8f 93       	push	r24
    344c:	8e e9       	ldi	r24, 0x9E	; 158
    344e:	91 e0       	ldi	r25, 0x01	; 1
    3450:	8f 93       	push	r24
    3452:	15 db       	rcall	.-2518   	; 0x2a7e <_ZN3Lcd5printEhhPKcz>
    3454:	8d b7       	in	r24, 0x3d	; 61
    3456:	9e b7       	in	r25, 0x3e	; 62
    3458:	08 96       	adiw	r24, 0x08	; 8
    345a:	0f b6       	in	r0, 0x3f	; 63
    345c:	f8 94       	cli
    345e:	de bf       	out	0x3e, r29	; 62
    3460:	0f be       	out	0x3f, r0	; 63
    3462:	cd bf       	out	0x3d, r28	; 61
                        printfLcd(2, 0, " or press Escape");
    3464:	8f e6       	ldi	r24, 0x6F	; 111
    3466:	99 e0       	ldi	r25, 0x09	; 9
    3468:	29 2f       	mov	r18, r25
    346a:	2f 93       	push	r18
    346c:	8f 93       	push	r24
    346e:	1f 92       	push	r1
    3470:	82 e0       	ldi	r24, 0x02	; 2
    3472:	8f 93       	push	r24
    3474:	8e e9       	ldi	r24, 0x9E	; 158
    3476:	91 e0       	ldi	r25, 0x01	; 1
    3478:	89 2f       	mov	r24, r25
    347a:	8f 93       	push	r24
    347c:	8e e9       	ldi	r24, 0x9E	; 158
    347e:	91 e0       	ldi	r25, 0x01	; 1
    3480:	8f 93       	push	r24
    3482:	fd da       	rcall	.-2566   	; 0x2a7e <_ZN3Lcd5printEhhPKcz>
    3484:	0f 90       	pop	r0
    3486:	0f 90       	pop	r0
    3488:	0f 90       	pop	r0
    348a:	0f 90       	pop	r0
    348c:	0f 90       	pop	r0
    348e:	0f 90       	pop	r0
                        printfLcd(3, 0, "   to cancel    ");
    3490:	80 e8       	ldi	r24, 0x80	; 128
    3492:	99 e0       	ldi	r25, 0x09	; 9
    3494:	29 2f       	mov	r18, r25
    3496:	2f 93       	push	r18
    3498:	8f 93       	push	r24
    349a:	1f 92       	push	r1
    349c:	83 e0       	ldi	r24, 0x03	; 3
    349e:	8f 93       	push	r24
    34a0:	8e e9       	ldi	r24, 0x9E	; 158
    34a2:	91 e0       	ldi	r25, 0x01	; 1
    34a4:	89 2f       	mov	r24, r25
    34a6:	8f 93       	push	r24
    34a8:	8e e9       	ldi	r24, 0x9E	; 158
    34aa:	91 e0       	ldi	r25, 0x01	; 1
    34ac:	8f 93       	push	r24
    34ae:	e7 da       	rcall	.-2610   	; 0x2a7e <_ZN3Lcd5printEhhPKcz>
    34b0:	0f 90       	pop	r0
    34b2:	0f 90       	pop	r0
    34b4:	0f 90       	pop	r0
    34b6:	0f 90       	pop	r0
    34b8:	0f 90       	pop	r0
    34ba:	0f 90       	pop	r0
                        unsigned char k;
                        do k=getch();
    34bc:	8a 85       	ldd	r24, Y+10	; 0x0a
    34be:	9b 85       	ldd	r25, Y+11	; 0x0b
    34c0:	0e 94 11 28 	call	0x5022	; 0x5022 <_ZN5Menue5getchEv>
    34c4:	88 87       	std	Y+8, r24	; 0x08
    34c6:	88 85       	ldd	r24, Y+8	; 0x08
    34c8:	80 38       	cpi	r24, 0x80	; 128
    34ca:	19 f0       	breq	.+6      	; 0x34d2 <_ZN5Menue7memEditEv+0x40c>
                        while ((k!=ENT) && (k!=ESC));
    34cc:	88 85       	ldd	r24, Y+8	; 0x08
    34ce:	80 32       	cpi	r24, 0x20	; 32
    34d0:	a9 f7       	brne	.-22     	; 0x34bc <_ZN5Menue7memEditEv+0x3f6>
                        if (k==ENT)
    34d2:	88 85       	ldd	r24, Y+8	; 0x08
    34d4:	80 38       	cpi	r24, 0x80	; 128
    34d6:	31 f4       	brne	.+12     	; 0x34e4 <_ZN5Menue7memEditEv+0x41e>
                            Nvr::nvr.memDelete(sel);
    34d8:	8a 81       	ldd	r24, Y+2	; 0x02
    34da:	68 2f       	mov	r22, r24
    34dc:	88 ea       	ldi	r24, 0xA8	; 168
    34de:	91 e0       	ldi	r25, 0x01	; 1
    34e0:	0e 94 13 2c 	call	0x5826	; 0x5826 <_ZN3Nvr9memDeleteEh>
                    }
                }
        		goto repaint;
    34e4:	00 ce       	rjmp	.-1024   	; 0x30e6 <_ZN5Menue7memEditEv+0x20>
        	case FORW:
                Lcd::lcd.clear();
    34e6:	8e e9       	ldi	r24, 0x9E	; 158
    34e8:	91 e0       	ldi	r25, 0x01	; 1
    34ea:	e7 da       	rcall	.-2610   	; 0x2aba <_ZN3Lcd5clearEv>
                printfLcd(0, 0, " Press Enter to ");
    34ec:	81 e9       	ldi	r24, 0x91	; 145
    34ee:	99 e0       	ldi	r25, 0x09	; 9
    34f0:	29 2f       	mov	r18, r25
    34f2:	2f 93       	push	r18
    34f4:	8f 93       	push	r24
    34f6:	1f 92       	push	r1
    34f8:	1f 92       	push	r1
    34fa:	8e e9       	ldi	r24, 0x9E	; 158
    34fc:	91 e0       	ldi	r25, 0x01	; 1
    34fe:	89 2f       	mov	r24, r25
    3500:	8f 93       	push	r24
    3502:	8e e9       	ldi	r24, 0x9E	; 158
    3504:	91 e0       	ldi	r25, 0x01	; 1
    3506:	8f 93       	push	r24
    3508:	ba da       	rcall	.-2700   	; 0x2a7e <_ZN3Lcd5printEhhPKcz>
    350a:	0f 90       	pop	r0
    350c:	0f 90       	pop	r0
    350e:	0f 90       	pop	r0
    3510:	0f 90       	pop	r0
    3512:	0f 90       	pop	r0
    3514:	0f 90       	pop	r0
                printfLcd(1, 0, " clear memmories");
    3516:	82 ea       	ldi	r24, 0xA2	; 162
    3518:	99 e0       	ldi	r25, 0x09	; 9
    351a:	29 2f       	mov	r18, r25
    351c:	2f 93       	push	r18
    351e:	8f 93       	push	r24
    3520:	1f 92       	push	r1
    3522:	81 e0       	ldi	r24, 0x01	; 1
    3524:	8f 93       	push	r24
    3526:	8e e9       	ldi	r24, 0x9E	; 158
    3528:	91 e0       	ldi	r25, 0x01	; 1
    352a:	89 2f       	mov	r24, r25
    352c:	8f 93       	push	r24
    352e:	8e e9       	ldi	r24, 0x9E	; 158
    3530:	91 e0       	ldi	r25, 0x01	; 1
    3532:	8f 93       	push	r24
    3534:	a4 da       	rcall	.-2744   	; 0x2a7e <_ZN3Lcd5printEhhPKcz>
    3536:	0f 90       	pop	r0
    3538:	0f 90       	pop	r0
    353a:	0f 90       	pop	r0
    353c:	0f 90       	pop	r0
    353e:	0f 90       	pop	r0
    3540:	0f 90       	pop	r0
                printfLcd(2, 0, " or press Escape");
    3542:	83 eb       	ldi	r24, 0xB3	; 179
    3544:	99 e0       	ldi	r25, 0x09	; 9
    3546:	29 2f       	mov	r18, r25
    3548:	2f 93       	push	r18
    354a:	8f 93       	push	r24
    354c:	1f 92       	push	r1
    354e:	82 e0       	ldi	r24, 0x02	; 2
    3550:	8f 93       	push	r24
    3552:	8e e9       	ldi	r24, 0x9E	; 158
    3554:	91 e0       	ldi	r25, 0x01	; 1
    3556:	89 2f       	mov	r24, r25
    3558:	8f 93       	push	r24
    355a:	8e e9       	ldi	r24, 0x9E	; 158
    355c:	91 e0       	ldi	r25, 0x01	; 1
    355e:	8f 93       	push	r24
    3560:	8e da       	rcall	.-2788   	; 0x2a7e <_ZN3Lcd5printEhhPKcz>
    3562:	0f 90       	pop	r0
    3564:	0f 90       	pop	r0
    3566:	0f 90       	pop	r0
    3568:	0f 90       	pop	r0
    356a:	0f 90       	pop	r0
    356c:	0f 90       	pop	r0
                printfLcd(3, 0, "   to cancel    ");
    356e:	84 ec       	ldi	r24, 0xC4	; 196
    3570:	99 e0       	ldi	r25, 0x09	; 9
    3572:	29 2f       	mov	r18, r25
    3574:	2f 93       	push	r18
    3576:	8f 93       	push	r24
    3578:	1f 92       	push	r1
    357a:	83 e0       	ldi	r24, 0x03	; 3
    357c:	8f 93       	push	r24
    357e:	8e e9       	ldi	r24, 0x9E	; 158
    3580:	91 e0       	ldi	r25, 0x01	; 1
    3582:	89 2f       	mov	r24, r25
    3584:	8f 93       	push	r24
    3586:	8e e9       	ldi	r24, 0x9E	; 158
    3588:	91 e0       	ldi	r25, 0x01	; 1
    358a:	8f 93       	push	r24
    358c:	78 da       	rcall	.-2832   	; 0x2a7e <_ZN3Lcd5printEhhPKcz>
    358e:	0f 90       	pop	r0
    3590:	0f 90       	pop	r0
    3592:	0f 90       	pop	r0
    3594:	0f 90       	pop	r0
    3596:	0f 90       	pop	r0
    3598:	0f 90       	pop	r0
                unsigned char k;
                do k=getch();
    359a:	8a 85       	ldd	r24, Y+10	; 0x0a
    359c:	9b 85       	ldd	r25, Y+11	; 0x0b
    359e:	0e 94 11 28 	call	0x5022	; 0x5022 <_ZN5Menue5getchEv>
    35a2:	89 87       	std	Y+9, r24	; 0x09
    35a4:	89 85       	ldd	r24, Y+9	; 0x09
    35a6:	80 38       	cpi	r24, 0x80	; 128
    35a8:	19 f0       	breq	.+6      	; 0x35b0 <_ZN5Menue7memEditEv+0x4ea>
                while ((k!=ENT) && (k!=ESC));
    35aa:	89 85       	ldd	r24, Y+9	; 0x09
    35ac:	80 32       	cpi	r24, 0x20	; 32
    35ae:	a9 f7       	brne	.-22     	; 0x359a <_ZN5Menue7memEditEv+0x4d4>
                if (k==ENT) {
    35b0:	89 85       	ldd	r24, Y+9	; 0x09
    35b2:	80 38       	cpi	r24, 0x80	; 128
    35b4:	09 f0       	breq	.+2      	; 0x35b8 <_ZN5Menue7memEditEv+0x4f2>
    35b6:	5a c0       	rjmp	.+180    	; 0x366c <_ZN5Menue7memEditEv+0x5a6>
                    printfLcd(1, 0, "    proceed     ");
    35b8:	85 ed       	ldi	r24, 0xD5	; 213
    35ba:	99 e0       	ldi	r25, 0x09	; 9
    35bc:	29 2f       	mov	r18, r25
    35be:	2f 93       	push	r18
    35c0:	8f 93       	push	r24
    35c2:	1f 92       	push	r1
    35c4:	81 e0       	ldi	r24, 0x01	; 1
    35c6:	8f 93       	push	r24
    35c8:	8e e9       	ldi	r24, 0x9E	; 158
    35ca:	91 e0       	ldi	r25, 0x01	; 1
    35cc:	89 2f       	mov	r24, r25
    35ce:	8f 93       	push	r24
    35d0:	8e e9       	ldi	r24, 0x9E	; 158
    35d2:	91 e0       	ldi	r25, 0x01	; 1
    35d4:	8f 93       	push	r24
    35d6:	53 da       	rcall	.-2906   	; 0x2a7e <_ZN3Lcd5printEhhPKcz>
    35d8:	0f 90       	pop	r0
    35da:	0f 90       	pop	r0
    35dc:	0f 90       	pop	r0
    35de:	0f 90       	pop	r0
    35e0:	0f 90       	pop	r0
    35e2:	0f 90       	pop	r0
                    do k=getch();
    35e4:	8a 85       	ldd	r24, Y+10	; 0x0a
    35e6:	9b 85       	ldd	r25, Y+11	; 0x0b
    35e8:	0e 94 11 28 	call	0x5022	; 0x5022 <_ZN5Menue5getchEv>
    35ec:	89 87       	std	Y+9, r24	; 0x09
    35ee:	89 85       	ldd	r24, Y+9	; 0x09
    35f0:	80 38       	cpi	r24, 0x80	; 128
    35f2:	19 f0       	breq	.+6      	; 0x35fa <_ZN5Menue7memEditEv+0x534>
                    while ((k!=ENT) && (k!=ESC));
    35f4:	89 85       	ldd	r24, Y+9	; 0x09
    35f6:	80 32       	cpi	r24, 0x20	; 32
    35f8:	a9 f7       	brne	.-22     	; 0x35e4 <_ZN5Menue7memEditEv+0x51e>
                    if (k==ENT) {
    35fa:	89 85       	ldd	r24, Y+9	; 0x09
    35fc:	80 38       	cpi	r24, 0x80	; 128
    35fe:	b1 f5       	brne	.+108    	; 0x366c <_ZN5Menue7memEditEv+0x5a6>
                        Lcd::lcd.clear();
    3600:	8e e9       	ldi	r24, 0x9E	; 158
    3602:	91 e0       	ldi	r25, 0x01	; 1
    3604:	5a da       	rcall	.-2892   	; 0x2aba <_ZN3Lcd5clearEv>
                        printfLcd(0, 0, "  Clearing all  ");
    3606:	86 ee       	ldi	r24, 0xE6	; 230
    3608:	99 e0       	ldi	r25, 0x09	; 9
    360a:	29 2f       	mov	r18, r25
    360c:	2f 93       	push	r18
    360e:	8f 93       	push	r24
    3610:	1f 92       	push	r1
    3612:	1f 92       	push	r1
    3614:	8e e9       	ldi	r24, 0x9E	; 158
    3616:	91 e0       	ldi	r25, 0x01	; 1
    3618:	89 2f       	mov	r24, r25
    361a:	8f 93       	push	r24
    361c:	8e e9       	ldi	r24, 0x9E	; 158
    361e:	91 e0       	ldi	r25, 0x01	; 1
    3620:	8f 93       	push	r24
    3622:	2d da       	rcall	.-2982   	; 0x2a7e <_ZN3Lcd5printEhhPKcz>
    3624:	0f 90       	pop	r0
    3626:	0f 90       	pop	r0
    3628:	0f 90       	pop	r0
    362a:	0f 90       	pop	r0
    362c:	0f 90       	pop	r0
    362e:	0f 90       	pop	r0
                        printfLcd(1, 0, "    memmories   ");
    3630:	87 ef       	ldi	r24, 0xF7	; 247
    3632:	99 e0       	ldi	r25, 0x09	; 9
    3634:	29 2f       	mov	r18, r25
    3636:	2f 93       	push	r18
    3638:	8f 93       	push	r24
    363a:	1f 92       	push	r1
    363c:	81 e0       	ldi	r24, 0x01	; 1
    363e:	8f 93       	push	r24
    3640:	8e e9       	ldi	r24, 0x9E	; 158
    3642:	91 e0       	ldi	r25, 0x01	; 1
    3644:	89 2f       	mov	r24, r25
    3646:	8f 93       	push	r24
    3648:	8e e9       	ldi	r24, 0x9E	; 158
    364a:	91 e0       	ldi	r25, 0x01	; 1
    364c:	8f 93       	push	r24
    364e:	17 da       	rcall	.-3026   	; 0x2a7e <_ZN3Lcd5printEhhPKcz>
    3650:	0f 90       	pop	r0
    3652:	0f 90       	pop	r0
    3654:	0f 90       	pop	r0
    3656:	0f 90       	pop	r0
    3658:	0f 90       	pop	r0
    365a:	0f 90       	pop	r0
                        Nvr::nvr.memClear();
    365c:	88 ea       	ldi	r24, 0xA8	; 168
    365e:	91 e0       	ldi	r25, 0x01	; 1
    3660:	0e 94 7f 2c 	call	0x58fe	; 0x58fe <_ZN3Nvr8memClearEv>
                        delay();
    3664:	8a 85       	ldd	r24, Y+10	; 0x0a
    3666:	9b 85       	ldd	r25, Y+11	; 0x0b
    3668:	0e 94 e4 27 	call	0x4fc8	; 0x4fc8 <_ZN5Menue5delayEv>
                    }
                }                
        		goto repaint;
    366c:	3c cd       	rjmp	.-1416   	; 0x30e6 <_ZN5Menue7memEditEv+0x20>
            case ENT:
                return;
            case ESC:
                return;
        }
        wdt_reset();
    366e:	a8 95       	wdr
    }
    3670:	7f cd       	rjmp	.-1282   	; 0x3170 <_ZN5Menue7memEditEv+0xaa>
                }                
        		goto repaint;
            case ENT:
                return;
            case ESC:
                return;
    3672:	00 00       	nop
    3674:	01 c0       	rjmp	.+2      	; 0x3678 <_ZN5Menue7memEditEv+0x5b2>
                        delay();
                    }
                }                
        		goto repaint;
            case ENT:
                return;
    3676:	00 00       	nop
            case ESC:
                return;
        }
        wdt_reset();
    }
}
    3678:	63 96       	adiw	r28, 0x13	; 19
    367a:	0f b6       	in	r0, 0x3f	; 63
    367c:	f8 94       	cli
    367e:	de bf       	out	0x3e, r29	; 62
    3680:	0f be       	out	0x3f, r0	; 63
    3682:	cd bf       	out	0x3d, r28	; 61
    3684:	df 91       	pop	r29
    3686:	cf 91       	pop	r28
    3688:	1f 91       	pop	r17
    368a:	0f 91       	pop	r16
    368c:	ff 90       	pop	r15
    368e:	ef 90       	pop	r14
    3690:	08 95       	ret

00003692 <_ZN5Menue14memNonExistentEi>:

void Menue::memNonExistent(int m)
{
    3692:	cf 93       	push	r28
    3694:	df 93       	push	r29
    3696:	00 d0       	rcall	.+0      	; 0x3698 <_ZN5Menue14memNonExistentEi+0x6>
    3698:	00 d0       	rcall	.+0      	; 0x369a <_ZN5Menue14memNonExistentEi+0x8>
    369a:	cd b7       	in	r28, 0x3d	; 61
    369c:	de b7       	in	r29, 0x3e	; 62
    369e:	9a 83       	std	Y+2, r25	; 0x02
    36a0:	89 83       	std	Y+1, r24	; 0x01
    36a2:	7c 83       	std	Y+4, r23	; 0x04
    36a4:	6b 83       	std	Y+3, r22	; 0x03
    Lcd::lcd.clear();
    36a6:	8e e9       	ldi	r24, 0x9E	; 158
    36a8:	91 e0       	ldi	r25, 0x01	; 1
    36aa:	07 da       	rcall	.-3058   	; 0x2aba <_ZN3Lcd5clearEv>
    printfLcd(0, 0, "   Memory  %2d   ",m);
    36ac:	88 e0       	ldi	r24, 0x08	; 8
    36ae:	9a e0       	ldi	r25, 0x0A	; 10
    36b0:	2c 81       	ldd	r18, Y+4	; 0x04
    36b2:	2f 93       	push	r18
    36b4:	2b 81       	ldd	r18, Y+3	; 0x03
    36b6:	2f 93       	push	r18
    36b8:	29 2f       	mov	r18, r25
    36ba:	2f 93       	push	r18
    36bc:	8f 93       	push	r24
    36be:	1f 92       	push	r1
    36c0:	1f 92       	push	r1
    36c2:	8e e9       	ldi	r24, 0x9E	; 158
    36c4:	91 e0       	ldi	r25, 0x01	; 1
    36c6:	89 2f       	mov	r24, r25
    36c8:	8f 93       	push	r24
    36ca:	8e e9       	ldi	r24, 0x9E	; 158
    36cc:	91 e0       	ldi	r25, 0x01	; 1
    36ce:	8f 93       	push	r24
    36d0:	d6 d9       	rcall	.-3156   	; 0x2a7e <_ZN3Lcd5printEhhPKcz>
    36d2:	8d b7       	in	r24, 0x3d	; 61
    36d4:	9e b7       	in	r25, 0x3e	; 62
    36d6:	08 96       	adiw	r24, 0x08	; 8
    36d8:	0f b6       	in	r0, 0x3f	; 63
    36da:	f8 94       	cli
    36dc:	de bf       	out	0x3e, r29	; 62
    36de:	0f be       	out	0x3f, r0	; 63
    36e0:	cd bf       	out	0x3d, r28	; 61
    printfLcd(1, 0, "    does not    ");
    36e2:	8a e1       	ldi	r24, 0x1A	; 26
    36e4:	9a e0       	ldi	r25, 0x0A	; 10
    36e6:	29 2f       	mov	r18, r25
    36e8:	2f 93       	push	r18
    36ea:	8f 93       	push	r24
    36ec:	1f 92       	push	r1
    36ee:	81 e0       	ldi	r24, 0x01	; 1
    36f0:	8f 93       	push	r24
    36f2:	8e e9       	ldi	r24, 0x9E	; 158
    36f4:	91 e0       	ldi	r25, 0x01	; 1
    36f6:	89 2f       	mov	r24, r25
    36f8:	8f 93       	push	r24
    36fa:	8e e9       	ldi	r24, 0x9E	; 158
    36fc:	91 e0       	ldi	r25, 0x01	; 1
    36fe:	8f 93       	push	r24
    3700:	be d9       	rcall	.-3204   	; 0x2a7e <_ZN3Lcd5printEhhPKcz>
    3702:	0f 90       	pop	r0
    3704:	0f 90       	pop	r0
    3706:	0f 90       	pop	r0
    3708:	0f 90       	pop	r0
    370a:	0f 90       	pop	r0
    370c:	0f 90       	pop	r0
    printfLcd(2, 0, "     exist!     ");
    370e:	8b e2       	ldi	r24, 0x2B	; 43
    3710:	9a e0       	ldi	r25, 0x0A	; 10
    3712:	29 2f       	mov	r18, r25
    3714:	2f 93       	push	r18
    3716:	8f 93       	push	r24
    3718:	1f 92       	push	r1
    371a:	82 e0       	ldi	r24, 0x02	; 2
    371c:	8f 93       	push	r24
    371e:	8e e9       	ldi	r24, 0x9E	; 158
    3720:	91 e0       	ldi	r25, 0x01	; 1
    3722:	89 2f       	mov	r24, r25
    3724:	8f 93       	push	r24
    3726:	8e e9       	ldi	r24, 0x9E	; 158
    3728:	91 e0       	ldi	r25, 0x01	; 1
    372a:	8f 93       	push	r24
    372c:	a8 d9       	rcall	.-3248   	; 0x2a7e <_ZN3Lcd5printEhhPKcz>
    372e:	0f 90       	pop	r0
    3730:	0f 90       	pop	r0
    3732:	0f 90       	pop	r0
    3734:	0f 90       	pop	r0
    3736:	0f 90       	pop	r0
    3738:	0f 90       	pop	r0
    delay();
    373a:	89 81       	ldd	r24, Y+1	; 0x01
    373c:	9a 81       	ldd	r25, Y+2	; 0x02
    373e:	0e 94 e4 27 	call	0x4fc8	; 0x4fc8 <_ZN5Menue5delayEv>
}
    3742:	0f 90       	pop	r0
    3744:	0f 90       	pop	r0
    3746:	0f 90       	pop	r0
    3748:	0f 90       	pop	r0
    374a:	df 91       	pop	r29
    374c:	cf 91       	pop	r28
    374e:	08 95       	ret

00003750 <_ZN5Menue4playEv>:
//
// Playback
//

void Menue::play()
{
    3750:	cf 93       	push	r28
    3752:	df 93       	push	r29
    3754:	00 d0       	rcall	.+0      	; 0x3756 <_ZN5Menue4playEv+0x6>
    3756:	00 d0       	rcall	.+0      	; 0x3758 <_ZN5Menue4playEv+0x8>
    3758:	1f 92       	push	r1
    375a:	cd b7       	in	r28, 0x3d	; 61
    375c:	de b7       	in	r29, 0x3e	; 62
    375e:	9d 83       	std	Y+5, r25	; 0x05
    3760:	8c 83       	std	Y+4, r24	; 0x04
    unsigned char key;
    int sel;
  repaint:
    wdt_reset();
    3762:	a8 95       	wdr
    Lcd::lcd.clear();
    3764:	8e e9       	ldi	r24, 0x9E	; 158
    3766:	91 e0       	ldi	r25, 0x01	; 1
    3768:	a8 d9       	rcall	.-3248   	; 0x2aba <_ZN3Lcd5clearEv>
    printfLcd(0, 0, "   Playback     ");
    376a:	8c e3       	ldi	r24, 0x3C	; 60
    376c:	9a e0       	ldi	r25, 0x0A	; 10
    376e:	29 2f       	mov	r18, r25
    3770:	2f 93       	push	r18
    3772:	8f 93       	push	r24
    3774:	1f 92       	push	r1
    3776:	1f 92       	push	r1
    3778:	8e e9       	ldi	r24, 0x9E	; 158
    377a:	91 e0       	ldi	r25, 0x01	; 1
    377c:	89 2f       	mov	r24, r25
    377e:	8f 93       	push	r24
    3780:	8e e9       	ldi	r24, 0x9E	; 158
    3782:	91 e0       	ldi	r25, 0x01	; 1
    3784:	8f 93       	push	r24
    3786:	7b d9       	rcall	.-3338   	; 0x2a7e <_ZN3Lcd5printEhhPKcz>
    3788:	0f 90       	pop	r0
    378a:	0f 90       	pop	r0
    378c:	0f 90       	pop	r0
    378e:	0f 90       	pop	r0
    3790:	0f 90       	pop	r0
    3792:	0f 90       	pop	r0
    printfLcd(1, 0, "  Next    %d     ", Nvr::nvr.numNext+1);
    3794:	80 91 a9 01 	lds	r24, 0x01A9
    3798:	88 2f       	mov	r24, r24
    379a:	90 e0       	ldi	r25, 0x00	; 0
    379c:	9c 01       	movw	r18, r24
    379e:	2f 5f       	subi	r18, 0xFF	; 255
    37a0:	3f 4f       	sbci	r19, 0xFF	; 255
    37a2:	8d e4       	ldi	r24, 0x4D	; 77
    37a4:	9a e0       	ldi	r25, 0x0A	; 10
    37a6:	43 2f       	mov	r20, r19
    37a8:	4f 93       	push	r20
    37aa:	2f 93       	push	r18
    37ac:	29 2f       	mov	r18, r25
    37ae:	2f 93       	push	r18
    37b0:	8f 93       	push	r24
    37b2:	1f 92       	push	r1
    37b4:	81 e0       	ldi	r24, 0x01	; 1
    37b6:	8f 93       	push	r24
    37b8:	8e e9       	ldi	r24, 0x9E	; 158
    37ba:	91 e0       	ldi	r25, 0x01	; 1
    37bc:	89 2f       	mov	r24, r25
    37be:	8f 93       	push	r24
    37c0:	8e e9       	ldi	r24, 0x9E	; 158
    37c2:	91 e0       	ldi	r25, 0x01	; 1
    37c4:	8f 93       	push	r24
    37c6:	5b d9       	rcall	.-3402   	; 0x2a7e <_ZN3Lcd5printEhhPKcz>
    37c8:	8d b7       	in	r24, 0x3d	; 61
    37ca:	9e b7       	in	r25, 0x3e	; 62
    37cc:	08 96       	adiw	r24, 0x08	; 8
    37ce:	0f b6       	in	r0, 0x3f	; 63
    37d0:	f8 94       	cli
    37d2:	de bf       	out	0x3e, r29	; 62
    37d4:	0f be       	out	0x3f, r0	; 63
    37d6:	cd bf       	out	0x3d, r28	; 61
    printfLcd(3, 0, "Back   To   Next");
    37d8:	8f e5       	ldi	r24, 0x5F	; 95
    37da:	9a e0       	ldi	r25, 0x0A	; 10
    37dc:	29 2f       	mov	r18, r25
    37de:	2f 93       	push	r18
    37e0:	8f 93       	push	r24
    37e2:	1f 92       	push	r1
    37e4:	83 e0       	ldi	r24, 0x03	; 3
    37e6:	8f 93       	push	r24
    37e8:	8e e9       	ldi	r24, 0x9E	; 158
    37ea:	91 e0       	ldi	r25, 0x01	; 1
    37ec:	89 2f       	mov	r24, r25
    37ee:	8f 93       	push	r24
    37f0:	8e e9       	ldi	r24, 0x9E	; 158
    37f2:	91 e0       	ldi	r25, 0x01	; 1
    37f4:	8f 93       	push	r24
    37f6:	43 d9       	rcall	.-3450   	; 0x2a7e <_ZN3Lcd5printEhhPKcz>
    37f8:	0f 90       	pop	r0
    37fa:	0f 90       	pop	r0
    37fc:	0f 90       	pop	r0
    37fe:	0f 90       	pop	r0
    3800:	0f 90       	pop	r0
    3802:	0f 90       	pop	r0
    for (;;) {
        switch (key=getch()) {
    3804:	8c 81       	ldd	r24, Y+4	; 0x04
    3806:	9d 81       	ldd	r25, Y+5	; 0x05
    3808:	0e 94 11 28 	call	0x5022	; 0x5022 <_ZN5Menue5getchEv>
    380c:	89 83       	std	Y+1, r24	; 0x01
    380e:	89 81       	ldd	r24, Y+1	; 0x01
    3810:	88 2f       	mov	r24, r24
    3812:	90 e0       	ldi	r25, 0x00	; 0
    3814:	80 31       	cpi	r24, 0x10	; 16
    3816:	91 05       	cpc	r25, r1
    3818:	09 f4       	brne	.+2      	; 0x381c <_ZN5Menue4playEv+0xcc>
    381a:	4f c0       	rjmp	.+158    	; 0x38ba <_ZN5Menue4playEv+0x16a>
    381c:	81 31       	cpi	r24, 0x11	; 17
    381e:	91 05       	cpc	r25, r1
    3820:	34 f4       	brge	.+12     	; 0x382e <_ZN5Menue4playEv+0xde>
    3822:	84 30       	cpi	r24, 0x04	; 4
    3824:	91 05       	cpc	r25, r1
    3826:	39 f0       	breq	.+14     	; 0x3836 <_ZN5Menue4playEv+0xe6>
    3828:	08 97       	sbiw	r24, 0x08	; 8
    382a:	a1 f0       	breq	.+40     	; 0x3854 <_ZN5Menue4playEv+0x104>
    382c:	52 c0       	rjmp	.+164    	; 0x38d2 <_ZN5Menue4playEv+0x182>
    382e:	80 97       	sbiw	r24, 0x20	; 32
    3830:	09 f4       	brne	.+2      	; 0x3834 <_ZN5Menue4playEv+0xe4>
    3832:	51 c0       	rjmp	.+162    	; 0x38d6 <_ZN5Menue4playEv+0x186>
            case ENT:
                break;
    3834:	4e c0       	rjmp	.+156    	; 0x38d2 <_ZN5Menue4playEv+0x182>
            case ESC:
                return;
            case BACK:
                if (Nvr::nvr.memBack()) {
    3836:	88 ea       	ldi	r24, 0xA8	; 168
    3838:	91 e0       	ldi	r25, 0x01	; 1
    383a:	0e 94 46 2a 	call	0x548c	; 0x548c <_ZN3Nvr7memBackEv>
    383e:	88 23       	and	r24, r24
    3840:	41 f0       	breq	.+16     	; 0x3852 <_ZN5Menue4playEv+0x102>
                    Scan::scan.xfadeGo();
    3842:	85 e1       	ldi	r24, 0x15	; 21
    3844:	92 e0       	ldi	r25, 0x02	; 2
    3846:	0e 94 2c 2e 	call	0x5c58	; 0x5c58 <_ZN4Scan7xfadeGoEv>
                    playXfade();
    384a:	8c 81       	ldd	r24, Y+4	; 0x04
    384c:	9d 81       	ldd	r25, Y+5	; 0x05
    384e:	4c d0       	rcall	.+152    	; 0x38e8 <_ZN5Menue9playXfadeEv>
                    goto repaint;
    3850:	88 cf       	rjmp	.-240    	; 0x3762 <_ZN5Menue4playEv+0x12>
                }
                else break;
    3852:	3f c0       	rjmp	.+126    	; 0x38d2 <_ZN5Menue4playEv+0x182>
            case UP:
            	printfLcd(1,0,"   Select next  ");
    3854:	80 e7       	ldi	r24, 0x70	; 112
    3856:	9a e0       	ldi	r25, 0x0A	; 10
    3858:	29 2f       	mov	r18, r25
    385a:	2f 93       	push	r18
    385c:	8f 93       	push	r24
    385e:	1f 92       	push	r1
    3860:	81 e0       	ldi	r24, 0x01	; 1
    3862:	8f 93       	push	r24
    3864:	8e e9       	ldi	r24, 0x9E	; 158
    3866:	91 e0       	ldi	r25, 0x01	; 1
    3868:	89 2f       	mov	r24, r25
    386a:	8f 93       	push	r24
    386c:	8e e9       	ldi	r24, 0x9E	; 158
    386e:	91 e0       	ldi	r25, 0x01	; 1
    3870:	8f 93       	push	r24
    3872:	05 d9       	rcall	.-3574   	; 0x2a7e <_ZN3Lcd5printEhhPKcz>
    3874:	0f 90       	pop	r0
    3876:	0f 90       	pop	r0
    3878:	0f 90       	pop	r0
    387a:	0f 90       	pop	r0
    387c:	0f 90       	pop	r0
    387e:	0f 90       	pop	r0
                if ((sel=memSelect())>=(-1)) {
    3880:	8c 81       	ldd	r24, Y+4	; 0x04
    3882:	9d 81       	ldd	r25, Y+5	; 0x05
    3884:	0e 94 c8 26 	call	0x4d90	; 0x4d90 <_ZN5Menue9memSelectEv>
    3888:	9b 83       	std	Y+3, r25	; 0x03
    388a:	8a 83       	std	Y+2, r24	; 0x02
    388c:	21 e0       	ldi	r18, 0x01	; 1
    388e:	8a 81       	ldd	r24, Y+2	; 0x02
    3890:	9b 81       	ldd	r25, Y+3	; 0x03
    3892:	8f 3f       	cpi	r24, 0xFF	; 255
    3894:	9f 4f       	sbci	r25, 0xFF	; 255
    3896:	0c f4       	brge	.+2      	; 0x389a <_ZN5Menue4playEv+0x14a>
    3898:	20 e0       	ldi	r18, 0x00	; 0
    389a:	22 23       	and	r18, r18
    389c:	69 f0       	breq	.+26     	; 0x38b8 <_ZN5Menue4playEv+0x168>
                    Nvr::nvr.memGoTo(((char)sel));
    389e:	8a 81       	ldd	r24, Y+2	; 0x02
    38a0:	68 2f       	mov	r22, r24
    38a2:	88 ea       	ldi	r24, 0xA8	; 168
    38a4:	91 e0       	ldi	r25, 0x01	; 1
    38a6:	0e 94 d5 29 	call	0x53aa	; 0x53aa <_ZN3Nvr7memGoToEc>
                    Scan::scan.xfadeGo();
    38aa:	85 e1       	ldi	r24, 0x15	; 21
    38ac:	92 e0       	ldi	r25, 0x02	; 2
    38ae:	0e 94 2c 2e 	call	0x5c58	; 0x5c58 <_ZN4Scan7xfadeGoEv>
                    playXfade();
    38b2:	8c 81       	ldd	r24, Y+4	; 0x04
    38b4:	9d 81       	ldd	r25, Y+5	; 0x05
    38b6:	18 d0       	rcall	.+48     	; 0x38e8 <_ZN5Menue9playXfadeEv>
                }
                goto repaint;
    38b8:	54 cf       	rjmp	.-344    	; 0x3762 <_ZN5Menue4playEv+0x12>
            case FORW:
                Nvr::nvr.memGo();
    38ba:	88 ea       	ldi	r24, 0xA8	; 168
    38bc:	91 e0       	ldi	r25, 0x01	; 1
    38be:	0e 94 64 29 	call	0x52c8	; 0x52c8 <_ZN3Nvr5memGoEv>
                Scan::scan.xfadeGo();
    38c2:	85 e1       	ldi	r24, 0x15	; 21
    38c4:	92 e0       	ldi	r25, 0x02	; 2
    38c6:	0e 94 2c 2e 	call	0x5c58	; 0x5c58 <_ZN4Scan7xfadeGoEv>
                playXfade();
    38ca:	8c 81       	ldd	r24, Y+4	; 0x04
    38cc:	9d 81       	ldd	r25, Y+5	; 0x05
    38ce:	0c d0       	rcall	.+24     	; 0x38e8 <_ZN5Menue9playXfadeEv>
                goto repaint;
    38d0:	48 cf       	rjmp	.-368    	; 0x3762 <_ZN5Menue4playEv+0x12>
        }
        wdt_reset();
    38d2:	a8 95       	wdr
    }
    38d4:	97 cf       	rjmp	.-210    	; 0x3804 <_ZN5Menue4playEv+0xb4>
    for (;;) {
        switch (key=getch()) {
            case ENT:
                break;
            case ESC:
                return;
    38d6:	00 00       	nop
                playXfade();
                goto repaint;
        }
        wdt_reset();
    }
}
    38d8:	0f 90       	pop	r0
    38da:	0f 90       	pop	r0
    38dc:	0f 90       	pop	r0
    38de:	0f 90       	pop	r0
    38e0:	0f 90       	pop	r0
    38e2:	df 91       	pop	r29
    38e4:	cf 91       	pop	r28
    38e6:	08 95       	ret

000038e8 <_ZN5Menue9playXfadeEv>:


void Menue::playXfade()
{
    38e8:	cf 93       	push	r28
    38ea:	df 93       	push	r29
    38ec:	00 d0       	rcall	.+0      	; 0x38ee <_ZN5Menue9playXfadeEv+0x6>
    38ee:	00 d0       	rcall	.+0      	; 0x38f0 <_ZN5Menue9playXfadeEv+0x8>
    38f0:	1f 92       	push	r1
    38f2:	cd b7       	in	r28, 0x3d	; 61
    38f4:	de b7       	in	r29, 0x3e	; 62
    38f6:	9d 83       	std	Y+5, r25	; 0x05
    38f8:	8c 83       	std	Y+4, r24	; 0x04
    char key;
    int p;
    Lcd::lcd.clear();
    38fa:	8e e9       	ldi	r24, 0x9E	; 158
    38fc:	91 e0       	ldi	r25, 0x01	; 1
    38fe:	dd d8       	rcall	.-3654   	; 0x2aba <_ZN3Lcd5clearEv>
    printfLcd(0, 0, "  Crossfade     ");
    3900:	81 e8       	ldi	r24, 0x81	; 129
    3902:	9a e0       	ldi	r25, 0x0A	; 10
    3904:	29 2f       	mov	r18, r25
    3906:	2f 93       	push	r18
    3908:	8f 93       	push	r24
    390a:	1f 92       	push	r1
    390c:	1f 92       	push	r1
    390e:	8e e9       	ldi	r24, 0x9E	; 158
    3910:	91 e0       	ldi	r25, 0x01	; 1
    3912:	89 2f       	mov	r24, r25
    3914:	8f 93       	push	r24
    3916:	8e e9       	ldi	r24, 0x9E	; 158
    3918:	91 e0       	ldi	r25, 0x01	; 1
    391a:	8f 93       	push	r24
    391c:	b0 d8       	rcall	.-3744   	; 0x2a7e <_ZN3Lcd5printEhhPKcz>
    391e:	0f 90       	pop	r0
    3920:	0f 90       	pop	r0
    3922:	0f 90       	pop	r0
    3924:	0f 90       	pop	r0
    3926:	0f 90       	pop	r0
    3928:	0f 90       	pop	r0
    printfLcd(1, 0, "  percent =      ");
    392a:	82 e9       	ldi	r24, 0x92	; 146
    392c:	9a e0       	ldi	r25, 0x0A	; 10
    392e:	29 2f       	mov	r18, r25
    3930:	2f 93       	push	r18
    3932:	8f 93       	push	r24
    3934:	1f 92       	push	r1
    3936:	81 e0       	ldi	r24, 0x01	; 1
    3938:	8f 93       	push	r24
    393a:	8e e9       	ldi	r24, 0x9E	; 158
    393c:	91 e0       	ldi	r25, 0x01	; 1
    393e:	89 2f       	mov	r24, r25
    3940:	8f 93       	push	r24
    3942:	8e e9       	ldi	r24, 0x9E	; 158
    3944:	91 e0       	ldi	r25, 0x01	; 1
    3946:	8f 93       	push	r24
    3948:	9a d8       	rcall	.-3788   	; 0x2a7e <_ZN3Lcd5printEhhPKcz>
    394a:	0f 90       	pop	r0
    394c:	0f 90       	pop	r0
    394e:	0f 90       	pop	r0
    3950:	0f 90       	pop	r0
    3952:	0f 90       	pop	r0
    3954:	0f 90       	pop	r0
    printfLcd(3, 0, "Back  Hold   Go ");
    3956:	84 ea       	ldi	r24, 0xA4	; 164
    3958:	9a e0       	ldi	r25, 0x0A	; 10
    395a:	29 2f       	mov	r18, r25
    395c:	2f 93       	push	r18
    395e:	8f 93       	push	r24
    3960:	1f 92       	push	r1
    3962:	83 e0       	ldi	r24, 0x03	; 3
    3964:	8f 93       	push	r24
    3966:	8e e9       	ldi	r24, 0x9E	; 158
    3968:	91 e0       	ldi	r25, 0x01	; 1
    396a:	89 2f       	mov	r24, r25
    396c:	8f 93       	push	r24
    396e:	8e e9       	ldi	r24, 0x9E	; 158
    3970:	91 e0       	ldi	r25, 0x01	; 1
    3972:	8f 93       	push	r24
    3974:	84 d8       	rcall	.-3832   	; 0x2a7e <_ZN3Lcd5printEhhPKcz>
    3976:	0f 90       	pop	r0
    3978:	0f 90       	pop	r0
    397a:	0f 90       	pop	r0
    397c:	0f 90       	pop	r0
    397e:	0f 90       	pop	r0
    3980:	0f 90       	pop	r0
    while (Scan::xfadeFlag) {
    3982:	5a c0       	rjmp	.+180    	; 0x3a38 <_ZN5Menue9playXfadeEv+0x150>
        wdt_reset();
    3984:	a8 95       	wdr
        p=(Scan::xfadeVal*100)>>8;
    3986:	20 91 4b 02 	lds	r18, 0x024B
    398a:	30 91 4c 02 	lds	r19, 0x024C
    398e:	44 e6       	ldi	r20, 0x64	; 100
    3990:	42 9f       	mul	r20, r18
    3992:	c0 01       	movw	r24, r0
    3994:	43 9f       	mul	r20, r19
    3996:	90 0d       	add	r25, r0
    3998:	11 24       	eor	r1, r1
    399a:	89 2f       	mov	r24, r25
    399c:	99 27       	eor	r25, r25
    399e:	9a 83       	std	Y+2, r25	; 0x02
    39a0:	89 83       	std	Y+1, r24	; 0x01
        Lcd::lcd.goTo(1,12);
    39a2:	4c e0       	ldi	r20, 0x0C	; 12
    39a4:	61 e0       	ldi	r22, 0x01	; 1
    39a6:	8e e9       	ldi	r24, 0x9E	; 158
    39a8:	91 e0       	ldi	r25, 0x01	; 1
    39aa:	2e d8       	rcall	.-4004   	; 0x2a08 <_ZN3Lcd4goToEhh>
        if (p<100) printfL("%2d",p);
    39ac:	89 81       	ldd	r24, Y+1	; 0x01
    39ae:	9a 81       	ldd	r25, Y+2	; 0x02
    39b0:	84 36       	cpi	r24, 0x64	; 100
    39b2:	91 05       	cpc	r25, r1
    39b4:	84 f4       	brge	.+32     	; 0x39d6 <_ZN5Menue9playXfadeEv+0xee>
    39b6:	85 eb       	ldi	r24, 0xB5	; 181
    39b8:	9a e0       	ldi	r25, 0x0A	; 10
    39ba:	2a 81       	ldd	r18, Y+2	; 0x02
    39bc:	2f 93       	push	r18
    39be:	29 81       	ldd	r18, Y+1	; 0x01
    39c0:	2f 93       	push	r18
    39c2:	29 2f       	mov	r18, r25
    39c4:	2f 93       	push	r18
    39c6:	8f 93       	push	r24
    39c8:	0e 94 bf 33 	call	0x677e	; 0x677e <printf_P>
    39cc:	0f 90       	pop	r0
    39ce:	0f 90       	pop	r0
    39d0:	0f 90       	pop	r0
    39d2:	0f 90       	pop	r0
    39d4:	09 c0       	rjmp	.+18     	; 0x39e8 <_ZN5Menue9playXfadeEv+0x100>
        else printfL("FL");
    39d6:	89 eb       	ldi	r24, 0xB9	; 185
    39d8:	9a e0       	ldi	r25, 0x0A	; 10
    39da:	29 2f       	mov	r18, r25
    39dc:	2f 93       	push	r18
    39de:	8f 93       	push	r24
    39e0:	0e 94 bf 33 	call	0x677e	; 0x677e <printf_P>
    39e4:	0f 90       	pop	r0
    39e6:	0f 90       	pop	r0
        if ((key=getchar())!=EOF) {
    39e8:	80 91 a5 02 	lds	r24, 0x02A5
    39ec:	90 91 a6 02 	lds	r25, 0x02A6
    39f0:	0e 94 81 33 	call	0x6702	; 0x6702 <fgetc>
    39f4:	8b 83       	std	Y+3, r24	; 0x03
    39f6:	81 e0       	ldi	r24, 0x01	; 1
    39f8:	88 23       	and	r24, r24
    39fa:	f1 f0       	breq	.+60     	; 0x3a38 <_ZN5Menue9playXfadeEv+0x150>
            switch ((unsigned char)key) {
    39fc:	8b 81       	ldd	r24, Y+3	; 0x03
    39fe:	88 2f       	mov	r24, r24
    3a00:	90 e0       	ldi	r25, 0x00	; 0
    3a02:	88 30       	cpi	r24, 0x08	; 8
    3a04:	91 05       	cpc	r25, r1
    3a06:	31 f0       	breq	.+12     	; 0x3a14 <_ZN5Menue9playXfadeEv+0x12c>
    3a08:	80 31       	cpi	r24, 0x10	; 16
    3a0a:	91 05       	cpc	r25, r1
    3a0c:	39 f0       	breq	.+14     	; 0x3a1c <_ZN5Menue9playXfadeEv+0x134>
    3a0e:	04 97       	sbiw	r24, 0x04	; 4
    3a10:	41 f0       	breq	.+16     	; 0x3a22 <_ZN5Menue9playXfadeEv+0x13a>
    3a12:	12 c0       	rjmp	.+36     	; 0x3a38 <_ZN5Menue9playXfadeEv+0x150>
                case UP:
                    Scan::xfadeHold=1;
    3a14:	81 e0       	ldi	r24, 0x01	; 1
    3a16:	80 93 49 02 	sts	0x0249, r24
                    break;
    3a1a:	0e c0       	rjmp	.+28     	; 0x3a38 <_ZN5Menue9playXfadeEv+0x150>
                case FORW:
                    Scan::xfadeHold=0;
    3a1c:	10 92 49 02 	sts	0x0249, r1
                    break;
    3a20:	0b c0       	rjmp	.+22     	; 0x3a38 <_ZN5Menue9playXfadeEv+0x150>
                case BACK:
                    Nvr::nvr.memCancelGo();
    3a22:	88 ea       	ldi	r24, 0xA8	; 168
    3a24:	91 e0       	ldi	r25, 0x01	; 1
    3a26:	0e 94 b4 2a 	call	0x5568	; 0x5568 <_ZN3Nvr11memCancelGoEv>
                    Scan::xfadeHold=0;
    3a2a:	10 92 49 02 	sts	0x0249, r1
                    Scan::scan.xfadeCancelGo();
    3a2e:	85 e1       	ldi	r24, 0x15	; 21
    3a30:	92 e0       	ldi	r25, 0x02	; 2
    3a32:	0e 94 54 2e 	call	0x5ca8	; 0x5ca8 <_ZN4Scan13xfadeCancelGoEv>
                    break;
    3a36:	00 00       	nop
    int p;
    Lcd::lcd.clear();
    printfLcd(0, 0, "  Crossfade     ");
    printfLcd(1, 0, "  percent =      ");
    printfLcd(3, 0, "Back  Hold   Go ");
    while (Scan::xfadeFlag) {
    3a38:	90 91 48 02 	lds	r25, 0x0248
    3a3c:	81 e0       	ldi	r24, 0x01	; 1
    3a3e:	99 23       	and	r25, r25
    3a40:	09 f4       	brne	.+2      	; 0x3a44 <_ZN5Menue9playXfadeEv+0x15c>
    3a42:	80 e0       	ldi	r24, 0x00	; 0
    3a44:	88 23       	and	r24, r24
    3a46:	09 f0       	breq	.+2      	; 0x3a4a <_ZN5Menue9playXfadeEv+0x162>
    3a48:	9d cf       	rjmp	.-198    	; 0x3984 <_ZN5Menue9playXfadeEv+0x9c>
                    Scan::scan.xfadeCancelGo();
                    break;
            }
        }
    }
}
    3a4a:	0f 90       	pop	r0
    3a4c:	0f 90       	pop	r0
    3a4e:	0f 90       	pop	r0
    3a50:	0f 90       	pop	r0
    3a52:	0f 90       	pop	r0
    3a54:	df 91       	pop	r29
    3a56:	cf 91       	pop	r28
    3a58:	08 95       	ret

00003a5a <_ZN5Menue5setupEv>:
//
// Setup
//

void Menue::setup()
{
    3a5a:	cf 93       	push	r28
    3a5c:	df 93       	push	r29
    3a5e:	00 d0       	rcall	.+0      	; 0x3a60 <_ZN5Menue5setupEv+0x6>
    3a60:	1f 92       	push	r1
    3a62:	cd b7       	in	r28, 0x3d	; 61
    3a64:	de b7       	in	r29, 0x3e	; 62
    3a66:	9b 83       	std	Y+3, r25	; 0x03
    3a68:	8a 83       	std	Y+2, r24	; 0x02
    unsigned char key;
  rep1:
    wdt_reset();
    3a6a:	a8 95       	wdr
    Lcd::lcd.clear();
    3a6c:	8e e9       	ldi	r24, 0x9E	; 158
    3a6e:	91 e0       	ldi	r25, 0x01	; 1
    3a70:	24 d8       	rcall	.-4024   	; 0x2aba <_ZN3Lcd5clearEv>
    printfLcd(0, 0, " Configuration  ");
    3a72:	8c eb       	ldi	r24, 0xBC	; 188
    3a74:	9a e0       	ldi	r25, 0x0A	; 10
    3a76:	29 2f       	mov	r18, r25
    3a78:	2f 93       	push	r18
    3a7a:	8f 93       	push	r24
    3a7c:	1f 92       	push	r1
    3a7e:	1f 92       	push	r1
    3a80:	8e e9       	ldi	r24, 0x9E	; 158
    3a82:	91 e0       	ldi	r25, 0x01	; 1
    3a84:	89 2f       	mov	r24, r25
    3a86:	8f 93       	push	r24
    3a88:	8e e9       	ldi	r24, 0x9E	; 158
    3a8a:	91 e0       	ldi	r25, 0x01	; 1
    3a8c:	8f 93       	push	r24
    3a8e:	0e 94 3f 15 	call	0x2a7e	; 0x2a7e <_ZN3Lcd5printEhhPKcz>
    3a92:	0f 90       	pop	r0
    3a94:	0f 90       	pop	r0
    3a96:	0f 90       	pop	r0
    3a98:	0f 90       	pop	r0
    3a9a:	0f 90       	pop	r0
    3a9c:	0f 90       	pop	r0
    printfLcd(1, 0, "     Setup      ");
    3a9e:	8d ec       	ldi	r24, 0xCD	; 205
    3aa0:	9a e0       	ldi	r25, 0x0A	; 10
    3aa2:	29 2f       	mov	r18, r25
    3aa4:	2f 93       	push	r18
    3aa6:	8f 93       	push	r24
    3aa8:	1f 92       	push	r1
    3aaa:	81 e0       	ldi	r24, 0x01	; 1
    3aac:	8f 93       	push	r24
    3aae:	8e e9       	ldi	r24, 0x9E	; 158
    3ab0:	91 e0       	ldi	r25, 0x01	; 1
    3ab2:	89 2f       	mov	r24, r25
    3ab4:	8f 93       	push	r24
    3ab6:	8e e9       	ldi	r24, 0x9E	; 158
    3ab8:	91 e0       	ldi	r25, 0x01	; 1
    3aba:	8f 93       	push	r24
    3abc:	0e 94 3f 15 	call	0x2a7e	; 0x2a7e <_ZN3Lcd5printEhhPKcz>
    3ac0:	0f 90       	pop	r0
    3ac2:	0f 90       	pop	r0
    3ac4:	0f 90       	pop	r0
    3ac6:	0f 90       	pop	r0
    3ac8:	0f 90       	pop	r0
    3aca:	0f 90       	pop	r0
    printfLcd(3, 0, "Dmx   Curv  Diag");
    3acc:	8e ed       	ldi	r24, 0xDE	; 222
    3ace:	9a e0       	ldi	r25, 0x0A	; 10
    3ad0:	29 2f       	mov	r18, r25
    3ad2:	2f 93       	push	r18
    3ad4:	8f 93       	push	r24
    3ad6:	1f 92       	push	r1
    3ad8:	83 e0       	ldi	r24, 0x03	; 3
    3ada:	8f 93       	push	r24
    3adc:	8e e9       	ldi	r24, 0x9E	; 158
    3ade:	91 e0       	ldi	r25, 0x01	; 1
    3ae0:	89 2f       	mov	r24, r25
    3ae2:	8f 93       	push	r24
    3ae4:	8e e9       	ldi	r24, 0x9E	; 158
    3ae6:	91 e0       	ldi	r25, 0x01	; 1
    3ae8:	8f 93       	push	r24
    3aea:	0e 94 3f 15 	call	0x2a7e	; 0x2a7e <_ZN3Lcd5printEhhPKcz>
    3aee:	0f 90       	pop	r0
    3af0:	0f 90       	pop	r0
    3af2:	0f 90       	pop	r0
    3af4:	0f 90       	pop	r0
    3af6:	0f 90       	pop	r0
    3af8:	0f 90       	pop	r0
    wdt_reset();
    3afa:	a8 95       	wdr
    for (;;) {
        switch (key=getch()) {
    3afc:	8a 81       	ldd	r24, Y+2	; 0x02
    3afe:	9b 81       	ldd	r25, Y+3	; 0x03
    3b00:	0e 94 11 28 	call	0x5022	; 0x5022 <_ZN5Menue5getchEv>
    3b04:	89 83       	std	Y+1, r24	; 0x01
    3b06:	89 81       	ldd	r24, Y+1	; 0x01
    3b08:	88 2f       	mov	r24, r24
    3b0a:	90 e0       	ldi	r25, 0x00	; 0
    3b0c:	80 31       	cpi	r24, 0x10	; 16
    3b0e:	91 05       	cpc	r25, r1
    3b10:	f1 f0       	breq	.+60     	; 0x3b4e <_ZN5Menue5setupEv+0xf4>
    3b12:	81 31       	cpi	r24, 0x11	; 17
    3b14:	91 05       	cpc	r25, r1
    3b16:	34 f4       	brge	.+12     	; 0x3b24 <_ZN5Menue5setupEv+0xca>
    3b18:	84 30       	cpi	r24, 0x04	; 4
    3b1a:	91 05       	cpc	r25, r1
    3b1c:	61 f0       	breq	.+24     	; 0x3b36 <_ZN5Menue5setupEv+0xdc>
    3b1e:	08 97       	sbiw	r24, 0x08	; 8
    3b20:	71 f0       	breq	.+28     	; 0x3b3e <_ZN5Menue5setupEv+0xe4>
                goto rep1;
            case FORW:
                voltageScreen();
                goto rep1;
            default:
                break;
    3b22:	19 c0       	rjmp	.+50     	; 0x3b56 <_ZN5Menue5setupEv+0xfc>
    printfLcd(0, 0, " Configuration  ");
    printfLcd(1, 0, "     Setup      ");
    printfLcd(3, 0, "Dmx   Curv  Diag");
    wdt_reset();
    for (;;) {
        switch (key=getch()) {
    3b24:	80 34       	cpi	r24, 0x40	; 64
    3b26:	91 05       	cpc	r25, r1
    3b28:	71 f0       	breq	.+28     	; 0x3b46 <_ZN5Menue5setupEv+0xec>
    3b2a:	80 38       	cpi	r24, 0x80	; 128
    3b2c:	91 05       	cpc	r25, r1
    3b2e:	a9 f0       	breq	.+42     	; 0x3b5a <_ZN5Menue5setupEv+0x100>
    3b30:	80 97       	sbiw	r24, 0x20	; 32
    3b32:	a9 f0       	breq	.+42     	; 0x3b5e <_ZN5Menue5setupEv+0x104>
                goto rep1;
            case FORW:
                voltageScreen();
                goto rep1;
            default:
                break;
    3b34:	10 c0       	rjmp	.+32     	; 0x3b56 <_ZN5Menue5setupEv+0xfc>
            case ENT:
                return;
            case ESC:
                return;
            case BACK:
                setupDmx();
    3b36:	8a 81       	ldd	r24, Y+2	; 0x02
    3b38:	9b 81       	ldd	r25, Y+3	; 0x03
    3b3a:	18 d0       	rcall	.+48     	; 0x3b6c <_ZN5Menue8setupDmxEv>
                goto rep1;
    3b3c:	96 cf       	rjmp	.-212    	; 0x3a6a <_ZN5Menue5setupEv+0x10>
            case UP:
                setupCurve();
    3b3e:	8a 81       	ldd	r24, Y+2	; 0x02
    3b40:	9b 81       	ldd	r25, Y+3	; 0x03
    3b42:	82 d0       	rcall	.+260    	; 0x3c48 <_ZN5Menue10setupCurveEv>
                goto rep1;
    3b44:	92 cf       	rjmp	.-220    	; 0x3a6a <_ZN5Menue5setupEv+0x10>
			case DOWN:
                debugWin();
    3b46:	8a 81       	ldd	r24, Y+2	; 0x02
    3b48:	9b 81       	ldd	r25, Y+3	; 0x03
    3b4a:	7a d4       	rcall	.+2292   	; 0x4440 <_ZN5Menue8debugWinEv>
                goto rep1;
    3b4c:	8e cf       	rjmp	.-228    	; 0x3a6a <_ZN5Menue5setupEv+0x10>
            case FORW:
                voltageScreen();
    3b4e:	8a 81       	ldd	r24, Y+2	; 0x02
    3b50:	9b 81       	ldd	r25, Y+3	; 0x03
    3b52:	bf d1       	rcall	.+894    	; 0x3ed2 <_ZN5Menue13voltageScreenEv>
                goto rep1;
    3b54:	8a cf       	rjmp	.-236    	; 0x3a6a <_ZN5Menue5setupEv+0x10>
            default:
                break;
        }
        wdt_reset();
    3b56:	a8 95       	wdr
    }
    3b58:	d1 cf       	rjmp	.-94     	; 0x3afc <_ZN5Menue5setupEv+0xa2>
    printfLcd(3, 0, "Dmx   Curv  Diag");
    wdt_reset();
    for (;;) {
        switch (key=getch()) {
            case ENT:
                return;
    3b5a:	00 00       	nop
    3b5c:	01 c0       	rjmp	.+2      	; 0x3b60 <_ZN5Menue5setupEv+0x106>
            case ESC:
                return;
    3b5e:	00 00       	nop
            default:
                break;
        }
        wdt_reset();
    }
}
    3b60:	0f 90       	pop	r0
    3b62:	0f 90       	pop	r0
    3b64:	0f 90       	pop	r0
    3b66:	df 91       	pop	r29
    3b68:	cf 91       	pop	r28
    3b6a:	08 95       	ret

00003b6c <_ZN5Menue8setupDmxEv>:

void Menue::setupDmx()
{
    3b6c:	ef 92       	push	r14
    3b6e:	ff 92       	push	r15
    3b70:	0f 93       	push	r16
    3b72:	1f 93       	push	r17
    3b74:	cf 93       	push	r28
    3b76:	df 93       	push	r29
    3b78:	00 d0       	rcall	.+0      	; 0x3b7a <_ZN5Menue8setupDmxEv+0xe>
    3b7a:	00 d0       	rcall	.+0      	; 0x3b7c <_ZN5Menue8setupDmxEv+0x10>
    3b7c:	cd b7       	in	r28, 0x3d	; 61
    3b7e:	de b7       	in	r29, 0x3e	; 62
    3b80:	9c 83       	std	Y+4, r25	; 0x04
    3b82:	8b 83       	std	Y+3, r24	; 0x03
    unsigned int val;
    Lcd::lcd.clear();
    3b84:	8e e9       	ldi	r24, 0x9E	; 158
    3b86:	91 e0       	ldi	r25, 0x01	; 1
    3b88:	0e 94 5d 15 	call	0x2aba	; 0x2aba <_ZN3Lcd5clearEv>
    printfLcd(0, 0, " Configure      ");
    3b8c:	8f ee       	ldi	r24, 0xEF	; 239
    3b8e:	9a e0       	ldi	r25, 0x0A	; 10
    3b90:	29 2f       	mov	r18, r25
    3b92:	2f 93       	push	r18
    3b94:	8f 93       	push	r24
    3b96:	1f 92       	push	r1
    3b98:	1f 92       	push	r1
    3b9a:	8e e9       	ldi	r24, 0x9E	; 158
    3b9c:	91 e0       	ldi	r25, 0x01	; 1
    3b9e:	89 2f       	mov	r24, r25
    3ba0:	8f 93       	push	r24
    3ba2:	8e e9       	ldi	r24, 0x9E	; 158
    3ba4:	91 e0       	ldi	r25, 0x01	; 1
    3ba6:	8f 93       	push	r24
    3ba8:	0e 94 3f 15 	call	0x2a7e	; 0x2a7e <_ZN3Lcd5printEhhPKcz>
    3bac:	0f 90       	pop	r0
    3bae:	0f 90       	pop	r0
    3bb0:	0f 90       	pop	r0
    3bb2:	0f 90       	pop	r0
    3bb4:	0f 90       	pop	r0
    3bb6:	0f 90       	pop	r0
    printfLcd(1, 0, "    DMX address ");
    3bb8:	80 e0       	ldi	r24, 0x00	; 0
    3bba:	9b e0       	ldi	r25, 0x0B	; 11
    3bbc:	29 2f       	mov	r18, r25
    3bbe:	2f 93       	push	r18
    3bc0:	8f 93       	push	r24
    3bc2:	1f 92       	push	r1
    3bc4:	81 e0       	ldi	r24, 0x01	; 1
    3bc6:	8f 93       	push	r24
    3bc8:	8e e9       	ldi	r24, 0x9E	; 158
    3bca:	91 e0       	ldi	r25, 0x01	; 1
    3bcc:	89 2f       	mov	r24, r25
    3bce:	8f 93       	push	r24
    3bd0:	8e e9       	ldi	r24, 0x9E	; 158
    3bd2:	91 e0       	ldi	r25, 0x01	; 1
    3bd4:	8f 93       	push	r24
    3bd6:	0e 94 3f 15 	call	0x2a7e	; 0x2a7e <_ZN3Lcd5printEhhPKcz>
    3bda:	0f 90       	pop	r0
    3bdc:	0f 90       	pop	r0
    3bde:	0f 90       	pop	r0
    3be0:	0f 90       	pop	r0
    3be2:	0f 90       	pop	r0
    3be4:	0f 90       	pop	r0
    wdt_reset();
    3be6:	a8 95       	wdr
    if ((val = doEdit(Nvr::setup.dmxAddr, 7,3,512-NUMCHAN,1)) \
    3be8:	8b 81       	ldd	r24, Y+3	; 0x03
    3bea:	9c 81       	ldd	r25, Y+4	; 0x04
    3bec:	ee 24       	eor	r14, r14
    3bee:	e3 94       	inc	r14
    3bf0:	f1 2c       	mov	r15, r1
    3bf2:	08 ee       	ldi	r16, 0xE8	; 232
    3bf4:	11 e0       	ldi	r17, 0x01	; 1
    3bf6:	23 e0       	ldi	r18, 0x03	; 3
    3bf8:	47 e0       	ldi	r20, 0x07	; 7
    3bfa:	65 ec       	ldi	r22, 0xC5	; 197
    3bfc:	71 e0       	ldi	r23, 0x01	; 1
    3bfe:	d1 d6       	rcall	.+3490   	; 0x49a2 <_ZN5Menue6doEditERjhhjj>
    3c00:	9a 83       	std	Y+2, r25	; 0x02
    3c02:	89 83       	std	Y+1, r24	; 0x01
             != Nvr::setup.dmxAddr) {
    3c04:	80 91 c5 01 	lds	r24, 0x01C5
    3c08:	90 91 c6 01 	lds	r25, 0x01C6
    unsigned int val;
    Lcd::lcd.clear();
    printfLcd(0, 0, " Configure      ");
    printfLcd(1, 0, "    DMX address ");
    wdt_reset();
    if ((val = doEdit(Nvr::setup.dmxAddr, 7,3,512-NUMCHAN,1)) \
    3c0c:	41 e0       	ldi	r20, 0x01	; 1
    3c0e:	29 81       	ldd	r18, Y+1	; 0x01
    3c10:	3a 81       	ldd	r19, Y+2	; 0x02
    3c12:	28 17       	cp	r18, r24
    3c14:	39 07       	cpc	r19, r25
    3c16:	09 f4       	brne	.+2      	; 0x3c1a <_ZN5Menue8setupDmxEv+0xae>
    3c18:	40 e0       	ldi	r20, 0x00	; 0
    3c1a:	44 23       	and	r20, r20
    3c1c:	51 f0       	breq	.+20     	; 0x3c32 <_ZN5Menue8setupDmxEv+0xc6>
             != Nvr::setup.dmxAddr) {
        Nvr::setup.dmxAddr = val;
    3c1e:	89 81       	ldd	r24, Y+1	; 0x01
    3c20:	9a 81       	ldd	r25, Y+2	; 0x02
    3c22:	90 93 c6 01 	sts	0x01C6, r25
    3c26:	80 93 c5 01 	sts	0x01C5, r24
        Nvr::nvr.writeSetup();
    3c2a:	88 ea       	ldi	r24, 0xA8	; 168
    3c2c:	91 e0       	ldi	r25, 0x01	; 1
    3c2e:	0e 94 37 29 	call	0x526e	; 0x526e <_ZN3Nvr10writeSetupEv>
    }
}
    3c32:	0f 90       	pop	r0
    3c34:	0f 90       	pop	r0
    3c36:	0f 90       	pop	r0
    3c38:	0f 90       	pop	r0
    3c3a:	df 91       	pop	r29
    3c3c:	cf 91       	pop	r28
    3c3e:	1f 91       	pop	r17
    3c40:	0f 91       	pop	r16
    3c42:	ff 90       	pop	r15
    3c44:	ef 90       	pop	r14
    3c46:	08 95       	ret

00003c48 <_ZN5Menue10setupCurveEv>:

void Menue::setupCurve()
{
    3c48:	cf 93       	push	r28
    3c4a:	df 93       	push	r29
    3c4c:	cd b7       	in	r28, 0x3d	; 61
    3c4e:	de b7       	in	r29, 0x3e	; 62
    3c50:	27 97       	sbiw	r28, 0x07	; 7
    3c52:	0f b6       	in	r0, 0x3f	; 63
    3c54:	f8 94       	cli
    3c56:	de bf       	out	0x3e, r29	; 62
    3c58:	0f be       	out	0x3f, r0	; 63
    3c5a:	cd bf       	out	0x3d, r28	; 61
    3c5c:	9f 83       	std	Y+7, r25	; 0x07
    3c5e:	8e 83       	std	Y+6, r24	; 0x06
    unsigned char rr, c, page, x;
    unsigned char key;
    page = 0;
    3c60:	1a 82       	std	Y+2, r1	; 0x02
    Lcd::lcd.clear();
    3c62:	8e e9       	ldi	r24, 0x9E	; 158
    3c64:	91 e0       	ldi	r25, 0x01	; 1
    3c66:	0e 94 5d 15 	call	0x2aba	; 0x2aba <_ZN3Lcd5clearEv>
    printfLcd(0, 0, "  Output curve  ");
    3c6a:	81 e1       	ldi	r24, 0x11	; 17
    3c6c:	9b e0       	ldi	r25, 0x0B	; 11
    3c6e:	29 2f       	mov	r18, r25
    3c70:	2f 93       	push	r18
    3c72:	8f 93       	push	r24
    3c74:	1f 92       	push	r1
    3c76:	1f 92       	push	r1
    3c78:	8e e9       	ldi	r24, 0x9E	; 158
    3c7a:	91 e0       	ldi	r25, 0x01	; 1
    3c7c:	89 2f       	mov	r24, r25
    3c7e:	8f 93       	push	r24
    3c80:	8e e9       	ldi	r24, 0x9E	; 158
    3c82:	91 e0       	ldi	r25, 0x01	; 1
    3c84:	8f 93       	push	r24
    3c86:	0e 94 3f 15 	call	0x2a7e	; 0x2a7e <_ZN3Lcd5printEhhPKcz>
    3c8a:	0f 90       	pop	r0
    3c8c:	0f 90       	pop	r0
    3c8e:	0f 90       	pop	r0
    3c90:	0f 90       	pop	r0
    3c92:	0f 90       	pop	r0
    3c94:	0f 90       	pop	r0
    printfLcd(1, 0, "      type      ");
    3c96:	82 e2       	ldi	r24, 0x22	; 34
    3c98:	9b e0       	ldi	r25, 0x0B	; 11
    3c9a:	29 2f       	mov	r18, r25
    3c9c:	2f 93       	push	r18
    3c9e:	8f 93       	push	r24
    3ca0:	1f 92       	push	r1
    3ca2:	81 e0       	ldi	r24, 0x01	; 1
    3ca4:	8f 93       	push	r24
    3ca6:	8e e9       	ldi	r24, 0x9E	; 158
    3ca8:	91 e0       	ldi	r25, 0x01	; 1
    3caa:	89 2f       	mov	r24, r25
    3cac:	8f 93       	push	r24
    3cae:	8e e9       	ldi	r24, 0x9E	; 158
    3cb0:	91 e0       	ldi	r25, 0x01	; 1
    3cb2:	8f 93       	push	r24
    3cb4:	0e 94 3f 15 	call	0x2a7e	; 0x2a7e <_ZN3Lcd5printEhhPKcz>
    3cb8:	0f 90       	pop	r0
    3cba:	0f 90       	pop	r0
    3cbc:	0f 90       	pop	r0
    3cbe:	0f 90       	pop	r0
    3cc0:	0f 90       	pop	r0
    3cc2:	0f 90       	pop	r0
  rdsp:
    wdt_reset();
    3cc4:	a8 95       	wdr
    for (rr = 0; rr < 4; rr++) {
    3cc6:	19 82       	std	Y+1, r1	; 0x01
    3cc8:	8e c0       	rjmp	.+284    	; 0x3de6 <_ZN5Menue10setupCurveEv+0x19e>
        x = rr * 4;
    3cca:	89 81       	ldd	r24, Y+1	; 0x01
    3ccc:	88 0f       	add	r24, r24
    3cce:	88 0f       	add	r24, r24
    3cd0:	8b 83       	std	Y+3, r24	; 0x03
        c = Nvr::setup.outFunc[rr + (page / 4) * 4];
    3cd2:	89 81       	ldd	r24, Y+1	; 0x01
    3cd4:	28 2f       	mov	r18, r24
    3cd6:	30 e0       	ldi	r19, 0x00	; 0
    3cd8:	8a 81       	ldd	r24, Y+2	; 0x02
    3cda:	86 95       	lsr	r24
    3cdc:	86 95       	lsr	r24
    3cde:	88 2f       	mov	r24, r24
    3ce0:	90 e0       	ldi	r25, 0x00	; 0
    3ce2:	88 0f       	add	r24, r24
    3ce4:	99 1f       	adc	r25, r25
    3ce6:	88 0f       	add	r24, r24
    3ce8:	99 1f       	adc	r25, r25
    3cea:	82 0f       	add	r24, r18
    3cec:	93 1f       	adc	r25, r19
    3cee:	81 52       	subi	r24, 0x21	; 33
    3cf0:	9e 4f       	sbci	r25, 0xFE	; 254
    3cf2:	fc 01       	movw	r30, r24
    3cf4:	80 81       	ld	r24, Z
    3cf6:	8c 83       	std	Y+4, r24	; 0x04
        Lcd::lcd.goTo(2, x);
    3cf8:	4b 81       	ldd	r20, Y+3	; 0x03
    3cfa:	62 e0       	ldi	r22, 0x02	; 2
    3cfc:	8e e9       	ldi	r24, 0x9E	; 158
    3cfe:	91 e0       	ldi	r25, 0x01	; 1
    3d00:	0e 94 04 15 	call	0x2a08	; 0x2a08 <_ZN3Lcd4goToEhh>
        if ((page % 4) == rr)
    3d04:	8a 81       	ldd	r24, Y+2	; 0x02
    3d06:	88 2f       	mov	r24, r24
    3d08:	90 e0       	ldi	r25, 0x00	; 0
    3d0a:	9c 01       	movw	r18, r24
    3d0c:	23 70       	andi	r18, 0x03	; 3
    3d0e:	33 27       	eor	r19, r19
    3d10:	89 81       	ldd	r24, Y+1	; 0x01
    3d12:	88 2f       	mov	r24, r24
    3d14:	90 e0       	ldi	r25, 0x00	; 0
    3d16:	28 17       	cp	r18, r24
    3d18:	39 07       	cpc	r19, r25
    3d1a:	01 f5       	brne	.+64     	; 0x3d5c <_ZN5Menue10setupCurveEv+0x114>
            printfL(">%02d<", rr + 1 + (page / 4) * 4);
    3d1c:	89 81       	ldd	r24, Y+1	; 0x01
    3d1e:	88 2f       	mov	r24, r24
    3d20:	90 e0       	ldi	r25, 0x00	; 0
    3d22:	9c 01       	movw	r18, r24
    3d24:	2f 5f       	subi	r18, 0xFF	; 255
    3d26:	3f 4f       	sbci	r19, 0xFF	; 255
    3d28:	8a 81       	ldd	r24, Y+2	; 0x02
    3d2a:	86 95       	lsr	r24
    3d2c:	86 95       	lsr	r24
    3d2e:	88 2f       	mov	r24, r24
    3d30:	90 e0       	ldi	r25, 0x00	; 0
    3d32:	88 0f       	add	r24, r24
    3d34:	99 1f       	adc	r25, r25
    3d36:	88 0f       	add	r24, r24
    3d38:	99 1f       	adc	r25, r25
    3d3a:	28 0f       	add	r18, r24
    3d3c:	39 1f       	adc	r19, r25
    3d3e:	83 e3       	ldi	r24, 0x33	; 51
    3d40:	9b e0       	ldi	r25, 0x0B	; 11
    3d42:	43 2f       	mov	r20, r19
    3d44:	4f 93       	push	r20
    3d46:	2f 93       	push	r18
    3d48:	29 2f       	mov	r18, r25
    3d4a:	2f 93       	push	r18
    3d4c:	8f 93       	push	r24
    3d4e:	0e 94 bf 33 	call	0x677e	; 0x677e <printf_P>
    3d52:	0f 90       	pop	r0
    3d54:	0f 90       	pop	r0
    3d56:	0f 90       	pop	r0
    3d58:	0f 90       	pop	r0
    3d5a:	1f c0       	rjmp	.+62     	; 0x3d9a <_ZN5Menue10setupCurveEv+0x152>
        else
            printfL(" %02d ", rr + 1 + (page / 4) * 4);
    3d5c:	89 81       	ldd	r24, Y+1	; 0x01
    3d5e:	88 2f       	mov	r24, r24
    3d60:	90 e0       	ldi	r25, 0x00	; 0
    3d62:	9c 01       	movw	r18, r24
    3d64:	2f 5f       	subi	r18, 0xFF	; 255
    3d66:	3f 4f       	sbci	r19, 0xFF	; 255
    3d68:	8a 81       	ldd	r24, Y+2	; 0x02
    3d6a:	86 95       	lsr	r24
    3d6c:	86 95       	lsr	r24
    3d6e:	88 2f       	mov	r24, r24
    3d70:	90 e0       	ldi	r25, 0x00	; 0
    3d72:	88 0f       	add	r24, r24
    3d74:	99 1f       	adc	r25, r25
    3d76:	88 0f       	add	r24, r24
    3d78:	99 1f       	adc	r25, r25
    3d7a:	28 0f       	add	r18, r24
    3d7c:	39 1f       	adc	r19, r25
    3d7e:	8a e3       	ldi	r24, 0x3A	; 58
    3d80:	9b e0       	ldi	r25, 0x0B	; 11
    3d82:	43 2f       	mov	r20, r19
    3d84:	4f 93       	push	r20
    3d86:	2f 93       	push	r18
    3d88:	29 2f       	mov	r18, r25
    3d8a:	2f 93       	push	r18
    3d8c:	8f 93       	push	r24
    3d8e:	0e 94 bf 33 	call	0x677e	; 0x677e <printf_P>
    3d92:	0f 90       	pop	r0
    3d94:	0f 90       	pop	r0
    3d96:	0f 90       	pop	r0
    3d98:	0f 90       	pop	r0
        printfLcd(3, x, " %1d ", c + 1);
    3d9a:	8c 81       	ldd	r24, Y+4	; 0x04
    3d9c:	88 2f       	mov	r24, r24
    3d9e:	90 e0       	ldi	r25, 0x00	; 0
    3da0:	9c 01       	movw	r18, r24
    3da2:	2f 5f       	subi	r18, 0xFF	; 255
    3da4:	3f 4f       	sbci	r19, 0xFF	; 255
    3da6:	81 e4       	ldi	r24, 0x41	; 65
    3da8:	9b e0       	ldi	r25, 0x0B	; 11
    3daa:	43 2f       	mov	r20, r19
    3dac:	4f 93       	push	r20
    3dae:	2f 93       	push	r18
    3db0:	29 2f       	mov	r18, r25
    3db2:	2f 93       	push	r18
    3db4:	8f 93       	push	r24
    3db6:	8b 81       	ldd	r24, Y+3	; 0x03
    3db8:	8f 93       	push	r24
    3dba:	83 e0       	ldi	r24, 0x03	; 3
    3dbc:	8f 93       	push	r24
    3dbe:	8e e9       	ldi	r24, 0x9E	; 158
    3dc0:	91 e0       	ldi	r25, 0x01	; 1
    3dc2:	89 2f       	mov	r24, r25
    3dc4:	8f 93       	push	r24
    3dc6:	8e e9       	ldi	r24, 0x9E	; 158
    3dc8:	91 e0       	ldi	r25, 0x01	; 1
    3dca:	8f 93       	push	r24
    3dcc:	0e 94 3f 15 	call	0x2a7e	; 0x2a7e <_ZN3Lcd5printEhhPKcz>
    3dd0:	8d b7       	in	r24, 0x3d	; 61
    3dd2:	9e b7       	in	r25, 0x3e	; 62
    3dd4:	08 96       	adiw	r24, 0x08	; 8
    3dd6:	0f b6       	in	r0, 0x3f	; 63
    3dd8:	f8 94       	cli
    3dda:	de bf       	out	0x3e, r29	; 62
    3ddc:	0f be       	out	0x3f, r0	; 63
    3dde:	cd bf       	out	0x3d, r28	; 61
    Lcd::lcd.clear();
    printfLcd(0, 0, "  Output curve  ");
    printfLcd(1, 0, "      type      ");
  rdsp:
    wdt_reset();
    for (rr = 0; rr < 4; rr++) {
    3de0:	89 81       	ldd	r24, Y+1	; 0x01
    3de2:	8f 5f       	subi	r24, 0xFF	; 255
    3de4:	89 83       	std	Y+1, r24	; 0x01
    3de6:	89 81       	ldd	r24, Y+1	; 0x01
    3de8:	84 30       	cpi	r24, 0x04	; 4
    3dea:	08 f4       	brcc	.+2      	; 0x3dee <_ZN5Menue10setupCurveEv+0x1a6>
    3dec:	6e cf       	rjmp	.-292    	; 0x3cca <_ZN5Menue10setupCurveEv+0x82>
            printfL(">%02d<", rr + 1 + (page / 4) * 4);
        else
            printfL(" %02d ", rr + 1 + (page / 4) * 4);
        printfLcd(3, x, " %1d ", c + 1);
    }
    x = (page % 4) * 4 + 3;
    3dee:	8a 81       	ldd	r24, Y+2	; 0x02
    3df0:	83 70       	andi	r24, 0x03	; 3
    3df2:	88 0f       	add	r24, r24
    3df4:	88 0f       	add	r24, r24
    3df6:	8d 5f       	subi	r24, 0xFD	; 253
    3df8:	8b 83       	std	Y+3, r24	; 0x03
    Lcd::lcd.goTo(3, x);
    3dfa:	4b 81       	ldd	r20, Y+3	; 0x03
    3dfc:	63 e0       	ldi	r22, 0x03	; 3
    3dfe:	8e e9       	ldi	r24, 0x9E	; 158
    3e00:	91 e0       	ldi	r25, 0x01	; 1
    3e02:	0e 94 04 15 	call	0x2a08	; 0x2a08 <_ZN3Lcd4goToEhh>
    wdt_reset();
    3e06:	a8 95       	wdr
    switch (key=getch()) {
    3e08:	8e 81       	ldd	r24, Y+6	; 0x06
    3e0a:	9f 81       	ldd	r25, Y+7	; 0x07
    3e0c:	0e 94 11 28 	call	0x5022	; 0x5022 <_ZN5Menue5getchEv>
    3e10:	8d 83       	std	Y+5, r24	; 0x05
    3e12:	8d 81       	ldd	r24, Y+5	; 0x05
    3e14:	88 2f       	mov	r24, r24
    3e16:	90 e0       	ldi	r25, 0x00	; 0
    3e18:	80 31       	cpi	r24, 0x10	; 16
    3e1a:	91 05       	cpc	r25, r1
    3e1c:	b9 f0       	breq	.+46     	; 0x3e4c <_ZN5Menue10setupCurveEv+0x204>
    3e1e:	81 31       	cpi	r24, 0x11	; 17
    3e20:	91 05       	cpc	r25, r1
    3e22:	34 f4       	brge	.+12     	; 0x3e30 <_ZN5Menue10setupCurveEv+0x1e8>
    3e24:	84 30       	cpi	r24, 0x04	; 4
    3e26:	91 05       	cpc	r25, r1
    3e28:	51 f0       	breq	.+20     	; 0x3e3e <_ZN5Menue10setupCurveEv+0x1f6>
    3e2a:	08 97       	sbiw	r24, 0x08	; 8
    3e2c:	b1 f0       	breq	.+44     	; 0x3e5a <_ZN5Menue10setupCurveEv+0x212>
    3e2e:	48 c0       	rjmp	.+144    	; 0x3ec0 <_ZN5Menue10setupCurveEv+0x278>
    3e30:	80 34       	cpi	r24, 0x40	; 64
    3e32:	91 05       	cpc	r25, r1
    3e34:	49 f1       	breq	.+82     	; 0x3e88 <_ZN5Menue10setupCurveEv+0x240>
    3e36:	80 38       	cpi	r24, 0x80	; 128
    3e38:	91 05       	cpc	r25, r1
    3e3a:	e9 f1       	breq	.+122    	; 0x3eb6 <_ZN5Menue10setupCurveEv+0x26e>
            goto rdsp;
        case ENT:
            Nvr::nvr.writeSetup();
            break;
        case ESC:
            break;
    3e3c:	41 c0       	rjmp	.+130    	; 0x3ec0 <_ZN5Menue10setupCurveEv+0x278>
    x = (page % 4) * 4 + 3;
    Lcd::lcd.goTo(3, x);
    wdt_reset();
    switch (key=getch()) {
        case BACK:
            if (page)
    3e3e:	8a 81       	ldd	r24, Y+2	; 0x02
    3e40:	88 23       	and	r24, r24
    3e42:	19 f0       	breq	.+6      	; 0x3e4a <_ZN5Menue10setupCurveEv+0x202>
                page--;
    3e44:	8a 81       	ldd	r24, Y+2	; 0x02
    3e46:	81 50       	subi	r24, 0x01	; 1
    3e48:	8a 83       	std	Y+2, r24	; 0x02
            goto rdsp;
    3e4a:	3c cf       	rjmp	.-392    	; 0x3cc4 <_ZN5Menue10setupCurveEv+0x7c>
        case FORW:
            if (page < (NUMCHAN - 1))
    3e4c:	8a 81       	ldd	r24, Y+2	; 0x02
    3e4e:	87 31       	cpi	r24, 0x17	; 23
    3e50:	18 f4       	brcc	.+6      	; 0x3e58 <_ZN5Menue10setupCurveEv+0x210>
                page++;
    3e52:	8a 81       	ldd	r24, Y+2	; 0x02
    3e54:	8f 5f       	subi	r24, 0xFF	; 255
    3e56:	8a 83       	std	Y+2, r24	; 0x02
            goto rdsp;
    3e58:	35 cf       	rjmp	.-406    	; 0x3cc4 <_ZN5Menue10setupCurveEv+0x7c>
        case UP:
            if (Nvr::setup.outFunc[page] < (MAXCURVE - 1))
    3e5a:	8a 81       	ldd	r24, Y+2	; 0x02
    3e5c:	88 2f       	mov	r24, r24
    3e5e:	90 e0       	ldi	r25, 0x00	; 0
    3e60:	81 52       	subi	r24, 0x21	; 33
    3e62:	9e 4f       	sbci	r25, 0xFE	; 254
    3e64:	fc 01       	movw	r30, r24
    3e66:	80 81       	ld	r24, Z
    3e68:	84 30       	cpi	r24, 0x04	; 4
    3e6a:	68 f4       	brcc	.+26     	; 0x3e86 <_ZN5Menue10setupCurveEv+0x23e>
                Nvr::setup.outFunc[page]++;
    3e6c:	8a 81       	ldd	r24, Y+2	; 0x02
    3e6e:	88 2f       	mov	r24, r24
    3e70:	90 e0       	ldi	r25, 0x00	; 0
    3e72:	9c 01       	movw	r18, r24
    3e74:	21 52       	subi	r18, 0x21	; 33
    3e76:	3e 4f       	sbci	r19, 0xFE	; 254
    3e78:	f9 01       	movw	r30, r18
    3e7a:	20 81       	ld	r18, Z
    3e7c:	2f 5f       	subi	r18, 0xFF	; 255
    3e7e:	81 52       	subi	r24, 0x21	; 33
    3e80:	9e 4f       	sbci	r25, 0xFE	; 254
    3e82:	fc 01       	movw	r30, r24
    3e84:	20 83       	st	Z, r18
            goto rdsp;
    3e86:	1e cf       	rjmp	.-452    	; 0x3cc4 <_ZN5Menue10setupCurveEv+0x7c>
        case DOWN:
            if (Nvr::setup.outFunc[page])
    3e88:	8a 81       	ldd	r24, Y+2	; 0x02
    3e8a:	88 2f       	mov	r24, r24
    3e8c:	90 e0       	ldi	r25, 0x00	; 0
    3e8e:	81 52       	subi	r24, 0x21	; 33
    3e90:	9e 4f       	sbci	r25, 0xFE	; 254
    3e92:	fc 01       	movw	r30, r24
    3e94:	80 81       	ld	r24, Z
    3e96:	88 23       	and	r24, r24
    3e98:	69 f0       	breq	.+26     	; 0x3eb4 <_ZN5Menue10setupCurveEv+0x26c>
                Nvr::setup.outFunc[page]--;
    3e9a:	8a 81       	ldd	r24, Y+2	; 0x02
    3e9c:	88 2f       	mov	r24, r24
    3e9e:	90 e0       	ldi	r25, 0x00	; 0
    3ea0:	9c 01       	movw	r18, r24
    3ea2:	21 52       	subi	r18, 0x21	; 33
    3ea4:	3e 4f       	sbci	r19, 0xFE	; 254
    3ea6:	f9 01       	movw	r30, r18
    3ea8:	20 81       	ld	r18, Z
    3eaa:	21 50       	subi	r18, 0x01	; 1
    3eac:	81 52       	subi	r24, 0x21	; 33
    3eae:	9e 4f       	sbci	r25, 0xFE	; 254
    3eb0:	fc 01       	movw	r30, r24
    3eb2:	20 83       	st	Z, r18
            goto rdsp;
    3eb4:	07 cf       	rjmp	.-498    	; 0x3cc4 <_ZN5Menue10setupCurveEv+0x7c>
        case ENT:
            Nvr::nvr.writeSetup();
    3eb6:	88 ea       	ldi	r24, 0xA8	; 168
    3eb8:	91 e0       	ldi	r25, 0x01	; 1
    3eba:	0e 94 37 29 	call	0x526e	; 0x526e <_ZN3Nvr10writeSetupEv>
            break;
    3ebe:	00 00       	nop
            break;
// 		default:
// 		    goto rdsp;
// 		
    }
}
    3ec0:	27 96       	adiw	r28, 0x07	; 7
    3ec2:	0f b6       	in	r0, 0x3f	; 63
    3ec4:	f8 94       	cli
    3ec6:	de bf       	out	0x3e, r29	; 62
    3ec8:	0f be       	out	0x3f, r0	; 63
    3eca:	cd bf       	out	0x3d, r28	; 61
    3ecc:	df 91       	pop	r29
    3ece:	cf 91       	pop	r28
    3ed0:	08 95       	ret

00003ed2 <_ZN5Menue13voltageScreenEv>:

/*!
    Diagnstic of voltage measuring
 */
void Menue::voltageScreen()
{
    3ed2:	cf 92       	push	r12
    3ed4:	df 92       	push	r13
    3ed6:	ef 92       	push	r14
    3ed8:	ff 92       	push	r15
    3eda:	0f 93       	push	r16
    3edc:	1f 93       	push	r17
    3ede:	cf 93       	push	r28
    3ee0:	df 93       	push	r29
    3ee2:	cd b7       	in	r28, 0x3d	; 61
    3ee4:	de b7       	in	r29, 0x3e	; 62
    3ee6:	62 97       	sbiw	r28, 0x12	; 18
    3ee8:	0f b6       	in	r0, 0x3f	; 63
    3eea:	f8 94       	cli
    3eec:	de bf       	out	0x3e, r29	; 62
    3eee:	0f be       	out	0x3f, r0	; 63
    3ef0:	cd bf       	out	0x3d, r28	; 61
    3ef2:	9e 83       	std	Y+6, r25	; 0x06
    3ef4:	8d 83       	std	Y+5, r24	; 0x05
    int key;
    unsigned char term = 0, state = 0;
    3ef6:	19 82       	std	Y+1, r1	; 0x01
    3ef8:	1a 82       	std	Y+2, r1	; 0x02
    Lcd::lcd.clear();
    3efa:	8e e9       	ldi	r24, 0x9E	; 158
    3efc:	91 e0       	ldi	r25, 0x01	; 1
    3efe:	0e 94 5d 15 	call	0x2aba	; 0x2aba <_ZN3Lcd5clearEv>
		tick = -1;
    3f02:	8f ef       	ldi	r24, 0xFF	; 255
    3f04:	9f ef       	ldi	r25, 0xFF	; 255
    3f06:	90 93 09 01 	sts	0x0109, r25
    3f0a:	80 93 08 01 	sts	0x0108, r24
    do {
		if(tick<0){ //reduce voltage screen refresh for better readability
    3f0e:	80 91 08 01 	lds	r24, 0x0108
    3f12:	90 91 09 01 	lds	r25, 0x0109
    3f16:	99 23       	and	r25, r25
    3f18:	0c f0       	brlt	.+2      	; 0x3f1c <_ZN5Menue13voltageScreenEv+0x4a>
    3f1a:	dc c0       	rjmp	.+440    	; 0x40d4 <_ZN5Menue13voltageScreenEv+0x202>
	        printfLcd(0, 0, "  Live voltage  ");
    3f1c:	87 e4       	ldi	r24, 0x47	; 71
    3f1e:	9b e0       	ldi	r25, 0x0B	; 11
    3f20:	29 2f       	mov	r18, r25
    3f22:	2f 93       	push	r18
    3f24:	8f 93       	push	r24
    3f26:	1f 92       	push	r1
    3f28:	1f 92       	push	r1
    3f2a:	8e e9       	ldi	r24, 0x9E	; 158
    3f2c:	91 e0       	ldi	r25, 0x01	; 1
    3f2e:	89 2f       	mov	r24, r25
    3f30:	8f 93       	push	r24
    3f32:	8e e9       	ldi	r24, 0x9E	; 158
    3f34:	91 e0       	ldi	r25, 0x01	; 1
    3f36:	8f 93       	push	r24
    3f38:	0e 94 3f 15 	call	0x2a7e	; 0x2a7e <_ZN3Lcd5printEhhPKcz>
    3f3c:	0f 90       	pop	r0
    3f3e:	0f 90       	pop	r0
    3f40:	0f 90       	pop	r0
    3f42:	0f 90       	pop	r0
    3f44:	0f 90       	pop	r0
    3f46:	0f 90       	pop	r0
	        printfLcd(1, 5, "L1=%3dV",(unsigned) ((unsigned long) Nvr::setup.vref[0]
    3f48:	80 91 c7 01 	lds	r24, 0x01C7
    3f4c:	90 91 c8 01 	lds	r25, 0x01C8
    3f50:	6c 01       	movw	r12, r24
    3f52:	e1 2c       	mov	r14, r1
    3f54:	f1 2c       	mov	r15, r1
    3f56:	80 e0       	ldi	r24, 0x00	; 0
    3f58:	0e 94 99 15 	call	0x2b32	; 0x2b32 <_ZN3Adc6getRmsEh>
    3f5c:	cc 01       	movw	r24, r24
    3f5e:	a0 e0       	ldi	r26, 0x00	; 0
    3f60:	b0 e0       	ldi	r27, 0x00	; 0
    3f62:	a7 01       	movw	r20, r14
    3f64:	96 01       	movw	r18, r12
    3f66:	bc 01       	movw	r22, r24
    3f68:	cd 01       	movw	r24, r26
    3f6a:	0e 94 ad 32 	call	0x655a	; 0x655a <__mulsi3>
    3f6e:	7b 01       	movw	r14, r22
    3f70:	8c 01       	movw	r16, r24
    3f72:	80 91 cd 01 	lds	r24, 0x01CD
    3f76:	90 91 ce 01 	lds	r25, 0x01CE
    3f7a:	9c 01       	movw	r18, r24
    3f7c:	40 e0       	ldi	r20, 0x00	; 0
    3f7e:	50 e0       	ldi	r21, 0x00	; 0
    3f80:	c8 01       	movw	r24, r16
    3f82:	b7 01       	movw	r22, r14
    3f84:	0e 94 cf 32 	call	0x659e	; 0x659e <__udivmodsi4>
    3f88:	da 01       	movw	r26, r20
    3f8a:	c9 01       	movw	r24, r18
    3f8c:	9c 01       	movw	r18, r24
    3f8e:	88 e5       	ldi	r24, 0x58	; 88
    3f90:	9b e0       	ldi	r25, 0x0B	; 11
	                                        * Adc::getRms(0) / Nvr::setup.ref[0]));
    3f92:	43 2f       	mov	r20, r19
    3f94:	4f 93       	push	r20
    3f96:	2f 93       	push	r18
    3f98:	29 2f       	mov	r18, r25
    3f9a:	2f 93       	push	r18
    3f9c:	8f 93       	push	r24
    3f9e:	85 e0       	ldi	r24, 0x05	; 5
    3fa0:	8f 93       	push	r24
    3fa2:	81 e0       	ldi	r24, 0x01	; 1
    3fa4:	8f 93       	push	r24
    3fa6:	8e e9       	ldi	r24, 0x9E	; 158
    3fa8:	91 e0       	ldi	r25, 0x01	; 1
    3faa:	89 2f       	mov	r24, r25
    3fac:	8f 93       	push	r24
    3fae:	8e e9       	ldi	r24, 0x9E	; 158
    3fb0:	91 e0       	ldi	r25, 0x01	; 1
    3fb2:	8f 93       	push	r24
    3fb4:	0e 94 3f 15 	call	0x2a7e	; 0x2a7e <_ZN3Lcd5printEhhPKcz>
    3fb8:	8d b7       	in	r24, 0x3d	; 61
    3fba:	9e b7       	in	r25, 0x3e	; 62
    3fbc:	08 96       	adiw	r24, 0x08	; 8
    3fbe:	0f b6       	in	r0, 0x3f	; 63
    3fc0:	f8 94       	cli
    3fc2:	de bf       	out	0x3e, r29	; 62
    3fc4:	0f be       	out	0x3f, r0	; 63
    3fc6:	cd bf       	out	0x3d, r28	; 61
	        printfLcd(2, 5, "L2=%3dV",(unsigned) ((unsigned long) Nvr::setup.vref[1]
    3fc8:	80 91 c9 01 	lds	r24, 0x01C9
    3fcc:	90 91 ca 01 	lds	r25, 0x01CA
    3fd0:	6c 01       	movw	r12, r24
    3fd2:	e1 2c       	mov	r14, r1
    3fd4:	f1 2c       	mov	r15, r1
    3fd6:	81 e0       	ldi	r24, 0x01	; 1
    3fd8:	0e 94 99 15 	call	0x2b32	; 0x2b32 <_ZN3Adc6getRmsEh>
    3fdc:	cc 01       	movw	r24, r24
    3fde:	a0 e0       	ldi	r26, 0x00	; 0
    3fe0:	b0 e0       	ldi	r27, 0x00	; 0
    3fe2:	a7 01       	movw	r20, r14
    3fe4:	96 01       	movw	r18, r12
    3fe6:	bc 01       	movw	r22, r24
    3fe8:	cd 01       	movw	r24, r26
    3fea:	0e 94 ad 32 	call	0x655a	; 0x655a <__mulsi3>
    3fee:	7b 01       	movw	r14, r22
    3ff0:	8c 01       	movw	r16, r24
    3ff2:	80 91 cf 01 	lds	r24, 0x01CF
    3ff6:	90 91 d0 01 	lds	r25, 0x01D0
    3ffa:	9c 01       	movw	r18, r24
    3ffc:	40 e0       	ldi	r20, 0x00	; 0
    3ffe:	50 e0       	ldi	r21, 0x00	; 0
    4000:	c8 01       	movw	r24, r16
    4002:	b7 01       	movw	r22, r14
    4004:	0e 94 cf 32 	call	0x659e	; 0x659e <__udivmodsi4>
    4008:	da 01       	movw	r26, r20
    400a:	c9 01       	movw	r24, r18
    400c:	9c 01       	movw	r18, r24
    400e:	80 e6       	ldi	r24, 0x60	; 96
    4010:	9b e0       	ldi	r25, 0x0B	; 11
	                                        * Adc::getRms(1) / Nvr::setup.ref[1]));
    4012:	43 2f       	mov	r20, r19
    4014:	4f 93       	push	r20
    4016:	2f 93       	push	r18
    4018:	29 2f       	mov	r18, r25
    401a:	2f 93       	push	r18
    401c:	8f 93       	push	r24
    401e:	85 e0       	ldi	r24, 0x05	; 5
    4020:	8f 93       	push	r24
    4022:	82 e0       	ldi	r24, 0x02	; 2
    4024:	8f 93       	push	r24
    4026:	8e e9       	ldi	r24, 0x9E	; 158
    4028:	91 e0       	ldi	r25, 0x01	; 1
    402a:	89 2f       	mov	r24, r25
    402c:	8f 93       	push	r24
    402e:	8e e9       	ldi	r24, 0x9E	; 158
    4030:	91 e0       	ldi	r25, 0x01	; 1
    4032:	8f 93       	push	r24
    4034:	0e 94 3f 15 	call	0x2a7e	; 0x2a7e <_ZN3Lcd5printEhhPKcz>
    4038:	8d b7       	in	r24, 0x3d	; 61
    403a:	9e b7       	in	r25, 0x3e	; 62
    403c:	08 96       	adiw	r24, 0x08	; 8
    403e:	0f b6       	in	r0, 0x3f	; 63
    4040:	f8 94       	cli
    4042:	de bf       	out	0x3e, r29	; 62
    4044:	0f be       	out	0x3f, r0	; 63
    4046:	cd bf       	out	0x3d, r28	; 61
	        printfLcd(3, 5, "L3=%3dV",(unsigned) ((unsigned long) Nvr::setup.vref[2]
    4048:	80 91 cb 01 	lds	r24, 0x01CB
    404c:	90 91 cc 01 	lds	r25, 0x01CC
    4050:	6c 01       	movw	r12, r24
    4052:	e1 2c       	mov	r14, r1
    4054:	f1 2c       	mov	r15, r1
    4056:	82 e0       	ldi	r24, 0x02	; 2
    4058:	0e 94 99 15 	call	0x2b32	; 0x2b32 <_ZN3Adc6getRmsEh>
    405c:	cc 01       	movw	r24, r24
    405e:	a0 e0       	ldi	r26, 0x00	; 0
    4060:	b0 e0       	ldi	r27, 0x00	; 0
    4062:	a7 01       	movw	r20, r14
    4064:	96 01       	movw	r18, r12
    4066:	bc 01       	movw	r22, r24
    4068:	cd 01       	movw	r24, r26
    406a:	0e 94 ad 32 	call	0x655a	; 0x655a <__mulsi3>
    406e:	7b 01       	movw	r14, r22
    4070:	8c 01       	movw	r16, r24
    4072:	80 91 d1 01 	lds	r24, 0x01D1
    4076:	90 91 d2 01 	lds	r25, 0x01D2
    407a:	9c 01       	movw	r18, r24
    407c:	40 e0       	ldi	r20, 0x00	; 0
    407e:	50 e0       	ldi	r21, 0x00	; 0
    4080:	c8 01       	movw	r24, r16
    4082:	b7 01       	movw	r22, r14
    4084:	0e 94 cf 32 	call	0x659e	; 0x659e <__udivmodsi4>
    4088:	da 01       	movw	r26, r20
    408a:	c9 01       	movw	r24, r18
    408c:	9c 01       	movw	r18, r24
    408e:	88 e6       	ldi	r24, 0x68	; 104
    4090:	9b e0       	ldi	r25, 0x0B	; 11
	                                        * Adc::getRms(2) / Nvr::setup.ref[2]));
    4092:	43 2f       	mov	r20, r19
    4094:	4f 93       	push	r20
    4096:	2f 93       	push	r18
    4098:	29 2f       	mov	r18, r25
    409a:	2f 93       	push	r18
    409c:	8f 93       	push	r24
    409e:	85 e0       	ldi	r24, 0x05	; 5
    40a0:	8f 93       	push	r24
    40a2:	83 e0       	ldi	r24, 0x03	; 3
    40a4:	8f 93       	push	r24
    40a6:	8e e9       	ldi	r24, 0x9E	; 158
    40a8:	91 e0       	ldi	r25, 0x01	; 1
    40aa:	89 2f       	mov	r24, r25
    40ac:	8f 93       	push	r24
    40ae:	8e e9       	ldi	r24, 0x9E	; 158
    40b0:	91 e0       	ldi	r25, 0x01	; 1
    40b2:	8f 93       	push	r24
    40b4:	0e 94 3f 15 	call	0x2a7e	; 0x2a7e <_ZN3Lcd5printEhhPKcz>
    40b8:	8d b7       	in	r24, 0x3d	; 61
    40ba:	9e b7       	in	r25, 0x3e	; 62
    40bc:	08 96       	adiw	r24, 0x08	; 8
    40be:	0f b6       	in	r0, 0x3f	; 63
    40c0:	f8 94       	cli
    40c2:	de bf       	out	0x3e, r29	; 62
    40c4:	0f be       	out	0x3f, r0	; 63
    40c6:	cd bf       	out	0x3d, r28	; 61
			tick=MENUETICK;
    40c8:	84 ef       	ldi	r24, 0xF4	; 244
    40ca:	91 e0       	ldi	r25, 0x01	; 1
    40cc:	90 93 09 01 	sts	0x0109, r25
    40d0:	80 93 08 01 	sts	0x0108, r24
		}
        key = _getChar();
    40d4:	0e 94 47 12 	call	0x248e	; 0x248e <_getChar>
    40d8:	9c 83       	std	Y+4, r25	; 0x04
    40da:	8b 83       	std	Y+3, r24	; 0x03
        wdt_reset();
    40dc:	a8 95       	wdr
        if (key != EOF) {
    40de:	8b 81       	ldd	r24, Y+3	; 0x03
    40e0:	9c 81       	ldd	r25, Y+4	; 0x04
    40e2:	01 96       	adiw	r24, 0x01	; 1
    40e4:	09 f4       	brne	.+2      	; 0x40e8 <_ZN5Menue13voltageScreenEv+0x216>
    40e6:	59 c0       	rjmp	.+178    	; 0x419a <_ZN5Menue13voltageScreenEv+0x2c8>
            if (!state)
    40e8:	8a 81       	ldd	r24, Y+2	; 0x02
    40ea:	88 23       	and	r24, r24
    40ec:	09 f5       	brne	.+66     	; 0x4130 <_ZN5Menue13voltageScreenEv+0x25e>
                switch ((unsigned char) key) {
    40ee:	8b 81       	ldd	r24, Y+3	; 0x03
    40f0:	88 2f       	mov	r24, r24
    40f2:	90 e0       	ldi	r25, 0x00	; 0
    40f4:	80 32       	cpi	r24, 0x20	; 32
    40f6:	91 05       	cpc	r25, r1
    40f8:	b9 f0       	breq	.+46     	; 0x4128 <_ZN5Menue13voltageScreenEv+0x256>
    40fa:	80 38       	cpi	r24, 0x80	; 128
    40fc:	91 05       	cpc	r25, r1
    40fe:	31 f0       	breq	.+12     	; 0x410c <_ZN5Menue13voltageScreenEv+0x23a>
    4100:	04 97       	sbiw	r24, 0x04	; 4
    4102:	09 f0       	breq	.+2      	; 0x4106 <_ZN5Menue13voltageScreenEv+0x234>
    4104:	4a c0       	rjmp	.+148    	; 0x419a <_ZN5Menue13voltageScreenEv+0x2c8>
                    case BACK:
                        state = 1;
    4106:	81 e0       	ldi	r24, 0x01	; 1
    4108:	8a 83       	std	Y+2, r24	; 0x02
                        break;
    410a:	11 c0       	rjmp	.+34     	; 0x412e <_ZN5Menue13voltageScreenEv+0x25c>
                    case ENT:
						setupTimeBase();
    410c:	8d 81       	ldd	r24, Y+5	; 0x05
    410e:	9e 81       	ldd	r25, Y+6	; 0x06
    4110:	57 d0       	rcall	.+174    	; 0x41c0 <_ZN5Menue13setupTimeBaseEv>
                        Lcd::lcd.clear();
    4112:	8e e9       	ldi	r24, 0x9E	; 158
    4114:	91 e0       	ldi	r25, 0x01	; 1
    4116:	0e 94 5d 15 	call	0x2aba	; 0x2aba <_ZN3Lcd5clearEv>
						tick=-1;
    411a:	8f ef       	ldi	r24, 0xFF	; 255
    411c:	9f ef       	ldi	r25, 0xFF	; 255
    411e:	90 93 09 01 	sts	0x0109, r25
    4122:	80 93 08 01 	sts	0x0108, r24
                        break;
    4126:	03 c0       	rjmp	.+6      	; 0x412e <_ZN5Menue13voltageScreenEv+0x25c>
						//setupVref();
                    case ESC:
                        term = 1;
    4128:	81 e0       	ldi	r24, 0x01	; 1
    412a:	89 83       	std	Y+1, r24	; 0x01
                        break;
    412c:	00 00       	nop
    412e:	35 c0       	rjmp	.+106    	; 0x419a <_ZN5Menue13voltageScreenEv+0x2c8>
            } else if (state == 1)
    4130:	8a 81       	ldd	r24, Y+2	; 0x02
    4132:	81 30       	cpi	r24, 0x01	; 1
    4134:	a9 f4       	brne	.+42     	; 0x4160 <_ZN5Menue13voltageScreenEv+0x28e>
                switch ((unsigned char) key) {
    4136:	8b 81       	ldd	r24, Y+3	; 0x03
    4138:	88 2f       	mov	r24, r24
    413a:	90 e0       	ldi	r25, 0x00	; 0
    413c:	80 34       	cpi	r24, 0x40	; 64
    413e:	91 05       	cpc	r25, r1
    4140:	31 f0       	breq	.+12     	; 0x414e <_ZN5Menue13voltageScreenEv+0x27c>
    4142:	80 38       	cpi	r24, 0x80	; 128
    4144:	91 05       	cpc	r25, r1
    4146:	31 f0       	breq	.+12     	; 0x4154 <_ZN5Menue13voltageScreenEv+0x282>
    4148:	80 97       	sbiw	r24, 0x20	; 32
    414a:	21 f0       	breq	.+8      	; 0x4154 <_ZN5Menue13voltageScreenEv+0x282>
    414c:	06 c0       	rjmp	.+12     	; 0x415a <_ZN5Menue13voltageScreenEv+0x288>
                    case DOWN:
                        state = 2;
    414e:	82 e0       	ldi	r24, 0x02	; 2
    4150:	8a 83       	std	Y+2, r24	; 0x02
                        break;
    4152:	05 c0       	rjmp	.+10     	; 0x415e <_ZN5Menue13voltageScreenEv+0x28c>
                    case ENT:
                    case ESC:
                        term = 1;
    4154:	81 e0       	ldi	r24, 0x01	; 1
    4156:	89 83       	std	Y+1, r24	; 0x01
                        break;
    4158:	02 c0       	rjmp	.+4      	; 0x415e <_ZN5Menue13voltageScreenEv+0x28c>
                    default:
                        state = 0;
    415a:	1a 82       	std	Y+2, r1	; 0x02
                        break;
    415c:	00 00       	nop
    415e:	1d c0       	rjmp	.+58     	; 0x419a <_ZN5Menue13voltageScreenEv+0x2c8>
            } else
                switch ((unsigned char) key) {
    4160:	8b 81       	ldd	r24, Y+3	; 0x03
    4162:	88 2f       	mov	r24, r24
    4164:	90 e0       	ldi	r25, 0x00	; 0
    4166:	80 32       	cpi	r24, 0x20	; 32
    4168:	91 05       	cpc	r25, r1
    416a:	91 f0       	breq	.+36     	; 0x4190 <_ZN5Menue13voltageScreenEv+0x2be>
    416c:	80 38       	cpi	r24, 0x80	; 128
    416e:	91 05       	cpc	r25, r1
    4170:	91 f4       	brne	.+36     	; 0x4196 <_ZN5Menue13voltageScreenEv+0x2c4>
                    case ENT:
                        setupVref();
    4172:	8d 81       	ldd	r24, Y+5	; 0x05
    4174:	9e 81       	ldd	r25, Y+6	; 0x06
    4176:	4f d2       	rcall	.+1182   	; 0x4616 <_ZN5Menue9setupVrefEv>
                        Lcd::lcd.clear();
    4178:	8e e9       	ldi	r24, 0x9E	; 158
    417a:	91 e0       	ldi	r25, 0x01	; 1
    417c:	0e 94 5d 15 	call	0x2aba	; 0x2aba <_ZN3Lcd5clearEv>
						tick=-1;
    4180:	8f ef       	ldi	r24, 0xFF	; 255
    4182:	9f ef       	ldi	r25, 0xFF	; 255
    4184:	90 93 09 01 	sts	0x0109, r25
    4188:	80 93 08 01 	sts	0x0108, r24
                        state = 0;
    418c:	1a 82       	std	Y+2, r1	; 0x02
                        break;
    418e:	05 c0       	rjmp	.+10     	; 0x419a <_ZN5Menue13voltageScreenEv+0x2c8>
                    case ESC:
                        term = 1;
    4190:	81 e0       	ldi	r24, 0x01	; 1
    4192:	89 83       	std	Y+1, r24	; 0x01
                        break;
    4194:	02 c0       	rjmp	.+4      	; 0x419a <_ZN5Menue13voltageScreenEv+0x2c8>
                    default:
                        state = 0;
    4196:	1a 82       	std	Y+2, r1	; 0x02
                        break;
    4198:	00 00       	nop
{
    int key;
    unsigned char term = 0, state = 0;
    Lcd::lcd.clear();
		tick = -1;
    do {
    419a:	89 81       	ldd	r24, Y+1	; 0x01
    419c:	88 23       	and	r24, r24
    419e:	09 f4       	brne	.+2      	; 0x41a2 <_ZN5Menue13voltageScreenEv+0x2d0>
    41a0:	b6 ce       	rjmp	.-660    	; 0x3f0e <_ZN5Menue13voltageScreenEv+0x3c>
                        state = 0;
                        break;
                }
        }
    } while (!term);
}
    41a2:	62 96       	adiw	r28, 0x12	; 18
    41a4:	0f b6       	in	r0, 0x3f	; 63
    41a6:	f8 94       	cli
    41a8:	de bf       	out	0x3e, r29	; 62
    41aa:	0f be       	out	0x3f, r0	; 63
    41ac:	cd bf       	out	0x3d, r28	; 61
    41ae:	df 91       	pop	r29
    41b0:	cf 91       	pop	r28
    41b2:	1f 91       	pop	r17
    41b4:	0f 91       	pop	r16
    41b6:	ff 90       	pop	r15
    41b8:	ef 90       	pop	r14
    41ba:	df 90       	pop	r13
    41bc:	cf 90       	pop	r12
    41be:	08 95       	ret

000041c0 <_ZN5Menue13setupTimeBaseEv>:

void Menue::setupTimeBase()
{
    41c0:	cf 93       	push	r28
    41c2:	df 93       	push	r29
    41c4:	cd b7       	in	r28, 0x3d	; 61
    41c6:	de b7       	in	r29, 0x3e	; 62
    41c8:	27 97       	sbiw	r28, 0x07	; 7
    41ca:	0f b6       	in	r0, 0x3f	; 63
    41cc:	f8 94       	cli
    41ce:	de bf       	out	0x3e, r29	; 62
    41d0:	0f be       	out	0x3f, r0	; 63
    41d2:	cd bf       	out	0x3d, r28	; 61
    41d4:	9f 83       	std	Y+7, r25	; 0x07
    41d6:	8e 83       	std	Y+6, r24	; 0x06
	unsigned char key,temp[3];
	unsigned char p=0;
    41d8:	19 82       	std	Y+1, r1	; 0x01

	temp[0]=Nvr::setup.dpllEnable[0];
    41da:	80 91 f7 01 	lds	r24, 0x01F7
    41de:	8b 83       	std	Y+3, r24	; 0x03
	temp[1]=Nvr::setup.dpllEnable[1];
    41e0:	80 91 f8 01 	lds	r24, 0x01F8
    41e4:	8c 83       	std	Y+4, r24	; 0x04
	temp[2]=Nvr::setup.dpllEnable[2];
    41e6:	80 91 f9 01 	lds	r24, 0x01F9
    41ea:	8d 83       	std	Y+5, r24	; 0x05

	printfLcd(0, 0, " Timebase setup ");
    41ec:	80 e7       	ldi	r24, 0x70	; 112
    41ee:	9b e0       	ldi	r25, 0x0B	; 11
    41f0:	29 2f       	mov	r18, r25
    41f2:	2f 93       	push	r18
    41f4:	8f 93       	push	r24
    41f6:	1f 92       	push	r1
    41f8:	1f 92       	push	r1
    41fa:	8e e9       	ldi	r24, 0x9E	; 158
    41fc:	91 e0       	ldi	r25, 0x01	; 1
    41fe:	89 2f       	mov	r24, r25
    4200:	8f 93       	push	r24
    4202:	8e e9       	ldi	r24, 0x9E	; 158
    4204:	91 e0       	ldi	r25, 0x01	; 1
    4206:	8f 93       	push	r24
    4208:	0e 94 3f 15 	call	0x2a7e	; 0x2a7e <_ZN3Lcd5printEhhPKcz>
    420c:	0f 90       	pop	r0
    420e:	0f 90       	pop	r0
    4210:	0f 90       	pop	r0
    4212:	0f 90       	pop	r0
    4214:	0f 90       	pop	r0
    4216:	0f 90       	pop	r0
   	printfLcd(1, 0, "                ");
    4218:	81 e8       	ldi	r24, 0x81	; 129
    421a:	9b e0       	ldi	r25, 0x0B	; 11
    421c:	29 2f       	mov	r18, r25
    421e:	2f 93       	push	r18
    4220:	8f 93       	push	r24
    4222:	1f 92       	push	r1
    4224:	81 e0       	ldi	r24, 0x01	; 1
    4226:	8f 93       	push	r24
    4228:	8e e9       	ldi	r24, 0x9E	; 158
    422a:	91 e0       	ldi	r25, 0x01	; 1
    422c:	89 2f       	mov	r24, r25
    422e:	8f 93       	push	r24
    4230:	8e e9       	ldi	r24, 0x9E	; 158
    4232:	91 e0       	ldi	r25, 0x01	; 1
    4234:	8f 93       	push	r24
    4236:	0e 94 3f 15 	call	0x2a7e	; 0x2a7e <_ZN3Lcd5printEhhPKcz>
    423a:	0f 90       	pop	r0
    423c:	0f 90       	pop	r0
    423e:	0f 90       	pop	r0
    4240:	0f 90       	pop	r0
    4242:	0f 90       	pop	r0
    4244:	0f 90       	pop	r0
   	printfLcd(2, 0, "Net. PS         ");
    4246:	82 e9       	ldi	r24, 0x92	; 146
    4248:	9b e0       	ldi	r25, 0x0B	; 11
    424a:	29 2f       	mov	r18, r25
    424c:	2f 93       	push	r18
    424e:	8f 93       	push	r24
    4250:	1f 92       	push	r1
    4252:	82 e0       	ldi	r24, 0x02	; 2
    4254:	8f 93       	push	r24
    4256:	8e e9       	ldi	r24, 0x9E	; 158
    4258:	91 e0       	ldi	r25, 0x01	; 1
    425a:	89 2f       	mov	r24, r25
    425c:	8f 93       	push	r24
    425e:	8e e9       	ldi	r24, 0x9E	; 158
    4260:	91 e0       	ldi	r25, 0x01	; 1
    4262:	8f 93       	push	r24
    4264:	0e 94 3f 15 	call	0x2a7e	; 0x2a7e <_ZN3Lcd5printEhhPKcz>
    4268:	0f 90       	pop	r0
    426a:	0f 90       	pop	r0
    426c:	0f 90       	pop	r0
    426e:	0f 90       	pop	r0
    4270:	0f 90       	pop	r0
    4272:	0f 90       	pop	r0
	printfLcd(3, 0, "Agr. PS         ");
    4274:	83 ea       	ldi	r24, 0xA3	; 163
    4276:	9b e0       	ldi	r25, 0x0B	; 11
    4278:	29 2f       	mov	r18, r25
    427a:	2f 93       	push	r18
    427c:	8f 93       	push	r24
    427e:	1f 92       	push	r1
    4280:	83 e0       	ldi	r24, 0x03	; 3
    4282:	8f 93       	push	r24
    4284:	8e e9       	ldi	r24, 0x9E	; 158
    4286:	91 e0       	ldi	r25, 0x01	; 1
    4288:	89 2f       	mov	r24, r25
    428a:	8f 93       	push	r24
    428c:	8e e9       	ldi	r24, 0x9E	; 158
    428e:	91 e0       	ldi	r25, 0x01	; 1
    4290:	8f 93       	push	r24
    4292:	0e 94 3f 15 	call	0x2a7e	; 0x2a7e <_ZN3Lcd5printEhhPKcz>
    4296:	0f 90       	pop	r0
    4298:	0f 90       	pop	r0
    429a:	0f 90       	pop	r0
    429c:	0f 90       	pop	r0
    429e:	0f 90       	pop	r0
    42a0:	0f 90       	pop	r0

    do {
		wdt_reset();
    42a2:	a8 95       	wdr
		if((temp[0]==0x10) && (temp[1]==0x10) && (temp[2]==0x10)) {
    42a4:	8b 81       	ldd	r24, Y+3	; 0x03
    42a6:	80 31       	cpi	r24, 0x10	; 16
    42a8:	b9 f5       	brne	.+110    	; 0x4318 <_ZN5Menue13setupTimeBaseEv+0x158>
    42aa:	8c 81       	ldd	r24, Y+4	; 0x04
    42ac:	80 31       	cpi	r24, 0x10	; 16
    42ae:	a1 f5       	brne	.+104    	; 0x4318 <_ZN5Menue13setupTimeBaseEv+0x158>
    42b0:	8d 81       	ldd	r24, Y+5	; 0x05
    42b2:	80 31       	cpi	r24, 0x10	; 16
    42b4:	89 f5       	brne	.+98     	; 0x4318 <_ZN5Menue13setupTimeBaseEv+0x158>
				printfLcd(2,8,"  <<  ");
    42b6:	84 eb       	ldi	r24, 0xB4	; 180
    42b8:	9b e0       	ldi	r25, 0x0B	; 11
    42ba:	29 2f       	mov	r18, r25
    42bc:	2f 93       	push	r18
    42be:	8f 93       	push	r24
    42c0:	88 e0       	ldi	r24, 0x08	; 8
    42c2:	8f 93       	push	r24
    42c4:	82 e0       	ldi	r24, 0x02	; 2
    42c6:	8f 93       	push	r24
    42c8:	8e e9       	ldi	r24, 0x9E	; 158
    42ca:	91 e0       	ldi	r25, 0x01	; 1
    42cc:	89 2f       	mov	r24, r25
    42ce:	8f 93       	push	r24
    42d0:	8e e9       	ldi	r24, 0x9E	; 158
    42d2:	91 e0       	ldi	r25, 0x01	; 1
    42d4:	8f 93       	push	r24
    42d6:	0e 94 3f 15 	call	0x2a7e	; 0x2a7e <_ZN3Lcd5printEhhPKcz>
    42da:	0f 90       	pop	r0
    42dc:	0f 90       	pop	r0
    42de:	0f 90       	pop	r0
    42e0:	0f 90       	pop	r0
    42e2:	0f 90       	pop	r0
    42e4:	0f 90       	pop	r0
			    printfLcd(3,8,"      ");
    42e6:	8b eb       	ldi	r24, 0xBB	; 187
    42e8:	9b e0       	ldi	r25, 0x0B	; 11
    42ea:	29 2f       	mov	r18, r25
    42ec:	2f 93       	push	r18
    42ee:	8f 93       	push	r24
    42f0:	88 e0       	ldi	r24, 0x08	; 8
    42f2:	8f 93       	push	r24
    42f4:	83 e0       	ldi	r24, 0x03	; 3
    42f6:	8f 93       	push	r24
    42f8:	8e e9       	ldi	r24, 0x9E	; 158
    42fa:	91 e0       	ldi	r25, 0x01	; 1
    42fc:	89 2f       	mov	r24, r25
    42fe:	8f 93       	push	r24
    4300:	8e e9       	ldi	r24, 0x9E	; 158
    4302:	91 e0       	ldi	r25, 0x01	; 1
    4304:	8f 93       	push	r24
    4306:	0e 94 3f 15 	call	0x2a7e	; 0x2a7e <_ZN3Lcd5printEhhPKcz>
    430a:	0f 90       	pop	r0
    430c:	0f 90       	pop	r0
    430e:	0f 90       	pop	r0
    4310:	0f 90       	pop	r0
    4312:	0f 90       	pop	r0
    4314:	0f 90       	pop	r0
    4316:	30 c0       	rjmp	.+96     	; 0x4378 <_ZN5Menue13setupTimeBaseEv+0x1b8>
		}
		else {
				printfLcd(2,8,"      ");
    4318:	82 ec       	ldi	r24, 0xC2	; 194
    431a:	9b e0       	ldi	r25, 0x0B	; 11
    431c:	29 2f       	mov	r18, r25
    431e:	2f 93       	push	r18
    4320:	8f 93       	push	r24
    4322:	88 e0       	ldi	r24, 0x08	; 8
    4324:	8f 93       	push	r24
    4326:	82 e0       	ldi	r24, 0x02	; 2
    4328:	8f 93       	push	r24
    432a:	8e e9       	ldi	r24, 0x9E	; 158
    432c:	91 e0       	ldi	r25, 0x01	; 1
    432e:	89 2f       	mov	r24, r25
    4330:	8f 93       	push	r24
    4332:	8e e9       	ldi	r24, 0x9E	; 158
    4334:	91 e0       	ldi	r25, 0x01	; 1
    4336:	8f 93       	push	r24
    4338:	0e 94 3f 15 	call	0x2a7e	; 0x2a7e <_ZN3Lcd5printEhhPKcz>
    433c:	0f 90       	pop	r0
    433e:	0f 90       	pop	r0
    4340:	0f 90       	pop	r0
    4342:	0f 90       	pop	r0
    4344:	0f 90       	pop	r0
    4346:	0f 90       	pop	r0
			    printfLcd(3,8,"  <<  ");
    4348:	89 ec       	ldi	r24, 0xC9	; 201
    434a:	9b e0       	ldi	r25, 0x0B	; 11
    434c:	29 2f       	mov	r18, r25
    434e:	2f 93       	push	r18
    4350:	8f 93       	push	r24
    4352:	88 e0       	ldi	r24, 0x08	; 8
    4354:	8f 93       	push	r24
    4356:	83 e0       	ldi	r24, 0x03	; 3
    4358:	8f 93       	push	r24
    435a:	8e e9       	ldi	r24, 0x9E	; 158
    435c:	91 e0       	ldi	r25, 0x01	; 1
    435e:	89 2f       	mov	r24, r25
    4360:	8f 93       	push	r24
    4362:	8e e9       	ldi	r24, 0x9E	; 158
    4364:	91 e0       	ldi	r25, 0x01	; 1
    4366:	8f 93       	push	r24
    4368:	0e 94 3f 15 	call	0x2a7e	; 0x2a7e <_ZN3Lcd5printEhhPKcz>
    436c:	0f 90       	pop	r0
    436e:	0f 90       	pop	r0
    4370:	0f 90       	pop	r0
    4372:	0f 90       	pop	r0
    4374:	0f 90       	pop	r0
    4376:	0f 90       	pop	r0
		}
        Lcd::lcd.goTo(p+2, 0);
    4378:	89 81       	ldd	r24, Y+1	; 0x01
    437a:	8e 5f       	subi	r24, 0xFE	; 254
    437c:	40 e0       	ldi	r20, 0x00	; 0
    437e:	68 2f       	mov	r22, r24
    4380:	8e e9       	ldi	r24, 0x9E	; 158
    4382:	91 e0       	ldi	r25, 0x01	; 1
    4384:	0e 94 04 15 	call	0x2a08	; 0x2a08 <_ZN3Lcd4goToEhh>

		while (!(key=getch())) wdt_reset();
    4388:	01 c0       	rjmp	.+2      	; 0x438c <_ZN5Menue13setupTimeBaseEv+0x1cc>
    438a:	a8 95       	wdr
    438c:	8e 81       	ldd	r24, Y+6	; 0x06
    438e:	9f 81       	ldd	r25, Y+7	; 0x07
    4390:	48 d6       	rcall	.+3216   	; 0x5022 <_ZN5Menue5getchEv>
    4392:	8a 83       	std	Y+2, r24	; 0x02
    4394:	81 e0       	ldi	r24, 0x01	; 1
    4396:	9a 81       	ldd	r25, Y+2	; 0x02
    4398:	99 23       	and	r25, r25
    439a:	09 f0       	breq	.+2      	; 0x439e <_ZN5Menue13setupTimeBaseEv+0x1de>
    439c:	80 e0       	ldi	r24, 0x00	; 0
    439e:	88 23       	and	r24, r24
    43a0:	a1 f7       	brne	.-24     	; 0x438a <_ZN5Menue13setupTimeBaseEv+0x1ca>
    	    switch ((unsigned char)key) {
    43a2:	8a 81       	ldd	r24, Y+2	; 0x02
    43a4:	88 2f       	mov	r24, r24
    43a6:	90 e0       	ldi	r25, 0x00	; 0
    43a8:	80 31       	cpi	r24, 0x10	; 16
    43aa:	91 05       	cpc	r25, r1
    43ac:	b1 f1       	breq	.+108    	; 0x441a <_ZN5Menue13setupTimeBaseEv+0x25a>
    43ae:	81 31       	cpi	r24, 0x11	; 17
    43b0:	91 05       	cpc	r25, r1
    43b2:	34 f4       	brge	.+12     	; 0x43c0 <_ZN5Menue13setupTimeBaseEv+0x200>
    43b4:	84 30       	cpi	r24, 0x04	; 4
    43b6:	91 05       	cpc	r25, r1
    43b8:	91 f1       	breq	.+100    	; 0x441e <_ZN5Menue13setupTimeBaseEv+0x25e>
    43ba:	08 97       	sbiw	r24, 0x08	; 8
    43bc:	41 f0       	breq	.+16     	; 0x43ce <_ZN5Menue13setupTimeBaseEv+0x20e>
				case ENT  : Nvr::setup.dpllEnable[0]=temp[0];
					    	Nvr::setup.dpllEnable[1]=temp[1];
					    	Nvr::setup.dpllEnable[2]=temp[2];
							Nvr::nvr.writeSetup();
					    	break;						
				default   : break;
    43be:	30 c0       	rjmp	.+96     	; 0x4420 <_ZN5Menue13setupTimeBaseEv+0x260>
			    printfLcd(3,8,"  <<  ");
		}
        Lcd::lcd.goTo(p+2, 0);

		while (!(key=getch())) wdt_reset();
    	    switch ((unsigned char)key) {
    43c0:	80 34       	cpi	r24, 0x40	; 64
    43c2:	91 05       	cpc	r25, r1
    43c4:	89 f0       	breq	.+34     	; 0x43e8 <_ZN5Menue13setupTimeBaseEv+0x228>
    43c6:	80 38       	cpi	r24, 0x80	; 128
    43c8:	91 05       	cpc	r25, r1
    43ca:	d1 f0       	breq	.+52     	; 0x4400 <_ZN5Menue13setupTimeBaseEv+0x240>
				case ENT  : Nvr::setup.dpllEnable[0]=temp[0];
					    	Nvr::setup.dpllEnable[1]=temp[1];
					    	Nvr::setup.dpllEnable[2]=temp[2];
							Nvr::nvr.writeSetup();
					    	break;						
				default   : break;
    43cc:	29 c0       	rjmp	.+82     	; 0x4420 <_ZN5Menue13setupTimeBaseEv+0x260>

		while (!(key=getch())) wdt_reset();
    	    switch ((unsigned char)key) {
    	    	case FORW : break;
    	    	case BACK : break;
    	    	case UP   : if (p>0) p--; 
    43ce:	89 81       	ldd	r24, Y+1	; 0x01
    43d0:	88 23       	and	r24, r24
    43d2:	19 f0       	breq	.+6      	; 0x43da <_ZN5Menue13setupTimeBaseEv+0x21a>
    43d4:	89 81       	ldd	r24, Y+1	; 0x01
    43d6:	81 50       	subi	r24, 0x01	; 1
    43d8:	89 83       	std	Y+1, r24	; 0x01
							temp[0]=temp[1]=temp[2]=0x10; //turn DPLL on on all phases
    43da:	80 e1       	ldi	r24, 0x10	; 16
    43dc:	8d 83       	std	Y+5, r24	; 0x05
    43de:	8d 81       	ldd	r24, Y+5	; 0x05
    43e0:	8c 83       	std	Y+4, r24	; 0x04
    43e2:	8c 81       	ldd	r24, Y+4	; 0x04
    43e4:	8b 83       	std	Y+3, r24	; 0x03
							break;				
    43e6:	1c c0       	rjmp	.+56     	; 0x4420 <_ZN5Menue13setupTimeBaseEv+0x260>
    	    	case DOWN : if (p<1) p++;
    43e8:	89 81       	ldd	r24, Y+1	; 0x01
    43ea:	88 23       	and	r24, r24
    43ec:	19 f4       	brne	.+6      	; 0x43f4 <_ZN5Menue13setupTimeBaseEv+0x234>
    43ee:	89 81       	ldd	r24, Y+1	; 0x01
    43f0:	8f 5f       	subi	r24, 0xFF	; 255
    43f2:	89 83       	std	Y+1, r24	; 0x01
							temp[0]=temp[1]=temp[2]=0x00; //turn DPLL off on all phases
    43f4:	1d 82       	std	Y+5, r1	; 0x05
    43f6:	8d 81       	ldd	r24, Y+5	; 0x05
    43f8:	8c 83       	std	Y+4, r24	; 0x04
    43fa:	8c 81       	ldd	r24, Y+4	; 0x04
    43fc:	8b 83       	std	Y+3, r24	; 0x03
							break;
    43fe:	10 c0       	rjmp	.+32     	; 0x4420 <_ZN5Menue13setupTimeBaseEv+0x260>
				case ENT  : Nvr::setup.dpllEnable[0]=temp[0];
    4400:	8b 81       	ldd	r24, Y+3	; 0x03
    4402:	80 93 f7 01 	sts	0x01F7, r24
					    	Nvr::setup.dpllEnable[1]=temp[1];
    4406:	8c 81       	ldd	r24, Y+4	; 0x04
    4408:	80 93 f8 01 	sts	0x01F8, r24
					    	Nvr::setup.dpllEnable[2]=temp[2];
    440c:	8d 81       	ldd	r24, Y+5	; 0x05
    440e:	80 93 f9 01 	sts	0x01F9, r24
							Nvr::nvr.writeSetup();
    4412:	88 ea       	ldi	r24, 0xA8	; 168
    4414:	91 e0       	ldi	r25, 0x01	; 1
    4416:	2b d7       	rcall	.+3670   	; 0x526e <_ZN3Nvr10writeSetupEv>
					    	break;						
    4418:	03 c0       	rjmp	.+6      	; 0x4420 <_ZN5Menue13setupTimeBaseEv+0x260>
		}
        Lcd::lcd.goTo(p+2, 0);

		while (!(key=getch())) wdt_reset();
    	    switch ((unsigned char)key) {
    	    	case FORW : break;
    441a:	00 00       	nop
    441c:	01 c0       	rjmp	.+2      	; 0x4420 <_ZN5Menue13setupTimeBaseEv+0x260>
    	    	case BACK : break;
    441e:	00 00       	nop
	printfLcd(0, 0, " Timebase setup ");
   	printfLcd(1, 0, "                ");
   	printfLcd(2, 0, "Net. PS         ");
	printfLcd(3, 0, "Agr. PS         ");

    do {
    4420:	8a 81       	ldd	r24, Y+2	; 0x02
    4422:	80 32       	cpi	r24, 0x20	; 32
    4424:	21 f0       	breq	.+8      	; 0x442e <_ZN5Menue13setupTimeBaseEv+0x26e>
					    	Nvr::setup.dpllEnable[2]=temp[2];
							Nvr::nvr.writeSetup();
					    	break;						
				default   : break;
        }
    } while ((key!=ESC) && (key!=ENT));
    4426:	8a 81       	ldd	r24, Y+2	; 0x02
    4428:	80 38       	cpi	r24, 0x80	; 128
    442a:	09 f0       	breq	.+2      	; 0x442e <_ZN5Menue13setupTimeBaseEv+0x26e>
    442c:	3a cf       	rjmp	.-396    	; 0x42a2 <_ZN5Menue13setupTimeBaseEv+0xe2>
}
    442e:	27 96       	adiw	r28, 0x07	; 7
    4430:	0f b6       	in	r0, 0x3f	; 63
    4432:	f8 94       	cli
    4434:	de bf       	out	0x3e, r29	; 62
    4436:	0f be       	out	0x3f, r0	; 63
    4438:	cd bf       	out	0x3d, r28	; 61
    443a:	df 91       	pop	r29
    443c:	cf 91       	pop	r28
    443e:	08 95       	ret

00004440 <_ZN5Menue8debugWinEv>:


void Menue::debugWin()
{
    4440:	cf 92       	push	r12
    4442:	df 92       	push	r13
    4444:	ef 92       	push	r14
    4446:	ff 92       	push	r15
    4448:	0f 93       	push	r16
    444a:	1f 93       	push	r17
    444c:	cf 93       	push	r28
    444e:	df 93       	push	r29
    4450:	cd b7       	in	r28, 0x3d	; 61
    4452:	de b7       	in	r29, 0x3e	; 62
    4454:	2c 97       	sbiw	r28, 0x0c	; 12
    4456:	0f b6       	in	r0, 0x3f	; 63
    4458:	f8 94       	cli
    445a:	de bf       	out	0x3e, r29	; 62
    445c:	0f be       	out	0x3f, r0	; 63
    445e:	cd bf       	out	0x3d, r28	; 61
    4460:	9c 83       	std	Y+4, r25	; 0x04
    4462:	8b 83       	std	Y+3, r24	; 0x03
	int key;
	
	Lcd::lcd.clear();
    4464:	8e e9       	ldi	r24, 0x9E	; 158
    4466:	91 e0       	ldi	r25, 0x01	; 1
    4468:	0e 94 5d 15 	call	0x2aba	; 0x2aba <_ZN3Lcd5clearEv>
	
	do {
	
			printfLcd(0, 0, "  Debug  ");
    446c:	80 ed       	ldi	r24, 0xD0	; 208
    446e:	9b e0       	ldi	r25, 0x0B	; 11
    4470:	29 2f       	mov	r18, r25
    4472:	2f 93       	push	r18
    4474:	8f 93       	push	r24
    4476:	1f 92       	push	r1
    4478:	1f 92       	push	r1
    447a:	8e e9       	ldi	r24, 0x9E	; 158
    447c:	91 e0       	ldi	r25, 0x01	; 1
    447e:	89 2f       	mov	r24, r25
    4480:	8f 93       	push	r24
    4482:	8e e9       	ldi	r24, 0x9E	; 158
    4484:	91 e0       	ldi	r25, 0x01	; 1
    4486:	8f 93       	push	r24
    4488:	0e 94 3f 15 	call	0x2a7e	; 0x2a7e <_ZN3Lcd5printEhhPKcz>
    448c:	0f 90       	pop	r0
    448e:	0f 90       	pop	r0
    4490:	0f 90       	pop	r0
    4492:	0f 90       	pop	r0
    4494:	0f 90       	pop	r0
    4496:	0f 90       	pop	r0
			printfLcd(1, 5, "L1=%3dV",(unsigned) Spi::outVal[0]);
    4498:	80 91 89 02 	lds	r24, 0x0289
    449c:	28 2f       	mov	r18, r24
    449e:	30 e0       	ldi	r19, 0x00	; 0
    44a0:	8a ed       	ldi	r24, 0xDA	; 218
    44a2:	9b e0       	ldi	r25, 0x0B	; 11
    44a4:	43 2f       	mov	r20, r19
    44a6:	4f 93       	push	r20
    44a8:	2f 93       	push	r18
    44aa:	29 2f       	mov	r18, r25
    44ac:	2f 93       	push	r18
    44ae:	8f 93       	push	r24
    44b0:	85 e0       	ldi	r24, 0x05	; 5
    44b2:	8f 93       	push	r24
    44b4:	81 e0       	ldi	r24, 0x01	; 1
    44b6:	8f 93       	push	r24
    44b8:	8e e9       	ldi	r24, 0x9E	; 158
    44ba:	91 e0       	ldi	r25, 0x01	; 1
    44bc:	89 2f       	mov	r24, r25
    44be:	8f 93       	push	r24
    44c0:	8e e9       	ldi	r24, 0x9E	; 158
    44c2:	91 e0       	ldi	r25, 0x01	; 1
    44c4:	8f 93       	push	r24
    44c6:	0e 94 3f 15 	call	0x2a7e	; 0x2a7e <_ZN3Lcd5printEhhPKcz>
    44ca:	8d b7       	in	r24, 0x3d	; 61
    44cc:	9e b7       	in	r25, 0x3e	; 62
    44ce:	08 96       	adiw	r24, 0x08	; 8
    44d0:	0f b6       	in	r0, 0x3f	; 63
    44d2:	f8 94       	cli
    44d4:	de bf       	out	0x3e, r29	; 62
    44d6:	0f be       	out	0x3f, r0	; 63
    44d8:	cd bf       	out	0x3d, r28	; 61
			printfLcd(2, 5, "L2=%3dV",(unsigned) ((unsigned long) Nvr::setup.vref[1] * Adc::getRms(1) / Nvr::setup.ref[1]));
    44da:	80 91 c9 01 	lds	r24, 0x01C9
    44de:	90 91 ca 01 	lds	r25, 0x01CA
    44e2:	6c 01       	movw	r12, r24
    44e4:	e1 2c       	mov	r14, r1
    44e6:	f1 2c       	mov	r15, r1
    44e8:	81 e0       	ldi	r24, 0x01	; 1
    44ea:	0e 94 99 15 	call	0x2b32	; 0x2b32 <_ZN3Adc6getRmsEh>
    44ee:	cc 01       	movw	r24, r24
    44f0:	a0 e0       	ldi	r26, 0x00	; 0
    44f2:	b0 e0       	ldi	r27, 0x00	; 0
    44f4:	a7 01       	movw	r20, r14
    44f6:	96 01       	movw	r18, r12
    44f8:	bc 01       	movw	r22, r24
    44fa:	cd 01       	movw	r24, r26
    44fc:	0e 94 ad 32 	call	0x655a	; 0x655a <__mulsi3>
    4500:	7b 01       	movw	r14, r22
    4502:	8c 01       	movw	r16, r24
    4504:	80 91 cf 01 	lds	r24, 0x01CF
    4508:	90 91 d0 01 	lds	r25, 0x01D0
    450c:	9c 01       	movw	r18, r24
    450e:	40 e0       	ldi	r20, 0x00	; 0
    4510:	50 e0       	ldi	r21, 0x00	; 0
    4512:	c8 01       	movw	r24, r16
    4514:	b7 01       	movw	r22, r14
    4516:	0e 94 cf 32 	call	0x659e	; 0x659e <__udivmodsi4>
    451a:	da 01       	movw	r26, r20
    451c:	c9 01       	movw	r24, r18
    451e:	9c 01       	movw	r18, r24
    4520:	82 ee       	ldi	r24, 0xE2	; 226
    4522:	9b e0       	ldi	r25, 0x0B	; 11
    4524:	43 2f       	mov	r20, r19
    4526:	4f 93       	push	r20
    4528:	2f 93       	push	r18
    452a:	29 2f       	mov	r18, r25
    452c:	2f 93       	push	r18
    452e:	8f 93       	push	r24
    4530:	85 e0       	ldi	r24, 0x05	; 5
    4532:	8f 93       	push	r24
    4534:	82 e0       	ldi	r24, 0x02	; 2
    4536:	8f 93       	push	r24
    4538:	8e e9       	ldi	r24, 0x9E	; 158
    453a:	91 e0       	ldi	r25, 0x01	; 1
    453c:	89 2f       	mov	r24, r25
    453e:	8f 93       	push	r24
    4540:	8e e9       	ldi	r24, 0x9E	; 158
    4542:	91 e0       	ldi	r25, 0x01	; 1
    4544:	8f 93       	push	r24
    4546:	0e 94 3f 15 	call	0x2a7e	; 0x2a7e <_ZN3Lcd5printEhhPKcz>
    454a:	8d b7       	in	r24, 0x3d	; 61
    454c:	9e b7       	in	r25, 0x3e	; 62
    454e:	08 96       	adiw	r24, 0x08	; 8
    4550:	0f b6       	in	r0, 0x3f	; 63
    4552:	f8 94       	cli
    4554:	de bf       	out	0x3e, r29	; 62
    4556:	0f be       	out	0x3f, r0	; 63
    4558:	cd bf       	out	0x3d, r28	; 61
			printfLcd(3, 5, "L3=%3dV",(unsigned) ((unsigned long) Nvr::setup.vref[2]
    455a:	80 91 cb 01 	lds	r24, 0x01CB
    455e:	90 91 cc 01 	lds	r25, 0x01CC
    4562:	6c 01       	movw	r12, r24
    4564:	e1 2c       	mov	r14, r1
    4566:	f1 2c       	mov	r15, r1
    4568:	82 e0       	ldi	r24, 0x02	; 2
    456a:	0e 94 99 15 	call	0x2b32	; 0x2b32 <_ZN3Adc6getRmsEh>
    456e:	cc 01       	movw	r24, r24
    4570:	a0 e0       	ldi	r26, 0x00	; 0
    4572:	b0 e0       	ldi	r27, 0x00	; 0
    4574:	a7 01       	movw	r20, r14
    4576:	96 01       	movw	r18, r12
    4578:	bc 01       	movw	r22, r24
    457a:	cd 01       	movw	r24, r26
    457c:	0e 94 ad 32 	call	0x655a	; 0x655a <__mulsi3>
    4580:	7b 01       	movw	r14, r22
    4582:	8c 01       	movw	r16, r24
    4584:	80 91 d1 01 	lds	r24, 0x01D1
    4588:	90 91 d2 01 	lds	r25, 0x01D2
    458c:	9c 01       	movw	r18, r24
    458e:	40 e0       	ldi	r20, 0x00	; 0
    4590:	50 e0       	ldi	r21, 0x00	; 0
    4592:	c8 01       	movw	r24, r16
    4594:	b7 01       	movw	r22, r14
    4596:	0e 94 cf 32 	call	0x659e	; 0x659e <__udivmodsi4>
    459a:	da 01       	movw	r26, r20
    459c:	c9 01       	movw	r24, r18
    459e:	9c 01       	movw	r18, r24
    45a0:	8a ee       	ldi	r24, 0xEA	; 234
    45a2:	9b e0       	ldi	r25, 0x0B	; 11
			* Adc::getRms(2) / Nvr::setup.ref[2]));
    45a4:	43 2f       	mov	r20, r19
    45a6:	4f 93       	push	r20
    45a8:	2f 93       	push	r18
    45aa:	29 2f       	mov	r18, r25
    45ac:	2f 93       	push	r18
    45ae:	8f 93       	push	r24
    45b0:	85 e0       	ldi	r24, 0x05	; 5
    45b2:	8f 93       	push	r24
    45b4:	83 e0       	ldi	r24, 0x03	; 3
    45b6:	8f 93       	push	r24
    45b8:	8e e9       	ldi	r24, 0x9E	; 158
    45ba:	91 e0       	ldi	r25, 0x01	; 1
    45bc:	89 2f       	mov	r24, r25
    45be:	8f 93       	push	r24
    45c0:	8e e9       	ldi	r24, 0x9E	; 158
    45c2:	91 e0       	ldi	r25, 0x01	; 1
    45c4:	8f 93       	push	r24
    45c6:	0e 94 3f 15 	call	0x2a7e	; 0x2a7e <_ZN3Lcd5printEhhPKcz>
    45ca:	8d b7       	in	r24, 0x3d	; 61
    45cc:	9e b7       	in	r25, 0x3e	; 62
    45ce:	08 96       	adiw	r24, 0x08	; 8
    45d0:	0f b6       	in	r0, 0x3f	; 63
    45d2:	f8 94       	cli
    45d4:	de bf       	out	0x3e, r29	; 62
    45d6:	0f be       	out	0x3f, r0	; 63
    45d8:	cd bf       	out	0x3d, r28	; 61
			
		
		key = _getChar();
    45da:	0e 94 47 12 	call	0x248e	; 0x248e <_getChar>
    45de:	9a 83       	std	Y+2, r25	; 0x02
    45e0:	89 83       	std	Y+1, r24	; 0x01
		wdt_reset();
    45e2:	a8 95       	wdr
{
	int key;
	
	Lcd::lcd.clear();
	
	do {
    45e4:	89 81       	ldd	r24, Y+1	; 0x01
    45e6:	9a 81       	ldd	r25, Y+2	; 0x02
    45e8:	80 97       	sbiw	r24, 0x20	; 32
    45ea:	31 f0       	breq	.+12     	; 0x45f8 <_ZN5Menue8debugWinEv+0x1b8>
		
		key = _getChar();
		wdt_reset();
		
		
	} while ((key!=ESC) && (key!=ENT));
    45ec:	89 81       	ldd	r24, Y+1	; 0x01
    45ee:	9a 81       	ldd	r25, Y+2	; 0x02
    45f0:	80 38       	cpi	r24, 0x80	; 128
    45f2:	91 05       	cpc	r25, r1
    45f4:	09 f0       	breq	.+2      	; 0x45f8 <_ZN5Menue8debugWinEv+0x1b8>
    45f6:	3a cf       	rjmp	.-396    	; 0x446c <_ZN5Menue8debugWinEv+0x2c>
}
    45f8:	2c 96       	adiw	r28, 0x0c	; 12
    45fa:	0f b6       	in	r0, 0x3f	; 63
    45fc:	f8 94       	cli
    45fe:	de bf       	out	0x3e, r29	; 62
    4600:	0f be       	out	0x3f, r0	; 63
    4602:	cd bf       	out	0x3d, r28	; 61
    4604:	df 91       	pop	r29
    4606:	cf 91       	pop	r28
    4608:	1f 91       	pop	r17
    460a:	0f 91       	pop	r16
    460c:	ff 90       	pop	r15
    460e:	ef 90       	pop	r14
    4610:	df 90       	pop	r13
    4612:	cf 90       	pop	r12
    4614:	08 95       	ret

00004616 <_ZN5Menue9setupVrefEv>:

void Menue::setupVref()
{
    4616:	cf 92       	push	r12
    4618:	df 92       	push	r13
    461a:	ef 92       	push	r14
    461c:	ff 92       	push	r15
    461e:	0f 93       	push	r16
    4620:	1f 93       	push	r17
    4622:	cf 93       	push	r28
    4624:	df 93       	push	r29
    4626:	cd b7       	in	r28, 0x3d	; 61
    4628:	de b7       	in	r29, 0x3e	; 62
    462a:	62 97       	sbiw	r28, 0x12	; 18
    462c:	0f b6       	in	r0, 0x3f	; 63
    462e:	f8 94       	cli
    4630:	de bf       	out	0x3e, r29	; 62
    4632:	0f be       	out	0x3f, r0	; 63
    4634:	cd bf       	out	0x3d, r28	; 61
    4636:	9a 87       	std	Y+10, r25	; 0x0a
    4638:	89 87       	std	Y+9, r24	; 0x09
    unsigned int val;
    unsigned char p = 0, n, x[3];
    463a:	19 82       	std	Y+1, r1	; 0x01
    unsigned char key;
    x[0] = 0;
    463c:	1e 82       	std	Y+6, r1	; 0x06
    x[1] = 6;
    463e:	86 e0       	ldi	r24, 0x06	; 6
    4640:	8f 83       	std	Y+7, r24	; 0x07
    x[2] = 12;
    4642:	8c e0       	ldi	r24, 0x0C	; 12
    4644:	88 87       	std	Y+8, r24	; 0x08
    Lcd::lcd.clear();
    4646:	8e e9       	ldi	r24, 0x9E	; 158
    4648:	91 e0       	ldi	r25, 0x01	; 1
    464a:	0e 94 5d 15 	call	0x2aba	; 0x2aba <_ZN3Lcd5clearEv>
    printfLcd(0, 0, " Reference      ");
    464e:	82 ef       	ldi	r24, 0xF2	; 242
    4650:	9b e0       	ldi	r25, 0x0B	; 11
    4652:	29 2f       	mov	r18, r25
    4654:	2f 93       	push	r18
    4656:	8f 93       	push	r24
    4658:	1f 92       	push	r1
    465a:	1f 92       	push	r1
    465c:	8e e9       	ldi	r24, 0x9E	; 158
    465e:	91 e0       	ldi	r25, 0x01	; 1
    4660:	89 2f       	mov	r24, r25
    4662:	8f 93       	push	r24
    4664:	8e e9       	ldi	r24, 0x9E	; 158
    4666:	91 e0       	ldi	r25, 0x01	; 1
    4668:	8f 93       	push	r24
    466a:	0e 94 3f 15 	call	0x2a7e	; 0x2a7e <_ZN3Lcd5printEhhPKcz>
    466e:	0f 90       	pop	r0
    4670:	0f 90       	pop	r0
    4672:	0f 90       	pop	r0
    4674:	0f 90       	pop	r0
    4676:	0f 90       	pop	r0
    4678:	0f 90       	pop	r0
    printfLcd(1, 0, "    voltages    ");
    467a:	83 e0       	ldi	r24, 0x03	; 3
    467c:	9c e0       	ldi	r25, 0x0C	; 12
    467e:	29 2f       	mov	r18, r25
    4680:	2f 93       	push	r18
    4682:	8f 93       	push	r24
    4684:	1f 92       	push	r1
    4686:	81 e0       	ldi	r24, 0x01	; 1
    4688:	8f 93       	push	r24
    468a:	8e e9       	ldi	r24, 0x9E	; 158
    468c:	91 e0       	ldi	r25, 0x01	; 1
    468e:	89 2f       	mov	r24, r25
    4690:	8f 93       	push	r24
    4692:	8e e9       	ldi	r24, 0x9E	; 158
    4694:	91 e0       	ldi	r25, 0x01	; 1
    4696:	8f 93       	push	r24
    4698:	0e 94 3f 15 	call	0x2a7e	; 0x2a7e <_ZN3Lcd5printEhhPKcz>
    469c:	0f 90       	pop	r0
    469e:	0f 90       	pop	r0
    46a0:	0f 90       	pop	r0
    46a2:	0f 90       	pop	r0
    46a4:	0f 90       	pop	r0
    46a6:	0f 90       	pop	r0
    do {
        wdt_reset();
    46a8:	a8 95       	wdr
        for (n = 0; n < 3; n++) {
    46aa:	1a 82       	std	Y+2, r1	; 0x02
    46ac:	73 c0       	rjmp	.+230    	; 0x4794 <_ZN5Menue9setupVrefEv+0x17e>
            Lcd::lcd.goTo(2, x[n]);
    46ae:	8a 81       	ldd	r24, Y+2	; 0x02
    46b0:	88 2f       	mov	r24, r24
    46b2:	90 e0       	ldi	r25, 0x00	; 0
    46b4:	9e 01       	movw	r18, r28
    46b6:	2a 5f       	subi	r18, 0xFA	; 250
    46b8:	3f 4f       	sbci	r19, 0xFF	; 255
    46ba:	82 0f       	add	r24, r18
    46bc:	93 1f       	adc	r25, r19
    46be:	fc 01       	movw	r30, r24
    46c0:	80 81       	ld	r24, Z
    46c2:	48 2f       	mov	r20, r24
    46c4:	62 e0       	ldi	r22, 0x02	; 2
    46c6:	8e e9       	ldi	r24, 0x9E	; 158
    46c8:	91 e0       	ldi	r25, 0x01	; 1
    46ca:	0e 94 04 15 	call	0x2a08	; 0x2a08 <_ZN3Lcd4goToEhh>
            if (p == n)
    46ce:	99 81       	ldd	r25, Y+1	; 0x01
    46d0:	8a 81       	ldd	r24, Y+2	; 0x02
    46d2:	98 17       	cp	r25, r24
    46d4:	a9 f4       	brne	.+42     	; 0x4700 <_ZN5Menue9setupVrefEv+0xea>
                printfL(">L%d<", n + 1);
    46d6:	8a 81       	ldd	r24, Y+2	; 0x02
    46d8:	88 2f       	mov	r24, r24
    46da:	90 e0       	ldi	r25, 0x00	; 0
    46dc:	9c 01       	movw	r18, r24
    46de:	2f 5f       	subi	r18, 0xFF	; 255
    46e0:	3f 4f       	sbci	r19, 0xFF	; 255
    46e2:	84 e1       	ldi	r24, 0x14	; 20
    46e4:	9c e0       	ldi	r25, 0x0C	; 12
    46e6:	43 2f       	mov	r20, r19
    46e8:	4f 93       	push	r20
    46ea:	2f 93       	push	r18
    46ec:	29 2f       	mov	r18, r25
    46ee:	2f 93       	push	r18
    46f0:	8f 93       	push	r24
    46f2:	0e 94 bf 33 	call	0x677e	; 0x677e <printf_P>
    46f6:	0f 90       	pop	r0
    46f8:	0f 90       	pop	r0
    46fa:	0f 90       	pop	r0
    46fc:	0f 90       	pop	r0
    46fe:	14 c0       	rjmp	.+40     	; 0x4728 <_ZN5Menue9setupVrefEv+0x112>
            else
                printfL(" L%d ", n + 1);
    4700:	8a 81       	ldd	r24, Y+2	; 0x02
    4702:	88 2f       	mov	r24, r24
    4704:	90 e0       	ldi	r25, 0x00	; 0
    4706:	9c 01       	movw	r18, r24
    4708:	2f 5f       	subi	r18, 0xFF	; 255
    470a:	3f 4f       	sbci	r19, 0xFF	; 255
    470c:	8a e1       	ldi	r24, 0x1A	; 26
    470e:	9c e0       	ldi	r25, 0x0C	; 12
    4710:	43 2f       	mov	r20, r19
    4712:	4f 93       	push	r20
    4714:	2f 93       	push	r18
    4716:	29 2f       	mov	r18, r25
    4718:	2f 93       	push	r18
    471a:	8f 93       	push	r24
    471c:	0e 94 bf 33 	call	0x677e	; 0x677e <printf_P>
    4720:	0f 90       	pop	r0
    4722:	0f 90       	pop	r0
    4724:	0f 90       	pop	r0
    4726:	0f 90       	pop	r0
            printfLcd(3, x[n], "%3d", Nvr::setup.vref[n]);
    4728:	8a 81       	ldd	r24, Y+2	; 0x02
    472a:	88 2f       	mov	r24, r24
    472c:	90 e0       	ldi	r25, 0x00	; 0
    472e:	02 96       	adiw	r24, 0x02	; 2
    4730:	88 0f       	add	r24, r24
    4732:	99 1f       	adc	r25, r25
    4734:	8d 53       	subi	r24, 0x3D	; 61
    4736:	9e 4f       	sbci	r25, 0xFE	; 254
    4738:	fc 01       	movw	r30, r24
    473a:	60 81       	ld	r22, Z
    473c:	71 81       	ldd	r23, Z+1	; 0x01
    473e:	40 e2       	ldi	r20, 0x20	; 32
    4740:	5c e0       	ldi	r21, 0x0C	; 12
    4742:	8a 81       	ldd	r24, Y+2	; 0x02
    4744:	88 2f       	mov	r24, r24
    4746:	90 e0       	ldi	r25, 0x00	; 0
    4748:	9e 01       	movw	r18, r28
    474a:	2a 5f       	subi	r18, 0xFA	; 250
    474c:	3f 4f       	sbci	r19, 0xFF	; 255
    474e:	82 0f       	add	r24, r18
    4750:	93 1f       	adc	r25, r19
    4752:	fc 01       	movw	r30, r24
    4754:	80 81       	ld	r24, Z
    4756:	97 2f       	mov	r25, r23
    4758:	9f 93       	push	r25
    475a:	96 2f       	mov	r25, r22
    475c:	9f 93       	push	r25
    475e:	95 2f       	mov	r25, r21
    4760:	9f 93       	push	r25
    4762:	94 2f       	mov	r25, r20
    4764:	9f 93       	push	r25
    4766:	8f 93       	push	r24
    4768:	83 e0       	ldi	r24, 0x03	; 3
    476a:	8f 93       	push	r24
    476c:	8e e9       	ldi	r24, 0x9E	; 158
    476e:	91 e0       	ldi	r25, 0x01	; 1
    4770:	89 2f       	mov	r24, r25
    4772:	8f 93       	push	r24
    4774:	8e e9       	ldi	r24, 0x9E	; 158
    4776:	91 e0       	ldi	r25, 0x01	; 1
    4778:	8f 93       	push	r24
    477a:	0e 94 3f 15 	call	0x2a7e	; 0x2a7e <_ZN3Lcd5printEhhPKcz>
    477e:	8d b7       	in	r24, 0x3d	; 61
    4780:	9e b7       	in	r25, 0x3e	; 62
    4782:	08 96       	adiw	r24, 0x08	; 8
    4784:	0f b6       	in	r0, 0x3f	; 63
    4786:	f8 94       	cli
    4788:	de bf       	out	0x3e, r29	; 62
    478a:	0f be       	out	0x3f, r0	; 63
    478c:	cd bf       	out	0x3d, r28	; 61
    Lcd::lcd.clear();
    printfLcd(0, 0, " Reference      ");
    printfLcd(1, 0, "    voltages    ");
    do {
        wdt_reset();
        for (n = 0; n < 3; n++) {
    478e:	8a 81       	ldd	r24, Y+2	; 0x02
    4790:	8f 5f       	subi	r24, 0xFF	; 255
    4792:	8a 83       	std	Y+2, r24	; 0x02
    4794:	8a 81       	ldd	r24, Y+2	; 0x02
    4796:	83 30       	cpi	r24, 0x03	; 3
    4798:	08 f4       	brcc	.+2      	; 0x479c <_ZN5Menue9setupVrefEv+0x186>
    479a:	89 cf       	rjmp	.-238    	; 0x46ae <_ZN5Menue9setupVrefEv+0x98>
                printfL(">L%d<", n + 1);
            else
                printfL(" L%d ", n + 1);
            printfLcd(3, x[n], "%3d", Nvr::setup.vref[n]);
        }
        switch (key=getch()) {
    479c:	89 85       	ldd	r24, Y+9	; 0x09
    479e:	9a 85       	ldd	r25, Y+10	; 0x0a
    47a0:	40 d4       	rcall	.+2176   	; 0x5022 <_ZN5Menue5getchEv>
    47a2:	8b 83       	std	Y+3, r24	; 0x03
    47a4:	8b 81       	ldd	r24, Y+3	; 0x03
    47a6:	88 2f       	mov	r24, r24
    47a8:	90 e0       	ldi	r25, 0x00	; 0
    47aa:	80 31       	cpi	r24, 0x10	; 16
    47ac:	91 05       	cpc	r25, r1
    47ae:	31 f0       	breq	.+12     	; 0x47bc <_ZN5Menue9setupVrefEv+0x1a6>
    47b0:	80 34       	cpi	r24, 0x40	; 64
    47b2:	91 05       	cpc	r25, r1
    47b4:	89 f0       	breq	.+34     	; 0x47d8 <_ZN5Menue9setupVrefEv+0x1c2>
    47b6:	04 97       	sbiw	r24, 0x04	; 4
    47b8:	41 f0       	breq	.+16     	; 0x47ca <_ZN5Menue9setupVrefEv+0x1b4>
    47ba:	50 c0       	rjmp	.+160    	; 0x485c <_ZN5Menue9setupVrefEv+0x246>
            case FORW:
                if (p < 2)
    47bc:	89 81       	ldd	r24, Y+1	; 0x01
    47be:	82 30       	cpi	r24, 0x02	; 2
    47c0:	18 f4       	brcc	.+6      	; 0x47c8 <_ZN5Menue9setupVrefEv+0x1b2>
                    p++;
    47c2:	89 81       	ldd	r24, Y+1	; 0x01
    47c4:	8f 5f       	subi	r24, 0xFF	; 255
    47c6:	89 83       	std	Y+1, r24	; 0x01
                break;
    47c8:	49 c0       	rjmp	.+146    	; 0x485c <_ZN5Menue9setupVrefEv+0x246>
            case BACK:
                if (p)
    47ca:	89 81       	ldd	r24, Y+1	; 0x01
    47cc:	88 23       	and	r24, r24
    47ce:	19 f0       	breq	.+6      	; 0x47d6 <_ZN5Menue9setupVrefEv+0x1c0>
                    p--;
    47d0:	89 81       	ldd	r24, Y+1	; 0x01
    47d2:	81 50       	subi	r24, 0x01	; 1
    47d4:	89 83       	std	Y+1, r24	; 0x01
                break;
    47d6:	42 c0       	rjmp	.+132    	; 0x485c <_ZN5Menue9setupVrefEv+0x246>
            case DOWN:
                val = doEdit(Nvr::setup.vref[p], x[p],3,280,180);
    47d8:	89 81       	ldd	r24, Y+1	; 0x01
    47da:	88 2f       	mov	r24, r24
    47dc:	90 e0       	ldi	r25, 0x00	; 0
    47de:	9e 01       	movw	r18, r28
    47e0:	2a 5f       	subi	r18, 0xFA	; 250
    47e2:	3f 4f       	sbci	r19, 0xFF	; 255
    47e4:	82 0f       	add	r24, r18
    47e6:	93 1f       	adc	r25, r19
    47e8:	fc 01       	movw	r30, r24
    47ea:	30 81       	ld	r19, Z
    47ec:	89 81       	ldd	r24, Y+1	; 0x01
    47ee:	88 2f       	mov	r24, r24
    47f0:	90 e0       	ldi	r25, 0x00	; 0
    47f2:	02 96       	adiw	r24, 0x02	; 2
    47f4:	88 0f       	add	r24, r24
    47f6:	99 1f       	adc	r25, r25
    47f8:	bc 01       	movw	r22, r24
    47fa:	6d 53       	subi	r22, 0x3D	; 61
    47fc:	7e 4f       	sbci	r23, 0xFE	; 254
    47fe:	89 85       	ldd	r24, Y+9	; 0x09
    4800:	9a 85       	ldd	r25, Y+10	; 0x0a
    4802:	0f 2e       	mov	r0, r31
    4804:	f4 eb       	ldi	r31, 0xB4	; 180
    4806:	ef 2e       	mov	r14, r31
    4808:	f1 2c       	mov	r15, r1
    480a:	f0 2d       	mov	r31, r0
    480c:	08 e1       	ldi	r16, 0x18	; 24
    480e:	11 e0       	ldi	r17, 0x01	; 1
    4810:	23 e0       	ldi	r18, 0x03	; 3
    4812:	43 2f       	mov	r20, r19
    4814:	c6 d0       	rcall	.+396    	; 0x49a2 <_ZN5Menue6doEditERjhhjj>
    4816:	9d 83       	std	Y+5, r25	; 0x05
    4818:	8c 83       	std	Y+4, r24	; 0x04
                if (val != Nvr::setup.vref[p]) {
    481a:	89 81       	ldd	r24, Y+1	; 0x01
    481c:	88 2f       	mov	r24, r24
    481e:	90 e0       	ldi	r25, 0x00	; 0
    4820:	02 96       	adiw	r24, 0x02	; 2
    4822:	88 0f       	add	r24, r24
    4824:	99 1f       	adc	r25, r25
    4826:	8d 53       	subi	r24, 0x3D	; 61
    4828:	9e 4f       	sbci	r25, 0xFE	; 254
    482a:	fc 01       	movw	r30, r24
    482c:	20 81       	ld	r18, Z
    482e:	31 81       	ldd	r19, Z+1	; 0x01
    4830:	8c 81       	ldd	r24, Y+4	; 0x04
    4832:	9d 81       	ldd	r25, Y+5	; 0x05
    4834:	28 17       	cp	r18, r24
    4836:	39 07       	cpc	r19, r25
    4838:	81 f0       	breq	.+32     	; 0x485a <_ZN5Menue9setupVrefEv+0x244>
                    Nvr::setup.vref[p] = val;
    483a:	89 81       	ldd	r24, Y+1	; 0x01
    483c:	88 2f       	mov	r24, r24
    483e:	90 e0       	ldi	r25, 0x00	; 0
    4840:	02 96       	adiw	r24, 0x02	; 2
    4842:	88 0f       	add	r24, r24
    4844:	99 1f       	adc	r25, r25
    4846:	8d 53       	subi	r24, 0x3D	; 61
    4848:	9e 4f       	sbci	r25, 0xFE	; 254
    484a:	2c 81       	ldd	r18, Y+4	; 0x04
    484c:	3d 81       	ldd	r19, Y+5	; 0x05
    484e:	fc 01       	movw	r30, r24
    4850:	31 83       	std	Z+1, r19	; 0x01
    4852:	20 83       	st	Z, r18
                    Nvr::nvr.writeSetup();
    4854:	88 ea       	ldi	r24, 0xA8	; 168
    4856:	91 e0       	ldi	r25, 0x01	; 1
    4858:	0a d5       	rcall	.+2580   	; 0x526e <_ZN3Nvr10writeSetupEv>
                }
                break;
    485a:	00 00       	nop
    x[1] = 6;
    x[2] = 12;
    Lcd::lcd.clear();
    printfLcd(0, 0, " Reference      ");
    printfLcd(1, 0, "    voltages    ");
    do {
    485c:	8b 81       	ldd	r24, Y+3	; 0x03
    485e:	80 32       	cpi	r24, 0x20	; 32
    4860:	21 f0       	breq	.+8      	; 0x486a <_ZN5Menue9setupVrefEv+0x254>
                    Nvr::setup.vref[p] = val;
                    Nvr::nvr.writeSetup();
                }
                break;
        }
    } while (((unsigned char) key != ESC) && ((unsigned char) key != ENT));
    4862:	8b 81       	ldd	r24, Y+3	; 0x03
    4864:	80 38       	cpi	r24, 0x80	; 128
    4866:	09 f0       	breq	.+2      	; 0x486a <_ZN5Menue9setupVrefEv+0x254>
    4868:	1f cf       	rjmp	.-450    	; 0x46a8 <_ZN5Menue9setupVrefEv+0x92>
    if (key == ESC) return;
    486a:	8b 81       	ldd	r24, Y+3	; 0x03
    486c:	80 32       	cpi	r24, 0x20	; 32
    486e:	09 f4       	brne	.+2      	; 0x4872 <_ZN5Menue9setupVrefEv+0x25c>
    4870:	89 c0       	rjmp	.+274    	; 0x4984 <_ZN5Menue9setupVrefEv+0x36e>
	
       // voltageScreen();
    // Voltage reference calculation
    for (n = 0; n < 3; n++) {
    4872:	1a 82       	std	Y+2, r1	; 0x02
    4874:	7f c0       	rjmp	.+254    	; 0x4974 <_ZN5Menue9setupVrefEv+0x35e>
        Nvr::setup.ref[n] = Adc::getRms(n);
    4876:	8a 81       	ldd	r24, Y+2	; 0x02
    4878:	08 2f       	mov	r16, r24
    487a:	10 e0       	ldi	r17, 0x00	; 0
    487c:	8a 81       	ldd	r24, Y+2	; 0x02
    487e:	0e 94 99 15 	call	0x2b32	; 0x2b32 <_ZN3Adc6getRmsEh>
    4882:	9c 01       	movw	r18, r24
    4884:	c8 01       	movw	r24, r16
    4886:	05 96       	adiw	r24, 0x05	; 5
    4888:	88 0f       	add	r24, r24
    488a:	99 1f       	adc	r25, r25
    488c:	8d 53       	subi	r24, 0x3D	; 61
    488e:	9e 4f       	sbci	r25, 0xFE	; 254
    4890:	fc 01       	movw	r30, r24
    4892:	31 83       	std	Z+1, r19	; 0x01
    4894:	20 83       	st	Z, r18
        Nvr::setup.refTop[n] =
    4896:	8a 81       	ldd	r24, Y+2	; 0x02
    4898:	08 2f       	mov	r16, r24
    489a:	10 e0       	ldi	r17, 0x00	; 0
            (unsigned) ((unsigned long) Nvr::setup.ref[n] * VTOP /
    489c:	8a 81       	ldd	r24, Y+2	; 0x02
    489e:	88 2f       	mov	r24, r24
    48a0:	90 e0       	ldi	r25, 0x00	; 0
    48a2:	05 96       	adiw	r24, 0x05	; 5
    48a4:	88 0f       	add	r24, r24
    48a6:	99 1f       	adc	r25, r25
    48a8:	8d 53       	subi	r24, 0x3D	; 61
    48aa:	9e 4f       	sbci	r25, 0xFE	; 254
    48ac:	fc 01       	movw	r30, r24
    48ae:	80 81       	ld	r24, Z
    48b0:	91 81       	ldd	r25, Z+1	; 0x01
    48b2:	9c 01       	movw	r18, r24
    48b4:	40 e0       	ldi	r20, 0x00	; 0
    48b6:	50 e0       	ldi	r21, 0x00	; 0
    48b8:	86 ee       	ldi	r24, 0xE6	; 230
    48ba:	90 e0       	ldi	r25, 0x00	; 0
    48bc:	dc 01       	movw	r26, r24
    48be:	0e 94 00 33 	call	0x6600	; 0x6600 <__muluhisi3>
    48c2:	6b 01       	movw	r12, r22
    48c4:	7c 01       	movw	r14, r24
                        Nvr::setup.vref[n]);
    48c6:	8a 81       	ldd	r24, Y+2	; 0x02
    48c8:	88 2f       	mov	r24, r24
    48ca:	90 e0       	ldi	r25, 0x00	; 0
    48cc:	02 96       	adiw	r24, 0x02	; 2
    48ce:	88 0f       	add	r24, r24
    48d0:	99 1f       	adc	r25, r25
    48d2:	8d 53       	subi	r24, 0x3D	; 61
    48d4:	9e 4f       	sbci	r25, 0xFE	; 254
    48d6:	fc 01       	movw	r30, r24
    48d8:	80 81       	ld	r24, Z
    48da:	91 81       	ldd	r25, Z+1	; 0x01
       // voltageScreen();
    // Voltage reference calculation
    for (n = 0; n < 3; n++) {
        Nvr::setup.ref[n] = Adc::getRms(n);
        Nvr::setup.refTop[n] =
            (unsigned) ((unsigned long) Nvr::setup.ref[n] * VTOP /
    48dc:	9c 01       	movw	r18, r24
    48de:	40 e0       	ldi	r20, 0x00	; 0
    48e0:	50 e0       	ldi	r21, 0x00	; 0
    48e2:	c7 01       	movw	r24, r14
    48e4:	b6 01       	movw	r22, r12
    48e6:	0e 94 cf 32 	call	0x659e	; 0x659e <__udivmodsi4>
    48ea:	da 01       	movw	r26, r20
    48ec:	c9 01       	movw	r24, r18
                        Nvr::setup.vref[n]);
    48ee:	9c 01       	movw	r18, r24
    48f0:	c8 01       	movw	r24, r16
    48f2:	08 96       	adiw	r24, 0x08	; 8
    48f4:	88 0f       	add	r24, r24
    48f6:	99 1f       	adc	r25, r25
    48f8:	8d 53       	subi	r24, 0x3D	; 61
    48fa:	9e 4f       	sbci	r25, 0xFE	; 254
    48fc:	fc 01       	movw	r30, r24
    48fe:	31 83       	std	Z+1, r19	; 0x01
    4900:	20 83       	st	Z, r18
        Nvr::setup.refBot[n] =
    4902:	8a 81       	ldd	r24, Y+2	; 0x02
    4904:	08 2f       	mov	r16, r24
    4906:	10 e0       	ldi	r17, 0x00	; 0
            (unsigned) ((unsigned long) Nvr::setup.ref[n] * VBOT /
    4908:	8a 81       	ldd	r24, Y+2	; 0x02
    490a:	88 2f       	mov	r24, r24
    490c:	90 e0       	ldi	r25, 0x00	; 0
    490e:	05 96       	adiw	r24, 0x05	; 5
    4910:	88 0f       	add	r24, r24
    4912:	99 1f       	adc	r25, r25
    4914:	8d 53       	subi	r24, 0x3D	; 61
    4916:	9e 4f       	sbci	r25, 0xFE	; 254
    4918:	fc 01       	movw	r30, r24
    491a:	80 81       	ld	r24, Z
    491c:	91 81       	ldd	r25, Z+1	; 0x01
    491e:	9c 01       	movw	r18, r24
    4920:	40 e0       	ldi	r20, 0x00	; 0
    4922:	50 e0       	ldi	r21, 0x00	; 0
    4924:	84 eb       	ldi	r24, 0xB4	; 180
    4926:	90 e0       	ldi	r25, 0x00	; 0
    4928:	dc 01       	movw	r26, r24
    492a:	0e 94 00 33 	call	0x6600	; 0x6600 <__muluhisi3>
    492e:	6b 01       	movw	r12, r22
    4930:	7c 01       	movw	r14, r24
                        Nvr::setup.vref[n]);
    4932:	8a 81       	ldd	r24, Y+2	; 0x02
    4934:	88 2f       	mov	r24, r24
    4936:	90 e0       	ldi	r25, 0x00	; 0
    4938:	02 96       	adiw	r24, 0x02	; 2
    493a:	88 0f       	add	r24, r24
    493c:	99 1f       	adc	r25, r25
    493e:	8d 53       	subi	r24, 0x3D	; 61
    4940:	9e 4f       	sbci	r25, 0xFE	; 254
    4942:	fc 01       	movw	r30, r24
    4944:	80 81       	ld	r24, Z
    4946:	91 81       	ldd	r25, Z+1	; 0x01
        Nvr::setup.ref[n] = Adc::getRms(n);
        Nvr::setup.refTop[n] =
            (unsigned) ((unsigned long) Nvr::setup.ref[n] * VTOP /
                        Nvr::setup.vref[n]);
        Nvr::setup.refBot[n] =
            (unsigned) ((unsigned long) Nvr::setup.ref[n] * VBOT /
    4948:	9c 01       	movw	r18, r24
    494a:	40 e0       	ldi	r20, 0x00	; 0
    494c:	50 e0       	ldi	r21, 0x00	; 0
    494e:	c7 01       	movw	r24, r14
    4950:	b6 01       	movw	r22, r12
    4952:	0e 94 cf 32 	call	0x659e	; 0x659e <__udivmodsi4>
    4956:	da 01       	movw	r26, r20
    4958:	c9 01       	movw	r24, r18
                        Nvr::setup.vref[n]);
    495a:	9c 01       	movw	r18, r24
    495c:	c8 01       	movw	r24, r16
    495e:	0b 96       	adiw	r24, 0x0b	; 11
    4960:	88 0f       	add	r24, r24
    4962:	99 1f       	adc	r25, r25
    4964:	8d 53       	subi	r24, 0x3D	; 61
    4966:	9e 4f       	sbci	r25, 0xFE	; 254
    4968:	fc 01       	movw	r30, r24
    496a:	31 83       	std	Z+1, r19	; 0x01
    496c:	20 83       	st	Z, r18
    } while (((unsigned char) key != ESC) && ((unsigned char) key != ENT));
    if (key == ESC) return;
	
       // voltageScreen();
    // Voltage reference calculation
    for (n = 0; n < 3; n++) {
    496e:	8a 81       	ldd	r24, Y+2	; 0x02
    4970:	8f 5f       	subi	r24, 0xFF	; 255
    4972:	8a 83       	std	Y+2, r24	; 0x02
    4974:	8a 81       	ldd	r24, Y+2	; 0x02
    4976:	83 30       	cpi	r24, 0x03	; 3
    4978:	08 f4       	brcc	.+2      	; 0x497c <_ZN5Menue9setupVrefEv+0x366>
    497a:	7d cf       	rjmp	.-262    	; 0x4876 <_ZN5Menue9setupVrefEv+0x260>
                        Nvr::setup.vref[n]);
        Nvr::setup.refBot[n] =
            (unsigned) ((unsigned long) Nvr::setup.ref[n] * VBOT /
                        Nvr::setup.vref[n]);
    }
    Nvr::nvr.writeSetup();
    497c:	88 ea       	ldi	r24, 0xA8	; 168
    497e:	91 e0       	ldi	r25, 0x01	; 1
    4980:	76 d4       	rcall	.+2284   	; 0x526e <_ZN3Nvr10writeSetupEv>
    wdt_reset();
    4982:	a8 95       	wdr
}
    4984:	62 96       	adiw	r28, 0x12	; 18
    4986:	0f b6       	in	r0, 0x3f	; 63
    4988:	f8 94       	cli
    498a:	de bf       	out	0x3e, r29	; 62
    498c:	0f be       	out	0x3f, r0	; 63
    498e:	cd bf       	out	0x3d, r28	; 61
    4990:	df 91       	pop	r29
    4992:	cf 91       	pop	r28
    4994:	1f 91       	pop	r17
    4996:	0f 91       	pop	r16
    4998:	ff 90       	pop	r15
    499a:	ef 90       	pop	r14
    499c:	df 90       	pop	r13
    499e:	cf 90       	pop	r12
    49a0:	08 95       	ret

000049a2 <_ZN5Menue6doEditERjhhjj>:
/*!
    Basic number editing
 */
unsigned int Menue::doEdit(unsigned int &param, unsigned char x, 
                           unsigned char n, unsigned int max, unsigned int min)
{
    49a2:	ef 92       	push	r14
    49a4:	ff 92       	push	r15
    49a6:	0f 93       	push	r16
    49a8:	1f 93       	push	r17
    49aa:	cf 93       	push	r28
    49ac:	df 93       	push	r29
    49ae:	cd b7       	in	r28, 0x3d	; 61
    49b0:	de b7       	in	r29, 0x3e	; 62
    49b2:	66 97       	sbiw	r28, 0x16	; 22
    49b4:	0f b6       	in	r0, 0x3f	; 63
    49b6:	f8 94       	cli
    49b8:	de bf       	out	0x3e, r29	; 62
    49ba:	0f be       	out	0x3f, r0	; 63
    49bc:	cd bf       	out	0x3d, r28	; 61
    49be:	9e 87       	std	Y+14, r25	; 0x0e
    49c0:	8d 87       	std	Y+13, r24	; 0x0d
    49c2:	78 8b       	std	Y+16, r23	; 0x10
    49c4:	6f 87       	std	Y+15, r22	; 0x0f
    49c6:	49 8b       	std	Y+17, r20	; 0x11
    49c8:	2a 8b       	std	Y+18, r18	; 0x12
    49ca:	1c 8b       	std	Y+20, r17	; 0x14
    49cc:	0b 8b       	std	Y+19, r16	; 0x13
    49ce:	fe 8a       	std	Y+22, r15	; 0x16
    49d0:	ed 8a       	std	Y+21, r14	; 0x15
    if (n>4) n=4;
    49d2:	8a 89       	ldd	r24, Y+18	; 0x12
    49d4:	85 30       	cpi	r24, 0x05	; 5
    49d6:	10 f0       	brcs	.+4      	; 0x49dc <_ZN5Menue6doEditERjhhjj+0x3a>
    49d8:	84 e0       	ldi	r24, 0x04	; 4
    49da:	8a 8b       	std	Y+18, r24	; 0x12
    static unsigned char d[4];
    unsigned char term = 0, p = 0;
    49dc:	19 82       	std	Y+1, r1	; 0x01
    49de:	1a 82       	std	Y+2, r1	; 0x02
    unsigned int val = param;
    49e0:	8f 85       	ldd	r24, Y+15	; 0x0f
    49e2:	98 89       	ldd	r25, Y+16	; 0x10
    49e4:	fc 01       	movw	r30, r24
    49e6:	80 81       	ld	r24, Z
    49e8:	91 81       	ldd	r25, Z+1	; 0x01
    49ea:	9c 83       	std	Y+4, r25	; 0x04
    49ec:	8b 83       	std	Y+3, r24	; 0x03
    unsigned char key;
    for (unsigned char i = 0; i < 4; i++) {
    49ee:	1d 82       	std	Y+5, r1	; 0x05
    49f0:	35 c0       	rjmp	.+106    	; 0x4a5c <_ZN5Menue6doEditERjhhjj+0xba>
        d[i] = val % 10;
    49f2:	8d 81       	ldd	r24, Y+5	; 0x05
    49f4:	e8 2f       	mov	r30, r24
    49f6:	f0 e0       	ldi	r31, 0x00	; 0
    49f8:	4b 81       	ldd	r20, Y+3	; 0x03
    49fa:	5c 81       	ldd	r21, Y+4	; 0x04
    49fc:	9a 01       	movw	r18, r20
    49fe:	ad ec       	ldi	r26, 0xCD	; 205
    4a00:	bc ec       	ldi	r27, 0xCC	; 204
    4a02:	0e 94 f1 32 	call	0x65e2	; 0x65e2 <__umulhisi3>
    4a06:	96 95       	lsr	r25
    4a08:	87 95       	ror	r24
    4a0a:	96 95       	lsr	r25
    4a0c:	87 95       	ror	r24
    4a0e:	96 95       	lsr	r25
    4a10:	87 95       	ror	r24
    4a12:	88 0f       	add	r24, r24
    4a14:	99 1f       	adc	r25, r25
    4a16:	9c 01       	movw	r18, r24
    4a18:	22 0f       	add	r18, r18
    4a1a:	33 1f       	adc	r19, r19
    4a1c:	22 0f       	add	r18, r18
    4a1e:	33 1f       	adc	r19, r19
    4a20:	82 0f       	add	r24, r18
    4a22:	93 1f       	adc	r25, r19
    4a24:	9a 01       	movw	r18, r20
    4a26:	28 1b       	sub	r18, r24
    4a28:	39 0b       	sbc	r19, r25
    4a2a:	c9 01       	movw	r24, r18
    4a2c:	28 2f       	mov	r18, r24
    4a2e:	cf 01       	movw	r24, r30
    4a30:	8c 55       	subi	r24, 0x5C	; 92
    4a32:	9e 4f       	sbci	r25, 0xFE	; 254
    4a34:	fc 01       	movw	r30, r24
    4a36:	20 83       	st	Z, r18
        val = val / 10;
    4a38:	8b 81       	ldd	r24, Y+3	; 0x03
    4a3a:	9c 81       	ldd	r25, Y+4	; 0x04
    4a3c:	9c 01       	movw	r18, r24
    4a3e:	ad ec       	ldi	r26, 0xCD	; 205
    4a40:	bc ec       	ldi	r27, 0xCC	; 204
    4a42:	0e 94 f1 32 	call	0x65e2	; 0x65e2 <__umulhisi3>
    4a46:	96 95       	lsr	r25
    4a48:	87 95       	ror	r24
    4a4a:	96 95       	lsr	r25
    4a4c:	87 95       	ror	r24
    4a4e:	96 95       	lsr	r25
    4a50:	87 95       	ror	r24
    4a52:	9c 83       	std	Y+4, r25	; 0x04
    4a54:	8b 83       	std	Y+3, r24	; 0x03
    if (n>4) n=4;
    static unsigned char d[4];
    unsigned char term = 0, p = 0;
    unsigned int val = param;
    unsigned char key;
    for (unsigned char i = 0; i < 4; i++) {
    4a56:	8d 81       	ldd	r24, Y+5	; 0x05
    4a58:	8f 5f       	subi	r24, 0xFF	; 255
    4a5a:	8d 83       	std	Y+5, r24	; 0x05
    4a5c:	8d 81       	ldd	r24, Y+5	; 0x05
    4a5e:	84 30       	cpi	r24, 0x04	; 4
    4a60:	40 f2       	brcs	.-112    	; 0x49f2 <_ZN5Menue6doEditERjhhjj+0x50>
        d[i] = val % 10;
        val = val / 10;
    }
    Kbd::autoRepeat = 1;
    4a62:	81 e0       	ldi	r24, 0x01	; 1
    4a64:	80 93 94 01 	sts	0x0194, r24
    do {
        val = d[0] + d[1] * 10 + d[2] * 100 + d[3] * 1000;
    4a68:	80 91 a4 01 	lds	r24, 0x01A4
    4a6c:	28 2f       	mov	r18, r24
    4a6e:	30 e0       	ldi	r19, 0x00	; 0
    4a70:	80 91 a5 01 	lds	r24, 0x01A5
    4a74:	88 2f       	mov	r24, r24
    4a76:	90 e0       	ldi	r25, 0x00	; 0
    4a78:	88 0f       	add	r24, r24
    4a7a:	99 1f       	adc	r25, r25
    4a7c:	ac 01       	movw	r20, r24
    4a7e:	44 0f       	add	r20, r20
    4a80:	55 1f       	adc	r21, r21
    4a82:	44 0f       	add	r20, r20
    4a84:	55 1f       	adc	r21, r21
    4a86:	84 0f       	add	r24, r20
    4a88:	95 1f       	adc	r25, r21
    4a8a:	28 0f       	add	r18, r24
    4a8c:	39 1f       	adc	r19, r25
    4a8e:	80 91 a6 01 	lds	r24, 0x01A6
    4a92:	48 2f       	mov	r20, r24
    4a94:	50 e0       	ldi	r21, 0x00	; 0
    4a96:	64 e6       	ldi	r22, 0x64	; 100
    4a98:	64 9f       	mul	r22, r20
    4a9a:	c0 01       	movw	r24, r0
    4a9c:	65 9f       	mul	r22, r21
    4a9e:	90 0d       	add	r25, r0
    4aa0:	11 24       	eor	r1, r1
    4aa2:	28 0f       	add	r18, r24
    4aa4:	39 1f       	adc	r19, r25
    4aa6:	80 91 a7 01 	lds	r24, 0x01A7
    4aaa:	68 2f       	mov	r22, r24
    4aac:	70 e0       	ldi	r23, 0x00	; 0
    4aae:	48 ee       	ldi	r20, 0xE8	; 232
    4ab0:	53 e0       	ldi	r21, 0x03	; 3
    4ab2:	64 9f       	mul	r22, r20
    4ab4:	c0 01       	movw	r24, r0
    4ab6:	65 9f       	mul	r22, r21
    4ab8:	90 0d       	add	r25, r0
    4aba:	74 9f       	mul	r23, r20
    4abc:	90 0d       	add	r25, r0
    4abe:	11 24       	eor	r1, r1
    4ac0:	82 0f       	add	r24, r18
    4ac2:	93 1f       	adc	r25, r19
    4ac4:	9c 83       	std	Y+4, r25	; 0x04
    4ac6:	8b 83       	std	Y+3, r24	; 0x03
        if (val>max) {
    4ac8:	2b 81       	ldd	r18, Y+3	; 0x03
    4aca:	3c 81       	ldd	r19, Y+4	; 0x04
    4acc:	8b 89       	ldd	r24, Y+19	; 0x13
    4ace:	9c 89       	ldd	r25, Y+20	; 0x14
    4ad0:	82 17       	cp	r24, r18
    4ad2:	93 07       	cpc	r25, r19
    4ad4:	08 f0       	brcs	.+2      	; 0x4ad8 <_ZN5Menue6doEditERjhhjj+0x136>
    4ad6:	42 c0       	rjmp	.+132    	; 0x4b5c <_ZN5Menue6doEditERjhhjj+0x1ba>
        	val=max;
    4ad8:	8b 89       	ldd	r24, Y+19	; 0x13
    4ada:	9c 89       	ldd	r25, Y+20	; 0x14
    4adc:	9c 83       	std	Y+4, r25	; 0x04
    4ade:	8b 83       	std	Y+3, r24	; 0x03
        	unsigned int val1=val;
    4ae0:	8b 81       	ldd	r24, Y+3	; 0x03
    4ae2:	9c 81       	ldd	r25, Y+4	; 0x04
    4ae4:	9f 83       	std	Y+7, r25	; 0x07
    4ae6:	8e 83       	std	Y+6, r24	; 0x06
		    for (unsigned char i = 0; i < 4; i++) {
    4ae8:	18 86       	std	Y+8, r1	; 0x08
    4aea:	35 c0       	rjmp	.+106    	; 0x4b56 <_ZN5Menue6doEditERjhhjj+0x1b4>
		        d[i] = val1 % 10;
    4aec:	88 85       	ldd	r24, Y+8	; 0x08
    4aee:	e8 2f       	mov	r30, r24
    4af0:	f0 e0       	ldi	r31, 0x00	; 0
    4af2:	4e 81       	ldd	r20, Y+6	; 0x06
    4af4:	5f 81       	ldd	r21, Y+7	; 0x07
    4af6:	9a 01       	movw	r18, r20
    4af8:	ad ec       	ldi	r26, 0xCD	; 205
    4afa:	bc ec       	ldi	r27, 0xCC	; 204
    4afc:	0e 94 f1 32 	call	0x65e2	; 0x65e2 <__umulhisi3>
    4b00:	96 95       	lsr	r25
    4b02:	87 95       	ror	r24
    4b04:	96 95       	lsr	r25
    4b06:	87 95       	ror	r24
    4b08:	96 95       	lsr	r25
    4b0a:	87 95       	ror	r24
    4b0c:	88 0f       	add	r24, r24
    4b0e:	99 1f       	adc	r25, r25
    4b10:	9c 01       	movw	r18, r24
    4b12:	22 0f       	add	r18, r18
    4b14:	33 1f       	adc	r19, r19
    4b16:	22 0f       	add	r18, r18
    4b18:	33 1f       	adc	r19, r19
    4b1a:	82 0f       	add	r24, r18
    4b1c:	93 1f       	adc	r25, r19
    4b1e:	9a 01       	movw	r18, r20
    4b20:	28 1b       	sub	r18, r24
    4b22:	39 0b       	sbc	r19, r25
    4b24:	c9 01       	movw	r24, r18
    4b26:	28 2f       	mov	r18, r24
    4b28:	cf 01       	movw	r24, r30
    4b2a:	8c 55       	subi	r24, 0x5C	; 92
    4b2c:	9e 4f       	sbci	r25, 0xFE	; 254
    4b2e:	fc 01       	movw	r30, r24
    4b30:	20 83       	st	Z, r18
		        val1 = val1 / 10;
    4b32:	8e 81       	ldd	r24, Y+6	; 0x06
    4b34:	9f 81       	ldd	r25, Y+7	; 0x07
    4b36:	9c 01       	movw	r18, r24
    4b38:	ad ec       	ldi	r26, 0xCD	; 205
    4b3a:	bc ec       	ldi	r27, 0xCC	; 204
    4b3c:	0e 94 f1 32 	call	0x65e2	; 0x65e2 <__umulhisi3>
    4b40:	96 95       	lsr	r25
    4b42:	87 95       	ror	r24
    4b44:	96 95       	lsr	r25
    4b46:	87 95       	ror	r24
    4b48:	96 95       	lsr	r25
    4b4a:	87 95       	ror	r24
    4b4c:	9f 83       	std	Y+7, r25	; 0x07
    4b4e:	8e 83       	std	Y+6, r24	; 0x06
    do {
        val = d[0] + d[1] * 10 + d[2] * 100 + d[3] * 1000;
        if (val>max) {
        	val=max;
        	unsigned int val1=val;
		    for (unsigned char i = 0; i < 4; i++) {
    4b50:	88 85       	ldd	r24, Y+8	; 0x08
    4b52:	8f 5f       	subi	r24, 0xFF	; 255
    4b54:	88 87       	std	Y+8, r24	; 0x08
    4b56:	88 85       	ldd	r24, Y+8	; 0x08
    4b58:	84 30       	cpi	r24, 0x04	; 4
    4b5a:	40 f2       	brcs	.-112    	; 0x4aec <_ZN5Menue6doEditERjhhjj+0x14a>
		        d[i] = val1 % 10;
		        val1 = val1 / 10;
		    }
        }
        if (val<min) {
    4b5c:	2b 81       	ldd	r18, Y+3	; 0x03
    4b5e:	3c 81       	ldd	r19, Y+4	; 0x04
    4b60:	8d 89       	ldd	r24, Y+21	; 0x15
    4b62:	9e 89       	ldd	r25, Y+22	; 0x16
    4b64:	28 17       	cp	r18, r24
    4b66:	39 07       	cpc	r19, r25
    4b68:	08 f0       	brcs	.+2      	; 0x4b6c <_ZN5Menue6doEditERjhhjj+0x1ca>
    4b6a:	42 c0       	rjmp	.+132    	; 0x4bf0 <_ZN5Menue6doEditERjhhjj+0x24e>
        	val=min;
    4b6c:	8d 89       	ldd	r24, Y+21	; 0x15
    4b6e:	9e 89       	ldd	r25, Y+22	; 0x16
    4b70:	9c 83       	std	Y+4, r25	; 0x04
    4b72:	8b 83       	std	Y+3, r24	; 0x03
        	unsigned int val2=val;
    4b74:	8b 81       	ldd	r24, Y+3	; 0x03
    4b76:	9c 81       	ldd	r25, Y+4	; 0x04
    4b78:	9a 87       	std	Y+10, r25	; 0x0a
    4b7a:	89 87       	std	Y+9, r24	; 0x09
		    for (unsigned char i = 0; i < 4; i++) {
    4b7c:	1b 86       	std	Y+11, r1	; 0x0b
    4b7e:	35 c0       	rjmp	.+106    	; 0x4bea <_ZN5Menue6doEditERjhhjj+0x248>
		        d[i] = val2 % 10;
    4b80:	8b 85       	ldd	r24, Y+11	; 0x0b
    4b82:	e8 2f       	mov	r30, r24
    4b84:	f0 e0       	ldi	r31, 0x00	; 0
    4b86:	49 85       	ldd	r20, Y+9	; 0x09
    4b88:	5a 85       	ldd	r21, Y+10	; 0x0a
    4b8a:	9a 01       	movw	r18, r20
    4b8c:	ad ec       	ldi	r26, 0xCD	; 205
    4b8e:	bc ec       	ldi	r27, 0xCC	; 204
    4b90:	0e 94 f1 32 	call	0x65e2	; 0x65e2 <__umulhisi3>
    4b94:	96 95       	lsr	r25
    4b96:	87 95       	ror	r24
    4b98:	96 95       	lsr	r25
    4b9a:	87 95       	ror	r24
    4b9c:	96 95       	lsr	r25
    4b9e:	87 95       	ror	r24
    4ba0:	88 0f       	add	r24, r24
    4ba2:	99 1f       	adc	r25, r25
    4ba4:	9c 01       	movw	r18, r24
    4ba6:	22 0f       	add	r18, r18
    4ba8:	33 1f       	adc	r19, r19
    4baa:	22 0f       	add	r18, r18
    4bac:	33 1f       	adc	r19, r19
    4bae:	82 0f       	add	r24, r18
    4bb0:	93 1f       	adc	r25, r19
    4bb2:	9a 01       	movw	r18, r20
    4bb4:	28 1b       	sub	r18, r24
    4bb6:	39 0b       	sbc	r19, r25
    4bb8:	c9 01       	movw	r24, r18
    4bba:	28 2f       	mov	r18, r24
    4bbc:	cf 01       	movw	r24, r30
    4bbe:	8c 55       	subi	r24, 0x5C	; 92
    4bc0:	9e 4f       	sbci	r25, 0xFE	; 254
    4bc2:	fc 01       	movw	r30, r24
    4bc4:	20 83       	st	Z, r18
		        val2 = val2 / 10;
    4bc6:	89 85       	ldd	r24, Y+9	; 0x09
    4bc8:	9a 85       	ldd	r25, Y+10	; 0x0a
    4bca:	9c 01       	movw	r18, r24
    4bcc:	ad ec       	ldi	r26, 0xCD	; 205
    4bce:	bc ec       	ldi	r27, 0xCC	; 204
    4bd0:	0e 94 f1 32 	call	0x65e2	; 0x65e2 <__umulhisi3>
    4bd4:	96 95       	lsr	r25
    4bd6:	87 95       	ror	r24
    4bd8:	96 95       	lsr	r25
    4bda:	87 95       	ror	r24
    4bdc:	96 95       	lsr	r25
    4bde:	87 95       	ror	r24
    4be0:	9a 87       	std	Y+10, r25	; 0x0a
    4be2:	89 87       	std	Y+9, r24	; 0x09
		    }
        }
        if (val<min) {
        	val=min;
        	unsigned int val2=val;
		    for (unsigned char i = 0; i < 4; i++) {
    4be4:	8b 85       	ldd	r24, Y+11	; 0x0b
    4be6:	8f 5f       	subi	r24, 0xFF	; 255
    4be8:	8b 87       	std	Y+11, r24	; 0x0b
    4bea:	8b 85       	ldd	r24, Y+11	; 0x0b
    4bec:	84 30       	cpi	r24, 0x04	; 4
    4bee:	40 f2       	brcs	.-112    	; 0x4b80 <_ZN5Menue6doEditERjhhjj+0x1de>
		        d[i] = val2 % 10;
		        val2 = val2 / 10;
		    }
        }
        wdt_reset();
    4bf0:	a8 95       	wdr
        if (n<4)
    4bf2:	8a 89       	ldd	r24, Y+18	; 0x12
    4bf4:	84 30       	cpi	r24, 0x04	; 4
    4bf6:	00 f5       	brcc	.+64     	; 0x4c38 <_ZN5Menue6doEditERjhhjj+0x296>
            printfLcd(3, x, "%03d", val);
    4bf8:	84 e2       	ldi	r24, 0x24	; 36
    4bfa:	9c e0       	ldi	r25, 0x0C	; 12
    4bfc:	2c 81       	ldd	r18, Y+4	; 0x04
    4bfe:	2f 93       	push	r18
    4c00:	2b 81       	ldd	r18, Y+3	; 0x03
    4c02:	2f 93       	push	r18
    4c04:	29 2f       	mov	r18, r25
    4c06:	2f 93       	push	r18
    4c08:	8f 93       	push	r24
    4c0a:	89 89       	ldd	r24, Y+17	; 0x11
    4c0c:	8f 93       	push	r24
    4c0e:	83 e0       	ldi	r24, 0x03	; 3
    4c10:	8f 93       	push	r24
    4c12:	8e e9       	ldi	r24, 0x9E	; 158
    4c14:	91 e0       	ldi	r25, 0x01	; 1
    4c16:	89 2f       	mov	r24, r25
    4c18:	8f 93       	push	r24
    4c1a:	8e e9       	ldi	r24, 0x9E	; 158
    4c1c:	91 e0       	ldi	r25, 0x01	; 1
    4c1e:	8f 93       	push	r24
    4c20:	0e 94 3f 15 	call	0x2a7e	; 0x2a7e <_ZN3Lcd5printEhhPKcz>
    4c24:	2d b7       	in	r18, 0x3d	; 61
    4c26:	3e b7       	in	r19, 0x3e	; 62
    4c28:	28 5f       	subi	r18, 0xF8	; 248
    4c2a:	3f 4f       	sbci	r19, 0xFF	; 255
    4c2c:	0f b6       	in	r0, 0x3f	; 63
    4c2e:	f8 94       	cli
    4c30:	de bf       	out	0x3e, r29	; 62
    4c32:	0f be       	out	0x3f, r0	; 63
    4c34:	cd bf       	out	0x3d, r28	; 61
    4c36:	1e c0       	rjmp	.+60     	; 0x4c74 <_ZN5Menue6doEditERjhhjj+0x2d2>
        else
            printfLcd(3, x, "%04d", val);
    4c38:	89 e2       	ldi	r24, 0x29	; 41
    4c3a:	9c e0       	ldi	r25, 0x0C	; 12
    4c3c:	2c 81       	ldd	r18, Y+4	; 0x04
    4c3e:	2f 93       	push	r18
    4c40:	2b 81       	ldd	r18, Y+3	; 0x03
    4c42:	2f 93       	push	r18
    4c44:	29 2f       	mov	r18, r25
    4c46:	2f 93       	push	r18
    4c48:	8f 93       	push	r24
    4c4a:	89 89       	ldd	r24, Y+17	; 0x11
    4c4c:	8f 93       	push	r24
    4c4e:	83 e0       	ldi	r24, 0x03	; 3
    4c50:	8f 93       	push	r24
    4c52:	8e e9       	ldi	r24, 0x9E	; 158
    4c54:	91 e0       	ldi	r25, 0x01	; 1
    4c56:	89 2f       	mov	r24, r25
    4c58:	8f 93       	push	r24
    4c5a:	8e e9       	ldi	r24, 0x9E	; 158
    4c5c:	91 e0       	ldi	r25, 0x01	; 1
    4c5e:	8f 93       	push	r24
    4c60:	0e 94 3f 15 	call	0x2a7e	; 0x2a7e <_ZN3Lcd5printEhhPKcz>
    4c64:	8d b7       	in	r24, 0x3d	; 61
    4c66:	9e b7       	in	r25, 0x3e	; 62
    4c68:	08 96       	adiw	r24, 0x08	; 8
    4c6a:	0f b6       	in	r0, 0x3f	; 63
    4c6c:	f8 94       	cli
    4c6e:	de bf       	out	0x3e, r29	; 62
    4c70:	0f be       	out	0x3f, r0	; 63
    4c72:	cd bf       	out	0x3d, r28	; 61
        Lcd::lcd.goTo(3, x + (n-1) - p);
    4c74:	9a 89       	ldd	r25, Y+18	; 0x12
    4c76:	89 89       	ldd	r24, Y+17	; 0x11
    4c78:	98 0f       	add	r25, r24
    4c7a:	8a 81       	ldd	r24, Y+2	; 0x02
    4c7c:	e9 2f       	mov	r30, r25
    4c7e:	e8 1b       	sub	r30, r24
    4c80:	8e 2f       	mov	r24, r30
    4c82:	81 50       	subi	r24, 0x01	; 1
    4c84:	48 2f       	mov	r20, r24
    4c86:	63 e0       	ldi	r22, 0x03	; 3
    4c88:	8e e9       	ldi	r24, 0x9E	; 158
    4c8a:	91 e0       	ldi	r25, 0x01	; 1
    4c8c:	0e 94 04 15 	call	0x2a08	; 0x2a08 <_ZN3Lcd4goToEhh>
        switch (key=getch()) {
    4c90:	8d 85       	ldd	r24, Y+13	; 0x0d
    4c92:	9e 85       	ldd	r25, Y+14	; 0x0e
    4c94:	c6 d1       	rcall	.+908    	; 0x5022 <_ZN5Menue5getchEv>
    4c96:	8c 87       	std	Y+12, r24	; 0x0c
    4c98:	8c 85       	ldd	r24, Y+12	; 0x0c
    4c9a:	88 2f       	mov	r24, r24
    4c9c:	90 e0       	ldi	r25, 0x00	; 0
    4c9e:	80 31       	cpi	r24, 0x10	; 16
    4ca0:	91 05       	cpc	r25, r1
    4ca2:	a1 f0       	breq	.+40     	; 0x4ccc <_ZN5Menue6doEditERjhhjj+0x32a>
    4ca4:	81 31       	cpi	r24, 0x11	; 17
    4ca6:	91 05       	cpc	r25, r1
    4ca8:	34 f4       	brge	.+12     	; 0x4cb6 <_ZN5Menue6doEditERjhhjj+0x314>
    4caa:	84 30       	cpi	r24, 0x04	; 4
    4cac:	91 05       	cpc	r25, r1
    4cae:	a9 f0       	breq	.+42     	; 0x4cda <_ZN5Menue6doEditERjhhjj+0x338>
    4cb0:	08 97       	sbiw	r24, 0x08	; 8
    4cb2:	09 f1       	breq	.+66     	; 0x4cf6 <_ZN5Menue6doEditERjhhjj+0x354>
    4cb4:	58 c0       	rjmp	.+176    	; 0x4d66 <_ZN5Menue6doEditERjhhjj+0x3c4>
    4cb6:	80 34       	cpi	r24, 0x40	; 64
    4cb8:	91 05       	cpc	r25, r1
    4cba:	a1 f1       	breq	.+104    	; 0x4d24 <_ZN5Menue6doEditERjhhjj+0x382>
    4cbc:	80 38       	cpi	r24, 0x80	; 128
    4cbe:	91 05       	cpc	r25, r1
    4cc0:	09 f4       	brne	.+2      	; 0x4cc4 <_ZN5Menue6doEditERjhhjj+0x322>
    4cc2:	4e c0       	rjmp	.+156    	; 0x4d60 <_ZN5Menue6doEditERjhhjj+0x3be>
    4cc4:	80 97       	sbiw	r24, 0x20	; 32
    4cc6:	09 f4       	brne	.+2      	; 0x4cca <_ZN5Menue6doEditERjhhjj+0x328>
    4cc8:	44 c0       	rjmp	.+136    	; 0x4d52 <_ZN5Menue6doEditERjhhjj+0x3b0>
    4cca:	4d c0       	rjmp	.+154    	; 0x4d66 <_ZN5Menue6doEditERjhhjj+0x3c4>
            case FORW:
                if (p)
    4ccc:	8a 81       	ldd	r24, Y+2	; 0x02
    4cce:	88 23       	and	r24, r24
    4cd0:	19 f0       	breq	.+6      	; 0x4cd8 <_ZN5Menue6doEditERjhhjj+0x336>
                    p--;
    4cd2:	8a 81       	ldd	r24, Y+2	; 0x02
    4cd4:	81 50       	subi	r24, 0x01	; 1
    4cd6:	8a 83       	std	Y+2, r24	; 0x02
                break;
    4cd8:	46 c0       	rjmp	.+140    	; 0x4d66 <_ZN5Menue6doEditERjhhjj+0x3c4>
            case BACK:
                if (p < (n-1))
    4cda:	8a 81       	ldd	r24, Y+2	; 0x02
    4cdc:	28 2f       	mov	r18, r24
    4cde:	30 e0       	ldi	r19, 0x00	; 0
    4ce0:	8a 89       	ldd	r24, Y+18	; 0x12
    4ce2:	88 2f       	mov	r24, r24
    4ce4:	90 e0       	ldi	r25, 0x00	; 0
    4ce6:	01 97       	sbiw	r24, 0x01	; 1
    4ce8:	28 17       	cp	r18, r24
    4cea:	39 07       	cpc	r19, r25
    4cec:	1c f4       	brge	.+6      	; 0x4cf4 <_ZN5Menue6doEditERjhhjj+0x352>
                    p++;
    4cee:	8a 81       	ldd	r24, Y+2	; 0x02
    4cf0:	8f 5f       	subi	r24, 0xFF	; 255
    4cf2:	8a 83       	std	Y+2, r24	; 0x02
                break;
    4cf4:	38 c0       	rjmp	.+112    	; 0x4d66 <_ZN5Menue6doEditERjhhjj+0x3c4>
            case UP:
                if (d[p] < 9)
    4cf6:	8a 81       	ldd	r24, Y+2	; 0x02
    4cf8:	88 2f       	mov	r24, r24
    4cfa:	90 e0       	ldi	r25, 0x00	; 0
    4cfc:	8c 55       	subi	r24, 0x5C	; 92
    4cfe:	9e 4f       	sbci	r25, 0xFE	; 254
    4d00:	fc 01       	movw	r30, r24
    4d02:	80 81       	ld	r24, Z
    4d04:	89 30       	cpi	r24, 0x09	; 9
    4d06:	68 f4       	brcc	.+26     	; 0x4d22 <_ZN5Menue6doEditERjhhjj+0x380>
                    d[p]++;
    4d08:	8a 81       	ldd	r24, Y+2	; 0x02
    4d0a:	88 2f       	mov	r24, r24
    4d0c:	90 e0       	ldi	r25, 0x00	; 0
    4d0e:	9c 01       	movw	r18, r24
    4d10:	2c 55       	subi	r18, 0x5C	; 92
    4d12:	3e 4f       	sbci	r19, 0xFE	; 254
    4d14:	f9 01       	movw	r30, r18
    4d16:	20 81       	ld	r18, Z
    4d18:	2f 5f       	subi	r18, 0xFF	; 255
    4d1a:	8c 55       	subi	r24, 0x5C	; 92
    4d1c:	9e 4f       	sbci	r25, 0xFE	; 254
    4d1e:	fc 01       	movw	r30, r24
    4d20:	20 83       	st	Z, r18
                break;
    4d22:	21 c0       	rjmp	.+66     	; 0x4d66 <_ZN5Menue6doEditERjhhjj+0x3c4>
            case DOWN:
                if (d[p])
    4d24:	8a 81       	ldd	r24, Y+2	; 0x02
    4d26:	88 2f       	mov	r24, r24
    4d28:	90 e0       	ldi	r25, 0x00	; 0
    4d2a:	8c 55       	subi	r24, 0x5C	; 92
    4d2c:	9e 4f       	sbci	r25, 0xFE	; 254
    4d2e:	fc 01       	movw	r30, r24
    4d30:	80 81       	ld	r24, Z
    4d32:	88 23       	and	r24, r24
    4d34:	69 f0       	breq	.+26     	; 0x4d50 <_ZN5Menue6doEditERjhhjj+0x3ae>
                    d[p]--;
    4d36:	8a 81       	ldd	r24, Y+2	; 0x02
    4d38:	88 2f       	mov	r24, r24
    4d3a:	90 e0       	ldi	r25, 0x00	; 0
    4d3c:	9c 01       	movw	r18, r24
    4d3e:	2c 55       	subi	r18, 0x5C	; 92
    4d40:	3e 4f       	sbci	r19, 0xFE	; 254
    4d42:	f9 01       	movw	r30, r18
    4d44:	20 81       	ld	r18, Z
    4d46:	21 50       	subi	r18, 0x01	; 1
    4d48:	8c 55       	subi	r24, 0x5C	; 92
    4d4a:	9e 4f       	sbci	r25, 0xFE	; 254
    4d4c:	fc 01       	movw	r30, r24
    4d4e:	20 83       	st	Z, r18
                break;
    4d50:	0a c0       	rjmp	.+20     	; 0x4d66 <_ZN5Menue6doEditERjhhjj+0x3c4>
            case ESC:
                val = param;
    4d52:	8f 85       	ldd	r24, Y+15	; 0x0f
    4d54:	98 89       	ldd	r25, Y+16	; 0x10
    4d56:	fc 01       	movw	r30, r24
    4d58:	80 81       	ld	r24, Z
    4d5a:	91 81       	ldd	r25, Z+1	; 0x01
    4d5c:	9c 83       	std	Y+4, r25	; 0x04
    4d5e:	8b 83       	std	Y+3, r24	; 0x03
            case ENT:
                term = 1;
    4d60:	81 e0       	ldi	r24, 0x01	; 1
    4d62:	89 83       	std	Y+1, r24	; 0x01
                break;
    4d64:	00 00       	nop
    for (unsigned char i = 0; i < 4; i++) {
        d[i] = val % 10;
        val = val / 10;
    }
    Kbd::autoRepeat = 1;
    do {
    4d66:	89 81       	ldd	r24, Y+1	; 0x01
    4d68:	88 23       	and	r24, r24
    4d6a:	09 f4       	brne	.+2      	; 0x4d6e <_ZN5Menue6doEditERjhhjj+0x3cc>
    4d6c:	7d ce       	rjmp	.-774    	; 0x4a68 <_ZN5Menue6doEditERjhhjj+0xc6>
            case ENT:
                term = 1;
                break;
        }
    } while (!term);
    Kbd::autoRepeat = 0;
    4d6e:	10 92 94 01 	sts	0x0194, r1
    return val;
    4d72:	8b 81       	ldd	r24, Y+3	; 0x03
    4d74:	9c 81       	ldd	r25, Y+4	; 0x04
}
    4d76:	66 96       	adiw	r28, 0x16	; 22
    4d78:	0f b6       	in	r0, 0x3f	; 63
    4d7a:	f8 94       	cli
    4d7c:	de bf       	out	0x3e, r29	; 62
    4d7e:	0f be       	out	0x3f, r0	; 63
    4d80:	cd bf       	out	0x3d, r28	; 61
    4d82:	df 91       	pop	r29
    4d84:	cf 91       	pop	r28
    4d86:	1f 91       	pop	r17
    4d88:	0f 91       	pop	r16
    4d8a:	ff 90       	pop	r15
    4d8c:	ef 90       	pop	r14
    4d8e:	08 95       	ret

00004d90 <_ZN5Menue9memSelectEv>:

int Menue::memSelect()
{
    4d90:	cf 93       	push	r28
    4d92:	df 93       	push	r29
    4d94:	cd b7       	in	r28, 0x3d	; 61
    4d96:	de b7       	in	r29, 0x3e	; 62
    4d98:	27 97       	sbiw	r28, 0x07	; 7
    4d9a:	0f b6       	in	r0, 0x3f	; 63
    4d9c:	f8 94       	cli
    4d9e:	de bf       	out	0x3e, r29	; 62
    4da0:	0f be       	out	0x3f, r0	; 63
    4da2:	cd bf       	out	0x3d, r28	; 61
    4da4:	9f 83       	std	Y+7, r25	; 0x07
    4da6:	8e 83       	std	Y+6, r24	; 0x06
    unsigned char key;
    int s,sel=Nvr::nvr.numCurrent+1;
    4da8:	80 91 a8 01 	lds	r24, 0x01A8
    4dac:	88 2f       	mov	r24, r24
    4dae:	90 e0       	ldi	r25, 0x00	; 0
    4db0:	01 96       	adiw	r24, 0x01	; 1
    4db2:	9c 83       	std	Y+4, r25	; 0x04
    4db4:	8b 83       	std	Y+3, r24	; 0x03
    printfLcd(2, 0, "   Current: %2d   ", sel);
    4db6:	8e e2       	ldi	r24, 0x2E	; 46
    4db8:	9c e0       	ldi	r25, 0x0C	; 12
    4dba:	2c 81       	ldd	r18, Y+4	; 0x04
    4dbc:	2f 93       	push	r18
    4dbe:	2b 81       	ldd	r18, Y+3	; 0x03
    4dc0:	2f 93       	push	r18
    4dc2:	29 2f       	mov	r18, r25
    4dc4:	2f 93       	push	r18
    4dc6:	8f 93       	push	r24
    4dc8:	1f 92       	push	r1
    4dca:	82 e0       	ldi	r24, 0x02	; 2
    4dcc:	8f 93       	push	r24
    4dce:	8e e9       	ldi	r24, 0x9E	; 158
    4dd0:	91 e0       	ldi	r25, 0x01	; 1
    4dd2:	89 2f       	mov	r24, r25
    4dd4:	8f 93       	push	r24
    4dd6:	8e e9       	ldi	r24, 0x9E	; 158
    4dd8:	91 e0       	ldi	r25, 0x01	; 1
    4dda:	8f 93       	push	r24
    4ddc:	0e 94 3f 15 	call	0x2a7e	; 0x2a7e <_ZN3Lcd5printEhhPKcz>
    4de0:	8d b7       	in	r24, 0x3d	; 61
    4de2:	9e b7       	in	r25, 0x3e	; 62
    4de4:	08 96       	adiw	r24, 0x08	; 8
    4de6:	0f b6       	in	r0, 0x3f	; 63
    4de8:	f8 94       	cli
    4dea:	de bf       	out	0x3e, r29	; 62
    4dec:	0f be       	out	0x3f, r0	; 63
    4dee:	cd bf       	out	0x3d, r28	; 61
	Kbd::autoRepeat = 1;
    4df0:	81 e0       	ldi	r24, 0x01	; 1
    4df2:	80 93 94 01 	sts	0x0194, r24
	if (sel<1) {
    4df6:	8b 81       	ldd	r24, Y+3	; 0x03
    4df8:	9c 81       	ldd	r25, Y+4	; 0x04
    4dfa:	18 16       	cp	r1, r24
    4dfc:	19 06       	cpc	r1, r25
    4dfe:	f4 f0       	brlt	.+60     	; 0x4e3c <_ZN5Menue9memSelectEv+0xac>
		for (s=0; s<MAXMEM; s++)
    4e00:	1a 82       	std	Y+2, r1	; 0x02
    4e02:	19 82       	std	Y+1, r1	; 0x01
    4e04:	0e c0       	rjmp	.+28     	; 0x4e22 <_ZN5Menue9memSelectEv+0x92>
			if (Nvr::nvr.memValid[s]) break;
    4e06:	89 81       	ldd	r24, Y+1	; 0x01
    4e08:	9a 81       	ldd	r25, Y+2	; 0x02
    4e0a:	85 55       	subi	r24, 0x55	; 85
    4e0c:	9e 4f       	sbci	r25, 0xFE	; 254
    4e0e:	fc 01       	movw	r30, r24
    4e10:	80 81       	ld	r24, Z
    4e12:	88 23       	and	r24, r24
    4e14:	09 f0       	breq	.+2      	; 0x4e18 <_ZN5Menue9memSelectEv+0x88>
    4e16:	09 c0       	rjmp	.+18     	; 0x4e2a <_ZN5Menue9memSelectEv+0x9a>
    unsigned char key;
    int s,sel=Nvr::nvr.numCurrent+1;
    printfLcd(2, 0, "   Current: %2d   ", sel);
	Kbd::autoRepeat = 1;
	if (sel<1) {
		for (s=0; s<MAXMEM; s++)
    4e18:	89 81       	ldd	r24, Y+1	; 0x01
    4e1a:	9a 81       	ldd	r25, Y+2	; 0x02
    4e1c:	01 96       	adiw	r24, 0x01	; 1
    4e1e:	9a 83       	std	Y+2, r25	; 0x02
    4e20:	89 83       	std	Y+1, r24	; 0x01
    4e22:	89 81       	ldd	r24, Y+1	; 0x01
    4e24:	9a 81       	ldd	r25, Y+2	; 0x02
    4e26:	48 97       	sbiw	r24, 0x18	; 24
    4e28:	74 f3       	brlt	.-36     	; 0x4e06 <_ZN5Menue9memSelectEv+0x76>
			if (Nvr::nvr.memValid[s]) break;
		if (s<MAXMEM) sel=s+1;
    4e2a:	89 81       	ldd	r24, Y+1	; 0x01
    4e2c:	9a 81       	ldd	r25, Y+2	; 0x02
    4e2e:	48 97       	sbiw	r24, 0x18	; 24
    4e30:	2c f4       	brge	.+10     	; 0x4e3c <_ZN5Menue9memSelectEv+0xac>
    4e32:	89 81       	ldd	r24, Y+1	; 0x01
    4e34:	9a 81       	ldd	r25, Y+2	; 0x02
    4e36:	01 96       	adiw	r24, 0x01	; 1
    4e38:	9c 83       	std	Y+4, r25	; 0x04
    4e3a:	8b 83       	std	Y+3, r24	; 0x03
	}
  repaint:
    wdt_reset();
    4e3c:	a8 95       	wdr
    printfLcd(3, 0, "   Select : %2d   ", sel);
    4e3e:	81 e4       	ldi	r24, 0x41	; 65
    4e40:	9c e0       	ldi	r25, 0x0C	; 12
    4e42:	2c 81       	ldd	r18, Y+4	; 0x04
    4e44:	2f 93       	push	r18
    4e46:	2b 81       	ldd	r18, Y+3	; 0x03
    4e48:	2f 93       	push	r18
    4e4a:	29 2f       	mov	r18, r25
    4e4c:	2f 93       	push	r18
    4e4e:	8f 93       	push	r24
    4e50:	1f 92       	push	r1
    4e52:	83 e0       	ldi	r24, 0x03	; 3
    4e54:	8f 93       	push	r24
    4e56:	8e e9       	ldi	r24, 0x9E	; 158
    4e58:	91 e0       	ldi	r25, 0x01	; 1
    4e5a:	89 2f       	mov	r24, r25
    4e5c:	8f 93       	push	r24
    4e5e:	8e e9       	ldi	r24, 0x9E	; 158
    4e60:	91 e0       	ldi	r25, 0x01	; 1
    4e62:	8f 93       	push	r24
    4e64:	0e 94 3f 15 	call	0x2a7e	; 0x2a7e <_ZN3Lcd5printEhhPKcz>
    4e68:	8d b7       	in	r24, 0x3d	; 61
    4e6a:	9e b7       	in	r25, 0x3e	; 62
    4e6c:	08 96       	adiw	r24, 0x08	; 8
    4e6e:	0f b6       	in	r0, 0x3f	; 63
    4e70:	f8 94       	cli
    4e72:	de bf       	out	0x3e, r29	; 62
    4e74:	0f be       	out	0x3f, r0	; 63
    4e76:	cd bf       	out	0x3d, r28	; 61
    for (;;) {
        switch (key=getch()) {
    4e78:	8e 81       	ldd	r24, Y+6	; 0x06
    4e7a:	9f 81       	ldd	r25, Y+7	; 0x07
    4e7c:	d2 d0       	rcall	.+420    	; 0x5022 <_ZN5Menue5getchEv>
    4e7e:	8d 83       	std	Y+5, r24	; 0x05
    4e80:	8d 81       	ldd	r24, Y+5	; 0x05
    4e82:	88 2f       	mov	r24, r24
    4e84:	90 e0       	ldi	r25, 0x00	; 0
    4e86:	80 31       	cpi	r24, 0x10	; 16
    4e88:	91 05       	cpc	r25, r1
    4e8a:	f9 f0       	breq	.+62     	; 0x4eca <_ZN5Menue9memSelectEv+0x13a>
    4e8c:	81 31       	cpi	r24, 0x11	; 17
    4e8e:	91 05       	cpc	r25, r1
    4e90:	3c f4       	brge	.+14     	; 0x4ea0 <_ZN5Menue9memSelectEv+0x110>
    4e92:	84 30       	cpi	r24, 0x04	; 4
    4e94:	91 05       	cpc	r25, r1
    4e96:	09 f4       	brne	.+2      	; 0x4e9a <_ZN5Menue9memSelectEv+0x10a>
    4e98:	45 c0       	rjmp	.+138    	; 0x4f24 <_ZN5Menue9memSelectEv+0x194>
    4e9a:	08 97       	sbiw	r24, 0x08	; 8
    4e9c:	b1 f0       	breq	.+44     	; 0x4eca <_ZN5Menue9memSelectEv+0x13a>
    4e9e:	89 c0       	rjmp	.+274    	; 0x4fb2 <_ZN5Menue9memSelectEv+0x222>
    4ea0:	80 34       	cpi	r24, 0x40	; 64
    4ea2:	91 05       	cpc	r25, r1
    4ea4:	09 f4       	brne	.+2      	; 0x4ea8 <_ZN5Menue9memSelectEv+0x118>
    4ea6:	3e c0       	rjmp	.+124    	; 0x4f24 <_ZN5Menue9memSelectEv+0x194>
    4ea8:	80 38       	cpi	r24, 0x80	; 128
    4eaa:	91 05       	cpc	r25, r1
    4eac:	19 f0       	breq	.+6      	; 0x4eb4 <_ZN5Menue9memSelectEv+0x124>
    4eae:	80 97       	sbiw	r24, 0x20	; 32
    4eb0:	39 f0       	breq	.+14     	; 0x4ec0 <_ZN5Menue9memSelectEv+0x130>
    4eb2:	7f c0       	rjmp	.+254    	; 0x4fb2 <_ZN5Menue9memSelectEv+0x222>
            case ENT:
			    Kbd::autoRepeat = 0;
    4eb4:	10 92 94 01 	sts	0x0194, r1
                return sel-1;
    4eb8:	8b 81       	ldd	r24, Y+3	; 0x03
    4eba:	9c 81       	ldd	r25, Y+4	; 0x04
    4ebc:	01 97       	sbiw	r24, 0x01	; 1
    4ebe:	7b c0       	rjmp	.+246    	; 0x4fb6 <_ZN5Menue9memSelectEv+0x226>
            case ESC:
			    Kbd::autoRepeat = 0;
    4ec0:	10 92 94 01 	sts	0x0194, r1
                return -2;
    4ec4:	8e ef       	ldi	r24, 0xFE	; 254
    4ec6:	9f ef       	ldi	r25, 0xFF	; 255
    4ec8:	76 c0       	rjmp	.+236    	; 0x4fb6 <_ZN5Menue9memSelectEv+0x226>
            case UP:
            case FORW:
                for (s = sel<MAXMEM ? sel : MAXMEM-1 ; s<(MAXMEM-1); s++)
    4eca:	8b 81       	ldd	r24, Y+3	; 0x03
    4ecc:	9c 81       	ldd	r25, Y+4	; 0x04
    4ece:	88 31       	cpi	r24, 0x18	; 24
    4ed0:	91 05       	cpc	r25, r1
    4ed2:	14 f0       	brlt	.+4      	; 0x4ed8 <_ZN5Menue9memSelectEv+0x148>
    4ed4:	87 e1       	ldi	r24, 0x17	; 23
    4ed6:	90 e0       	ldi	r25, 0x00	; 0
    4ed8:	9a 83       	std	Y+2, r25	; 0x02
    4eda:	89 83       	std	Y+1, r24	; 0x01
    4edc:	0e c0       	rjmp	.+28     	; 0x4efa <_ZN5Menue9memSelectEv+0x16a>
                    if (Nvr::nvr.memValid[s]) break;
    4ede:	89 81       	ldd	r24, Y+1	; 0x01
    4ee0:	9a 81       	ldd	r25, Y+2	; 0x02
    4ee2:	85 55       	subi	r24, 0x55	; 85
    4ee4:	9e 4f       	sbci	r25, 0xFE	; 254
    4ee6:	fc 01       	movw	r30, r24
    4ee8:	80 81       	ld	r24, Z
    4eea:	88 23       	and	r24, r24
    4eec:	09 f0       	breq	.+2      	; 0x4ef0 <_ZN5Menue9memSelectEv+0x160>
    4eee:	09 c0       	rjmp	.+18     	; 0x4f02 <_ZN5Menue9memSelectEv+0x172>
            case ESC:
			    Kbd::autoRepeat = 0;
                return -2;
            case UP:
            case FORW:
                for (s = sel<MAXMEM ? sel : MAXMEM-1 ; s<(MAXMEM-1); s++)
    4ef0:	89 81       	ldd	r24, Y+1	; 0x01
    4ef2:	9a 81       	ldd	r25, Y+2	; 0x02
    4ef4:	01 96       	adiw	r24, 0x01	; 1
    4ef6:	9a 83       	std	Y+2, r25	; 0x02
    4ef8:	89 83       	std	Y+1, r24	; 0x01
    4efa:	89 81       	ldd	r24, Y+1	; 0x01
    4efc:	9a 81       	ldd	r25, Y+2	; 0x02
    4efe:	47 97       	sbiw	r24, 0x17	; 23
    4f00:	74 f3       	brlt	.-36     	; 0x4ede <_ZN5Menue9memSelectEv+0x14e>
                    if (Nvr::nvr.memValid[s]) break;
				sel = Nvr::nvr.memValid[s] ? s+1 : 0;
    4f02:	89 81       	ldd	r24, Y+1	; 0x01
    4f04:	9a 81       	ldd	r25, Y+2	; 0x02
    4f06:	85 55       	subi	r24, 0x55	; 85
    4f08:	9e 4f       	sbci	r25, 0xFE	; 254
    4f0a:	fc 01       	movw	r30, r24
    4f0c:	80 81       	ld	r24, Z
    4f0e:	88 23       	and	r24, r24
    4f10:	21 f0       	breq	.+8      	; 0x4f1a <_ZN5Menue9memSelectEv+0x18a>
    4f12:	89 81       	ldd	r24, Y+1	; 0x01
    4f14:	9a 81       	ldd	r25, Y+2	; 0x02
    4f16:	01 96       	adiw	r24, 0x01	; 1
    4f18:	02 c0       	rjmp	.+4      	; 0x4f1e <_ZN5Menue9memSelectEv+0x18e>
    4f1a:	80 e0       	ldi	r24, 0x00	; 0
    4f1c:	90 e0       	ldi	r25, 0x00	; 0
    4f1e:	9c 83       	std	Y+4, r25	; 0x04
    4f20:	8b 83       	std	Y+3, r24	; 0x03
                goto repaint;
    4f22:	8c cf       	rjmp	.-232    	; 0x4e3c <_ZN5Menue9memSelectEv+0xac>
            case DOWN:
            case BACK:
            	if ((sel-2)>=0) {
    4f24:	8b 81       	ldd	r24, Y+3	; 0x03
    4f26:	9c 81       	ldd	r25, Y+4	; 0x04
    4f28:	02 97       	sbiw	r24, 0x02	; 2
    4f2a:	99 23       	and	r25, r25
    4f2c:	f4 f0       	brlt	.+60     	; 0x4f6a <_ZN5Menue9memSelectEv+0x1da>
	                for (s = sel-2; s >= 0; s--)
    4f2e:	8b 81       	ldd	r24, Y+3	; 0x03
    4f30:	9c 81       	ldd	r25, Y+4	; 0x04
    4f32:	02 97       	sbiw	r24, 0x02	; 2
    4f34:	9a 83       	std	Y+2, r25	; 0x02
    4f36:	89 83       	std	Y+1, r24	; 0x01
    4f38:	0e c0       	rjmp	.+28     	; 0x4f56 <_ZN5Menue9memSelectEv+0x1c6>
	                    if (Nvr::nvr.memValid[s]) break;
    4f3a:	89 81       	ldd	r24, Y+1	; 0x01
    4f3c:	9a 81       	ldd	r25, Y+2	; 0x02
    4f3e:	85 55       	subi	r24, 0x55	; 85
    4f40:	9e 4f       	sbci	r25, 0xFE	; 254
    4f42:	fc 01       	movw	r30, r24
    4f44:	80 81       	ld	r24, Z
    4f46:	88 23       	and	r24, r24
    4f48:	09 f0       	breq	.+2      	; 0x4f4c <_ZN5Menue9memSelectEv+0x1bc>
    4f4a:	09 c0       	rjmp	.+18     	; 0x4f5e <_ZN5Menue9memSelectEv+0x1ce>
				sel = Nvr::nvr.memValid[s] ? s+1 : 0;
                goto repaint;
            case DOWN:
            case BACK:
            	if ((sel-2)>=0) {
	                for (s = sel-2; s >= 0; s--)
    4f4c:	89 81       	ldd	r24, Y+1	; 0x01
    4f4e:	9a 81       	ldd	r25, Y+2	; 0x02
    4f50:	01 97       	sbiw	r24, 0x01	; 1
    4f52:	9a 83       	std	Y+2, r25	; 0x02
    4f54:	89 83       	std	Y+1, r24	; 0x01
    4f56:	89 81       	ldd	r24, Y+1	; 0x01
    4f58:	9a 81       	ldd	r25, Y+2	; 0x02
    4f5a:	99 23       	and	r25, r25
    4f5c:	74 f7       	brge	.-36     	; 0x4f3a <_ZN5Menue9memSelectEv+0x1aa>
	                    if (Nvr::nvr.memValid[s]) break;
	                sel = s+1;
    4f5e:	89 81       	ldd	r24, Y+1	; 0x01
    4f60:	9a 81       	ldd	r25, Y+2	; 0x02
    4f62:	01 96       	adiw	r24, 0x01	; 1
    4f64:	9c 83       	std	Y+4, r25	; 0x04
    4f66:	8b 83       	std	Y+3, r24	; 0x03
    4f68:	23 c0       	rjmp	.+70     	; 0x4fb0 <_ZN5Menue9memSelectEv+0x220>
            	}
            	else if ((sel-2)==-1)
    4f6a:	8b 81       	ldd	r24, Y+3	; 0x03
    4f6c:	9c 81       	ldd	r25, Y+4	; 0x04
    4f6e:	01 97       	sbiw	r24, 0x01	; 1
    4f70:	19 f4       	brne	.+6      	; 0x4f78 <_ZN5Menue9memSelectEv+0x1e8>
            		sel=0;
    4f72:	1c 82       	std	Y+4, r1	; 0x04
    4f74:	1b 82       	std	Y+3, r1	; 0x03
    4f76:	1c c0       	rjmp	.+56     	; 0x4fb0 <_ZN5Menue9memSelectEv+0x220>
            	else {
	                for (s = MAXMEM-1; s >= 0; s--)
    4f78:	87 e1       	ldi	r24, 0x17	; 23
    4f7a:	90 e0       	ldi	r25, 0x00	; 0
    4f7c:	9a 83       	std	Y+2, r25	; 0x02
    4f7e:	89 83       	std	Y+1, r24	; 0x01
    4f80:	0e c0       	rjmp	.+28     	; 0x4f9e <_ZN5Menue9memSelectEv+0x20e>
	                    if (Nvr::nvr.memValid[s]) break;
    4f82:	89 81       	ldd	r24, Y+1	; 0x01
    4f84:	9a 81       	ldd	r25, Y+2	; 0x02
    4f86:	85 55       	subi	r24, 0x55	; 85
    4f88:	9e 4f       	sbci	r25, 0xFE	; 254
    4f8a:	fc 01       	movw	r30, r24
    4f8c:	80 81       	ld	r24, Z
    4f8e:	88 23       	and	r24, r24
    4f90:	09 f0       	breq	.+2      	; 0x4f94 <_ZN5Menue9memSelectEv+0x204>
    4f92:	09 c0       	rjmp	.+18     	; 0x4fa6 <_ZN5Menue9memSelectEv+0x216>
	                sel = s+1;
            	}
            	else if ((sel-2)==-1)
            		sel=0;
            	else {
	                for (s = MAXMEM-1; s >= 0; s--)
    4f94:	89 81       	ldd	r24, Y+1	; 0x01
    4f96:	9a 81       	ldd	r25, Y+2	; 0x02
    4f98:	01 97       	sbiw	r24, 0x01	; 1
    4f9a:	9a 83       	std	Y+2, r25	; 0x02
    4f9c:	89 83       	std	Y+1, r24	; 0x01
    4f9e:	89 81       	ldd	r24, Y+1	; 0x01
    4fa0:	9a 81       	ldd	r25, Y+2	; 0x02
    4fa2:	99 23       	and	r25, r25
    4fa4:	74 f7       	brge	.-36     	; 0x4f82 <_ZN5Menue9memSelectEv+0x1f2>
	                    if (Nvr::nvr.memValid[s]) break;
	                sel=s+1;
    4fa6:	89 81       	ldd	r24, Y+1	; 0x01
    4fa8:	9a 81       	ldd	r25, Y+2	; 0x02
    4faa:	01 96       	adiw	r24, 0x01	; 1
    4fac:	9c 83       	std	Y+4, r25	; 0x04
    4fae:	8b 83       	std	Y+3, r24	; 0x03
            	}
                goto repaint;
    4fb0:	45 cf       	rjmp	.-374    	; 0x4e3c <_ZN5Menue9memSelectEv+0xac>
        }
        wdt_reset();
    4fb2:	a8 95       	wdr
    }
    4fb4:	61 cf       	rjmp	.-318    	; 0x4e78 <_ZN5Menue9memSelectEv+0xe8>
}
    4fb6:	27 96       	adiw	r28, 0x07	; 7
    4fb8:	0f b6       	in	r0, 0x3f	; 63
    4fba:	f8 94       	cli
    4fbc:	de bf       	out	0x3e, r29	; 62
    4fbe:	0f be       	out	0x3f, r0	; 63
    4fc0:	cd bf       	out	0x3d, r28	; 61
    4fc2:	df 91       	pop	r29
    4fc4:	cf 91       	pop	r28
    4fc6:	08 95       	ret

00004fc8 <_ZN5Menue5delayEv>:



void Menue::delay()
{
    4fc8:	cf 93       	push	r28
    4fca:	df 93       	push	r29
    4fcc:	00 d0       	rcall	.+0      	; 0x4fce <_ZN5Menue5delayEv+0x6>
    4fce:	00 d0       	rcall	.+0      	; 0x4fd0 <_ZN5Menue5delayEv+0x8>
    4fd0:	00 d0       	rcall	.+0      	; 0x4fd2 <_ZN5Menue5delayEv+0xa>
    4fd2:	cd b7       	in	r28, 0x3d	; 61
    4fd4:	de b7       	in	r29, 0x3e	; 62
    4fd6:	9e 83       	std	Y+6, r25	; 0x06
    4fd8:	8d 83       	std	Y+5, r24	; 0x05
    for (unsigned long wt = 0; wt < 1000000; wt++) {
    4fda:	19 82       	std	Y+1, r1	; 0x01
    4fdc:	1a 82       	std	Y+2, r1	; 0x02
    4fde:	1b 82       	std	Y+3, r1	; 0x03
    4fe0:	1c 82       	std	Y+4, r1	; 0x04
    4fe2:	0d c0       	rjmp	.+26     	; 0x4ffe <_ZN5Menue5delayEv+0x36>
        wdt_reset();
    4fe4:	a8 95       	wdr
        asm("nop\n");
    4fe6:	00 00       	nop



void Menue::delay()
{
    for (unsigned long wt = 0; wt < 1000000; wt++) {
    4fe8:	89 81       	ldd	r24, Y+1	; 0x01
    4fea:	9a 81       	ldd	r25, Y+2	; 0x02
    4fec:	ab 81       	ldd	r26, Y+3	; 0x03
    4fee:	bc 81       	ldd	r27, Y+4	; 0x04
    4ff0:	01 96       	adiw	r24, 0x01	; 1
    4ff2:	a1 1d       	adc	r26, r1
    4ff4:	b1 1d       	adc	r27, r1
    4ff6:	89 83       	std	Y+1, r24	; 0x01
    4ff8:	9a 83       	std	Y+2, r25	; 0x02
    4ffa:	ab 83       	std	Y+3, r26	; 0x03
    4ffc:	bc 83       	std	Y+4, r27	; 0x04
    4ffe:	89 81       	ldd	r24, Y+1	; 0x01
    5000:	9a 81       	ldd	r25, Y+2	; 0x02
    5002:	ab 81       	ldd	r26, Y+3	; 0x03
    5004:	bc 81       	ldd	r27, Y+4	; 0x04
    5006:	80 34       	cpi	r24, 0x40	; 64
    5008:	92 44       	sbci	r25, 0x42	; 66
    500a:	af 40       	sbci	r26, 0x0F	; 15
    500c:	b1 05       	cpc	r27, r1
    500e:	50 f3       	brcs	.-44     	; 0x4fe4 <_ZN5Menue5delayEv+0x1c>
        wdt_reset();
        asm("nop\n");
    }
	
}
    5010:	26 96       	adiw	r28, 0x06	; 6
    5012:	0f b6       	in	r0, 0x3f	; 63
    5014:	f8 94       	cli
    5016:	de bf       	out	0x3e, r29	; 62
    5018:	0f be       	out	0x3f, r0	; 63
    501a:	cd bf       	out	0x3d, r28	; 61
    501c:	df 91       	pop	r29
    501e:	cf 91       	pop	r28
    5020:	08 95       	ret

00005022 <_ZN5Menue5getchEv>:

unsigned char Menue::getch()
{
    5022:	cf 93       	push	r28
    5024:	df 93       	push	r29
    5026:	00 d0       	rcall	.+0      	; 0x5028 <_ZN5Menue5getchEv+0x6>
    5028:	00 d0       	rcall	.+0      	; 0x502a <_ZN5Menue5getchEv+0x8>
    502a:	cd b7       	in	r28, 0x3d	; 61
    502c:	de b7       	in	r29, 0x3e	; 62
    502e:	9c 83       	std	Y+4, r25	; 0x04
    5030:	8b 83       	std	Y+3, r24	; 0x03
    int key;
    while ((key=_getChar()) == EOF)
    5032:	01 c0       	rjmp	.+2      	; 0x5036 <_ZN5Menue5getchEv+0x14>
        wdt_reset();
    5034:	a8 95       	wdr
}

unsigned char Menue::getch()
{
    int key;
    while ((key=_getChar()) == EOF)
    5036:	0e 94 47 12 	call	0x248e	; 0x248e <_getChar>
    503a:	9a 83       	std	Y+2, r25	; 0x02
    503c:	89 83       	std	Y+1, r24	; 0x01
    503e:	21 e0       	ldi	r18, 0x01	; 1
    5040:	89 81       	ldd	r24, Y+1	; 0x01
    5042:	9a 81       	ldd	r25, Y+2	; 0x02
    5044:	01 96       	adiw	r24, 0x01	; 1
    5046:	09 f0       	breq	.+2      	; 0x504a <_ZN5Menue5getchEv+0x28>
    5048:	20 e0       	ldi	r18, 0x00	; 0
    504a:	22 23       	and	r18, r18
    504c:	99 f7       	brne	.-26     	; 0x5034 <_ZN5Menue5getchEv+0x12>
        wdt_reset();
    return (unsigned char) key;
    504e:	89 81       	ldd	r24, Y+1	; 0x01
}
    5050:	0f 90       	pop	r0
    5052:	0f 90       	pop	r0
    5054:	0f 90       	pop	r0
    5056:	0f 90       	pop	r0
    5058:	df 91       	pop	r29
    505a:	cf 91       	pop	r28
    505c:	08 95       	ret

0000505e <_ZN3Nvr13initFirstTimeEv>:
}

void Nvr::restoreSetup()
{
    eeprom_read_block((unsigned char *) &setup, &setupEE, sizeof(Setup));
}
    505e:	cf 93       	push	r28
    5060:	df 93       	push	r29
    5062:	00 d0       	rcall	.+0      	; 0x5064 <_ZN3Nvr13initFirstTimeEv+0x6>
    5064:	00 d0       	rcall	.+0      	; 0x5066 <_ZN3Nvr13initFirstTimeEv+0x8>
    5066:	cd b7       	in	r28, 0x3d	; 61
    5068:	de b7       	in	r29, 0x3e	; 62
    506a:	9c 83       	std	Y+4, r25	; 0x04
    506c:	8b 83       	std	Y+3, r24	; 0x03
    506e:	85 e5       	ldi	r24, 0x55	; 85
    5070:	9a ea       	ldi	r25, 0xAA	; 170
    5072:	90 93 c4 01 	sts	0x01C4, r25
    5076:	80 93 c3 01 	sts	0x01C3, r24
    507a:	81 e0       	ldi	r24, 0x01	; 1
    507c:	90 e0       	ldi	r25, 0x00	; 0
    507e:	90 93 c6 01 	sts	0x01C6, r25
    5082:	80 93 c5 01 	sts	0x01C5, r24
    5086:	86 ee       	ldi	r24, 0xE6	; 230
    5088:	90 e0       	ldi	r25, 0x00	; 0
    508a:	90 93 cc 01 	sts	0x01CC, r25
    508e:	80 93 cb 01 	sts	0x01CB, r24
    5092:	80 91 cb 01 	lds	r24, 0x01CB
    5096:	90 91 cc 01 	lds	r25, 0x01CC
    509a:	90 93 ca 01 	sts	0x01CA, r25
    509e:	80 93 c9 01 	sts	0x01C9, r24
    50a2:	80 91 c9 01 	lds	r24, 0x01C9
    50a6:	90 91 ca 01 	lds	r25, 0x01CA
    50aa:	90 93 c8 01 	sts	0x01C8, r25
    50ae:	80 93 c7 01 	sts	0x01C7, r24
    50b2:	86 ed       	ldi	r24, 0xD6	; 214
    50b4:	91 e0       	ldi	r25, 0x01	; 1
    50b6:	90 93 d2 01 	sts	0x01D2, r25
    50ba:	80 93 d1 01 	sts	0x01D1, r24
    50be:	80 91 d1 01 	lds	r24, 0x01D1
    50c2:	90 91 d2 01 	lds	r25, 0x01D2
    50c6:	90 93 d0 01 	sts	0x01D0, r25
    50ca:	80 93 cf 01 	sts	0x01CF, r24
    50ce:	80 91 cf 01 	lds	r24, 0x01CF
    50d2:	90 91 d0 01 	lds	r25, 0x01D0
    50d6:	90 93 ce 01 	sts	0x01CE, r25
    50da:	80 93 cd 01 	sts	0x01CD, r24
    50de:	86 ed       	ldi	r24, 0xD6	; 214
    50e0:	91 e0       	ldi	r25, 0x01	; 1
    50e2:	90 93 d8 01 	sts	0x01D8, r25
    50e6:	80 93 d7 01 	sts	0x01D7, r24
    50ea:	80 91 d7 01 	lds	r24, 0x01D7
    50ee:	90 91 d8 01 	lds	r25, 0x01D8
    50f2:	90 93 d6 01 	sts	0x01D6, r25
    50f6:	80 93 d5 01 	sts	0x01D5, r24
    50fa:	80 91 d5 01 	lds	r24, 0x01D5
    50fe:	90 91 d6 01 	lds	r25, 0x01D6
    5102:	90 93 d4 01 	sts	0x01D4, r25
    5106:	80 93 d3 01 	sts	0x01D3, r24
    510a:	8e e5       	ldi	r24, 0x5E	; 94
    510c:	91 e0       	ldi	r25, 0x01	; 1
    510e:	90 93 de 01 	sts	0x01DE, r25
    5112:	80 93 dd 01 	sts	0x01DD, r24
    5116:	80 91 dd 01 	lds	r24, 0x01DD
    511a:	90 91 de 01 	lds	r25, 0x01DE
    511e:	90 93 dc 01 	sts	0x01DC, r25
    5122:	80 93 db 01 	sts	0x01DB, r24
    5126:	80 91 db 01 	lds	r24, 0x01DB
    512a:	90 91 dc 01 	lds	r25, 0x01DC
    512e:	90 93 da 01 	sts	0x01DA, r25
    5132:	80 93 d9 01 	sts	0x01D9, r24
    5136:	10 92 f9 01 	sts	0x01F9, r1
    513a:	80 91 f9 01 	lds	r24, 0x01F9
    513e:	80 93 f8 01 	sts	0x01F8, r24
    5142:	80 91 f8 01 	lds	r24, 0x01F8
    5146:	80 93 f7 01 	sts	0x01F7, r24
    514a:	48 e1       	ldi	r20, 0x18	; 24
    514c:	50 e0       	ldi	r21, 0x00	; 0
    514e:	60 e0       	ldi	r22, 0x00	; 0
    5150:	70 e0       	ldi	r23, 0x00	; 0
    5152:	8f ed       	ldi	r24, 0xDF	; 223
    5154:	91 e0       	ldi	r25, 0x01	; 1
    5156:	0e 94 30 33 	call	0x6660	; 0x6660 <memset>
    515a:	47 e3       	ldi	r20, 0x37	; 55
    515c:	50 e0       	ldi	r21, 0x00	; 0
    515e:	60 e0       	ldi	r22, 0x00	; 0
    5160:	70 e0       	ldi	r23, 0x00	; 0
    5162:	83 ec       	ldi	r24, 0xC3	; 195
    5164:	91 e0       	ldi	r25, 0x01	; 1
    5166:	0e 94 f2 37 	call	0x6fe4	; 0x6fe4 <eeprom_write_block>
    516a:	1a 82       	std	Y+2, r1	; 0x02
    516c:	19 82       	std	Y+1, r1	; 0x01
    516e:	12 c0       	rjmp	.+36     	; 0x5194 <_ZN3Nvr13initFirstTimeEv+0x136>
    5170:	29 81       	ldd	r18, Y+1	; 0x01
    5172:	3a 81       	ldd	r19, Y+2	; 0x02
    5174:	4b e1       	ldi	r20, 0x1B	; 27
    5176:	42 9f       	mul	r20, r18
    5178:	c0 01       	movw	r24, r0
    517a:	43 9f       	mul	r20, r19
    517c:	90 0d       	add	r25, r0
    517e:	11 24       	eor	r1, r1
    5180:	89 5c       	subi	r24, 0xC9	; 201
    5182:	9f 4f       	sbci	r25, 0xFF	; 255
    5184:	60 e0       	ldi	r22, 0x00	; 0
    5186:	0e 94 fb 37 	call	0x6ff6	; 0x6ff6 <eeprom_write_byte>
    518a:	89 81       	ldd	r24, Y+1	; 0x01
    518c:	9a 81       	ldd	r25, Y+2	; 0x02
    518e:	01 96       	adiw	r24, 0x01	; 1
    5190:	9a 83       	std	Y+2, r25	; 0x02
    5192:	89 83       	std	Y+1, r24	; 0x01
    5194:	89 81       	ldd	r24, Y+1	; 0x01
    5196:	9a 81       	ldd	r25, Y+2	; 0x02
    5198:	48 97       	sbiw	r24, 0x18	; 24
    519a:	54 f3       	brlt	.-44     	; 0x5170 <_ZN3Nvr13initFirstTimeEv+0x112>
    519c:	0f 90       	pop	r0
    519e:	0f 90       	pop	r0
    51a0:	0f 90       	pop	r0
    51a2:	0f 90       	pop	r0
    51a4:	df 91       	pop	r29
    51a6:	cf 91       	pop	r28
    51a8:	08 95       	ret

000051aa <_ZN3NvrC1Ev>:
    51aa:	cf 93       	push	r28
    51ac:	df 93       	push	r29
    51ae:	00 d0       	rcall	.+0      	; 0x51b0 <_ZN3NvrC1Ev+0x6>
    51b0:	00 d0       	rcall	.+0      	; 0x51b2 <_ZN3NvrC1Ev+0x8>
    51b2:	00 d0       	rcall	.+0      	; 0x51b4 <_ZN3NvrC1Ev+0xa>
    51b4:	cd b7       	in	r28, 0x3d	; 61
    51b6:	de b7       	in	r29, 0x3e	; 62
    51b8:	9e 83       	std	Y+6, r25	; 0x06
    51ba:	8d 83       	std	Y+5, r24	; 0x05
    51bc:	80 e0       	ldi	r24, 0x00	; 0
    51be:	90 e0       	ldi	r25, 0x00	; 0
    51c0:	0e 94 ed 37 	call	0x6fda	; 0x6fda <eeprom_read_word>
    51c4:	9c 83       	std	Y+4, r25	; 0x04
    51c6:	8b 83       	std	Y+3, r24	; 0x03
    51c8:	8b 81       	ldd	r24, Y+3	; 0x03
    51ca:	9c 81       	ldd	r25, Y+4	; 0x04
    51cc:	85 35       	cpi	r24, 0x55	; 85
    51ce:	9a 4a       	sbci	r25, 0xAA	; 170
    51d0:	21 f0       	breq	.+8      	; 0x51da <_ZN3NvrC1Ev+0x30>
    51d2:	8d 81       	ldd	r24, Y+5	; 0x05
    51d4:	9e 81       	ldd	r25, Y+6	; 0x06
    51d6:	43 df       	rcall	.-378    	; 0x505e <_ZN3Nvr13initFirstTimeEv>
    51d8:	2c c0       	rjmp	.+88     	; 0x5232 <_ZN3NvrC1Ev+0x88>
    51da:	47 e3       	ldi	r20, 0x37	; 55
    51dc:	50 e0       	ldi	r21, 0x00	; 0
    51de:	60 e0       	ldi	r22, 0x00	; 0
    51e0:	70 e0       	ldi	r23, 0x00	; 0
    51e2:	83 ec       	ldi	r24, 0xC3	; 195
    51e4:	91 e0       	ldi	r25, 0x01	; 1
    51e6:	0e 94 d5 37 	call	0x6faa	; 0x6faa <eeprom_read_block>
    51ea:	10 92 fa 01 	sts	0x01FA, r1
    51ee:	1a 82       	std	Y+2, r1	; 0x02
    51f0:	19 82       	std	Y+1, r1	; 0x01
    51f2:	1b c0       	rjmp	.+54     	; 0x522a <_ZN3NvrC1Ev+0x80>
    51f4:	29 81       	ldd	r18, Y+1	; 0x01
    51f6:	3a 81       	ldd	r19, Y+2	; 0x02
    51f8:	4b e1       	ldi	r20, 0x1B	; 27
    51fa:	42 9f       	mul	r20, r18
    51fc:	c0 01       	movw	r24, r0
    51fe:	43 9f       	mul	r20, r19
    5200:	90 0d       	add	r25, r0
    5202:	11 24       	eor	r1, r1
    5204:	89 5c       	subi	r24, 0xC9	; 201
    5206:	9f 4f       	sbci	r25, 0xFF	; 255
    5208:	0e 94 e5 37 	call	0x6fca	; 0x6fca <eeprom_read_byte>
    520c:	48 2f       	mov	r20, r24
    520e:	2d 81       	ldd	r18, Y+5	; 0x05
    5210:	3e 81       	ldd	r19, Y+6	; 0x06
    5212:	89 81       	ldd	r24, Y+1	; 0x01
    5214:	9a 81       	ldd	r25, Y+2	; 0x02
    5216:	82 0f       	add	r24, r18
    5218:	93 1f       	adc	r25, r19
    521a:	03 96       	adiw	r24, 0x03	; 3
    521c:	fc 01       	movw	r30, r24
    521e:	40 83       	st	Z, r20
    5220:	89 81       	ldd	r24, Y+1	; 0x01
    5222:	9a 81       	ldd	r25, Y+2	; 0x02
    5224:	01 96       	adiw	r24, 0x01	; 1
    5226:	9a 83       	std	Y+2, r25	; 0x02
    5228:	89 83       	std	Y+1, r24	; 0x01
    522a:	89 81       	ldd	r24, Y+1	; 0x01
    522c:	9a 81       	ldd	r25, Y+2	; 0x02
    522e:	48 97       	sbiw	r24, 0x18	; 24
    5230:	0c f3       	brlt	.-62     	; 0x51f4 <_ZN3NvrC1Ev+0x4a>
    5232:	8d 81       	ldd	r24, Y+5	; 0x05
    5234:	9e 81       	ldd	r25, Y+6	; 0x06
    5236:	2f ef       	ldi	r18, 0xFF	; 255
    5238:	fc 01       	movw	r30, r24
    523a:	22 83       	std	Z+2, r18	; 0x02
    523c:	8d 81       	ldd	r24, Y+5	; 0x05
    523e:	9e 81       	ldd	r25, Y+6	; 0x06
    5240:	fc 01       	movw	r30, r24
    5242:	22 81       	ldd	r18, Z+2	; 0x02
    5244:	8d 81       	ldd	r24, Y+5	; 0x05
    5246:	9e 81       	ldd	r25, Y+6	; 0x06
    5248:	fc 01       	movw	r30, r24
    524a:	20 83       	st	Z, r18
    524c:	8d 81       	ldd	r24, Y+5	; 0x05
    524e:	9e 81       	ldd	r25, Y+6	; 0x06
    5250:	fc 01       	movw	r30, r24
    5252:	20 81       	ld	r18, Z
    5254:	8d 81       	ldd	r24, Y+5	; 0x05
    5256:	9e 81       	ldd	r25, Y+6	; 0x06
    5258:	fc 01       	movw	r30, r24
    525a:	21 83       	std	Z+1, r18	; 0x01
    525c:	26 96       	adiw	r28, 0x06	; 6
    525e:	0f b6       	in	r0, 0x3f	; 63
    5260:	f8 94       	cli
    5262:	de bf       	out	0x3e, r29	; 62
    5264:	0f be       	out	0x3f, r0	; 63
    5266:	cd bf       	out	0x3d, r28	; 61
    5268:	df 91       	pop	r29
    526a:	cf 91       	pop	r28
    526c:	08 95       	ret

0000526e <_ZN3Nvr10writeSetupEv>:
    526e:	cf 93       	push	r28
    5270:	df 93       	push	r29
    5272:	00 d0       	rcall	.+0      	; 0x5274 <_ZN3Nvr10writeSetupEv+0x6>
    5274:	cd b7       	in	r28, 0x3d	; 61
    5276:	de b7       	in	r29, 0x3e	; 62
    5278:	9a 83       	std	Y+2, r25	; 0x02
    527a:	89 83       	std	Y+1, r24	; 0x01
    527c:	80 91 c5 01 	lds	r24, 0x01C5
    5280:	90 91 c6 01 	lds	r25, 0x01C6
    5284:	89 3e       	cpi	r24, 0xE9	; 233
    5286:	91 40       	sbci	r25, 0x01	; 1
    5288:	30 f0       	brcs	.+12     	; 0x5296 <_ZN3Nvr10writeSetupEv+0x28>
    528a:	88 ee       	ldi	r24, 0xE8	; 232
    528c:	91 e0       	ldi	r25, 0x01	; 1
    528e:	90 93 c6 01 	sts	0x01C6, r25
    5292:	80 93 c5 01 	sts	0x01C5, r24
    5296:	80 91 c5 01 	lds	r24, 0x01C5
    529a:	90 91 c6 01 	lds	r25, 0x01C6
    529e:	89 2b       	or	r24, r25
    52a0:	31 f4       	brne	.+12     	; 0x52ae <_ZN3Nvr10writeSetupEv+0x40>
    52a2:	81 e0       	ldi	r24, 0x01	; 1
    52a4:	90 e0       	ldi	r25, 0x00	; 0
    52a6:	90 93 c6 01 	sts	0x01C6, r25
    52aa:	80 93 c5 01 	sts	0x01C5, r24
    52ae:	47 e3       	ldi	r20, 0x37	; 55
    52b0:	50 e0       	ldi	r21, 0x00	; 0
    52b2:	60 e0       	ldi	r22, 0x00	; 0
    52b4:	70 e0       	ldi	r23, 0x00	; 0
    52b6:	83 ec       	ldi	r24, 0xC3	; 195
    52b8:	91 e0       	ldi	r25, 0x01	; 1
    52ba:	0e 94 f2 37 	call	0x6fe4	; 0x6fe4 <eeprom_write_block>
    52be:	0f 90       	pop	r0
    52c0:	0f 90       	pop	r0
    52c2:	df 91       	pop	r29
    52c4:	cf 91       	pop	r28
    52c6:	08 95       	ret

000052c8 <_ZN3Nvr5memGoEv>:
 * Memory go and goTo routines:
 *  They read the memory into the memNext and numNext
 */

bool Nvr::memGo()               // go
{
    52c8:	cf 93       	push	r28
    52ca:	df 93       	push	r29
    52cc:	00 d0       	rcall	.+0      	; 0x52ce <_ZN3Nvr5memGoEv+0x6>
    52ce:	00 d0       	rcall	.+0      	; 0x52d0 <_ZN3Nvr5memGoEv+0x8>
    52d0:	cd b7       	in	r28, 0x3d	; 61
    52d2:	de b7       	in	r29, 0x3e	; 62
    52d4:	9c 83       	std	Y+4, r25	; 0x04
    52d6:	8b 83       	std	Y+3, r24	; 0x03
    numPrevious=numCurrent;
    52d8:	8b 81       	ldd	r24, Y+3	; 0x03
    52da:	9c 81       	ldd	r25, Y+4	; 0x04
    52dc:	fc 01       	movw	r30, r24
    52de:	20 81       	ld	r18, Z
    52e0:	8b 81       	ldd	r24, Y+3	; 0x03
    52e2:	9c 81       	ldd	r25, Y+4	; 0x04
    52e4:	fc 01       	movw	r30, r24
    52e6:	22 83       	std	Z+2, r18	; 0x02
    numCurrent=numNext;
    52e8:	8b 81       	ldd	r24, Y+3	; 0x03
    52ea:	9c 81       	ldd	r25, Y+4	; 0x04
    52ec:	fc 01       	movw	r30, r24
    52ee:	21 81       	ldd	r18, Z+1	; 0x01
    52f0:	8b 81       	ldd	r24, Y+3	; 0x03
    52f2:	9c 81       	ldd	r25, Y+4	; 0x04
    52f4:	fc 01       	movw	r30, r24
    52f6:	20 83       	st	Z, r18
    int j;
    // if next mem exists return true
    if (numNext>=0) {
        eeprom_read_block((unsigned char *) &memNext,
                          (unsigned char *) &memEE[(int)numNext], sizeof(Mem));
    52f8:	8b 81       	ldd	r24, Y+3	; 0x03
    52fa:	9c 81       	ldd	r25, Y+4	; 0x04
    52fc:	fc 01       	movw	r30, r24
    52fe:	81 81       	ldd	r24, Z+1	; 0x01
    5300:	28 2f       	mov	r18, r24
    5302:	30 e0       	ldi	r19, 0x00	; 0
    5304:	4b e1       	ldi	r20, 0x1B	; 27
    5306:	42 9f       	mul	r20, r18
    5308:	c0 01       	movw	r24, r0
    530a:	43 9f       	mul	r20, r19
    530c:	90 0d       	add	r25, r0
    530e:	11 24       	eor	r1, r1
    5310:	89 5c       	subi	r24, 0xC9	; 201
    5312:	9f 4f       	sbci	r25, 0xFF	; 255
    5314:	4b e1       	ldi	r20, 0x1B	; 27
    5316:	50 e0       	ldi	r21, 0x00	; 0
    5318:	bc 01       	movw	r22, r24
    531a:	8a ef       	ldi	r24, 0xFA	; 250
    531c:	91 e0       	ldi	r25, 0x01	; 1
    531e:	0e 94 d5 37 	call	0x6faa	; 0x6faa <eeprom_read_block>
        if ((numNext+1)<MAXMEM) {
    5322:	8b 81       	ldd	r24, Y+3	; 0x03
    5324:	9c 81       	ldd	r25, Y+4	; 0x04
    5326:	fc 01       	movw	r30, r24
    5328:	81 81       	ldd	r24, Z+1	; 0x01
    532a:	88 2f       	mov	r24, r24
    532c:	90 e0       	ldi	r25, 0x00	; 0
    532e:	01 96       	adiw	r24, 0x01	; 1
    5330:	48 97       	sbiw	r24, 0x18	; 24
    5332:	74 f5       	brge	.+92     	; 0x5390 <_ZN3Nvr5memGoEv+0xc8>
        	for (j = numNext+1; j<MAXMEM; j++) {
    5334:	8b 81       	ldd	r24, Y+3	; 0x03
    5336:	9c 81       	ldd	r25, Y+4	; 0x04
    5338:	fc 01       	movw	r30, r24
    533a:	81 81       	ldd	r24, Z+1	; 0x01
    533c:	88 2f       	mov	r24, r24
    533e:	90 e0       	ldi	r25, 0x00	; 0
    5340:	01 96       	adiw	r24, 0x01	; 1
    5342:	9a 83       	std	Y+2, r25	; 0x02
    5344:	89 83       	std	Y+1, r24	; 0x01
    5346:	16 c0       	rjmp	.+44     	; 0x5374 <_ZN3Nvr5memGoEv+0xac>
        	   if (memValid[j]) {
    5348:	2b 81       	ldd	r18, Y+3	; 0x03
    534a:	3c 81       	ldd	r19, Y+4	; 0x04
    534c:	89 81       	ldd	r24, Y+1	; 0x01
    534e:	9a 81       	ldd	r25, Y+2	; 0x02
    5350:	82 0f       	add	r24, r18
    5352:	93 1f       	adc	r25, r19
    5354:	03 96       	adiw	r24, 0x03	; 3
    5356:	fc 01       	movw	r30, r24
    5358:	80 81       	ld	r24, Z
    535a:	88 23       	and	r24, r24
    535c:	31 f0       	breq	.+12     	; 0x536a <_ZN3Nvr5memGoEv+0xa2>
        	   		numNext=j;
    535e:	29 81       	ldd	r18, Y+1	; 0x01
    5360:	8b 81       	ldd	r24, Y+3	; 0x03
    5362:	9c 81       	ldd	r25, Y+4	; 0x04
    5364:	fc 01       	movw	r30, r24
    5366:	21 83       	std	Z+1, r18	; 0x01
        	   		break;
    5368:	09 c0       	rjmp	.+18     	; 0x537c <_ZN3Nvr5memGoEv+0xb4>
    // if next mem exists return true
    if (numNext>=0) {
        eeprom_read_block((unsigned char *) &memNext,
                          (unsigned char *) &memEE[(int)numNext], sizeof(Mem));
        if ((numNext+1)<MAXMEM) {
        	for (j = numNext+1; j<MAXMEM; j++) {
    536a:	89 81       	ldd	r24, Y+1	; 0x01
    536c:	9a 81       	ldd	r25, Y+2	; 0x02
    536e:	01 96       	adiw	r24, 0x01	; 1
    5370:	9a 83       	std	Y+2, r25	; 0x02
    5372:	89 83       	std	Y+1, r24	; 0x01
    5374:	89 81       	ldd	r24, Y+1	; 0x01
    5376:	9a 81       	ldd	r25, Y+2	; 0x02
    5378:	48 97       	sbiw	r24, 0x18	; 24
    537a:	34 f3       	brlt	.-52     	; 0x5348 <_ZN3Nvr5memGoEv+0x80>
        	   if (memValid[j]) {
        	   		numNext=j;
        	   		break;
        	   }
        	}
        	if (j>=MAXMEM) numNext=-1;
    537c:	89 81       	ldd	r24, Y+1	; 0x01
    537e:	9a 81       	ldd	r25, Y+2	; 0x02
    5380:	48 97       	sbiw	r24, 0x18	; 24
    5382:	5c f0       	brlt	.+22     	; 0x539a <_ZN3Nvr5memGoEv+0xd2>
    5384:	8b 81       	ldd	r24, Y+3	; 0x03
    5386:	9c 81       	ldd	r25, Y+4	; 0x04
    5388:	2f ef       	ldi	r18, 0xFF	; 255
    538a:	fc 01       	movw	r30, r24
    538c:	21 83       	std	Z+1, r18	; 0x01
    538e:	05 c0       	rjmp	.+10     	; 0x539a <_ZN3Nvr5memGoEv+0xd2>
        }
        else numNext = -1;
    5390:	8b 81       	ldd	r24, Y+3	; 0x03
    5392:	9c 81       	ldd	r25, Y+4	; 0x04
    5394:	2f ef       	ldi	r18, 0xFF	; 255
    5396:	fc 01       	movw	r30, r24
    5398:	21 83       	std	Z+1, r18	; 0x01
        return true;
    539a:	81 e0       	ldi	r24, 0x01	; 1
    	   }
    	}
    	if (j>=MAXMEM) numNext=-1;
	    return false;
    }
}
    539c:	0f 90       	pop	r0
    539e:	0f 90       	pop	r0
    53a0:	0f 90       	pop	r0
    53a2:	0f 90       	pop	r0
    53a4:	df 91       	pop	r29
    53a6:	cf 91       	pop	r28
    53a8:	08 95       	ret

000053aa <_ZN3Nvr7memGoToEc>:

bool Nvr::memGoTo(char where)   // go to
{
    53aa:	cf 93       	push	r28
    53ac:	df 93       	push	r29
    53ae:	00 d0       	rcall	.+0      	; 0x53b0 <_ZN3Nvr7memGoToEc+0x6>
    53b0:	00 d0       	rcall	.+0      	; 0x53b2 <_ZN3Nvr7memGoToEc+0x8>
    53b2:	1f 92       	push	r1
    53b4:	cd b7       	in	r28, 0x3d	; 61
    53b6:	de b7       	in	r29, 0x3e	; 62
    53b8:	9c 83       	std	Y+4, r25	; 0x04
    53ba:	8b 83       	std	Y+3, r24	; 0x03
    53bc:	6d 83       	std	Y+5, r22	; 0x05
    	   		break;
    	   }
    	}
    	return true;
	}
    if (memValid[(unsigned char) where]) {
    53be:	8d 81       	ldd	r24, Y+5	; 0x05
    53c0:	88 2f       	mov	r24, r24
    53c2:	90 e0       	ldi	r25, 0x00	; 0
    53c4:	2b 81       	ldd	r18, Y+3	; 0x03
    53c6:	3c 81       	ldd	r19, Y+4	; 0x04
    53c8:	82 0f       	add	r24, r18
    53ca:	93 1f       	adc	r25, r19
    53cc:	03 96       	adiw	r24, 0x03	; 3
    53ce:	fc 01       	movw	r30, r24
    53d0:	80 81       	ld	r24, Z
    53d2:	88 23       	and	r24, r24
    53d4:	09 f4       	brne	.+2      	; 0x53d8 <_ZN3Nvr7memGoToEc+0x2e>
    53d6:	51 c0       	rjmp	.+162    	; 0x547a <_ZN3Nvr7memGoToEc+0xd0>
        eeprom_read_block((unsigned char *) &memNext,
                          (unsigned char *) &memEE[(unsigned char) where],
    53d8:	8d 81       	ldd	r24, Y+5	; 0x05
    53da:	28 2f       	mov	r18, r24
    53dc:	30 e0       	ldi	r19, 0x00	; 0
                          sizeof(Mem));
    53de:	4b e1       	ldi	r20, 0x1B	; 27
    53e0:	42 9f       	mul	r20, r18
    53e2:	c0 01       	movw	r24, r0
    53e4:	43 9f       	mul	r20, r19
    53e6:	90 0d       	add	r25, r0
    53e8:	11 24       	eor	r1, r1
    53ea:	89 5c       	subi	r24, 0xC9	; 201
    53ec:	9f 4f       	sbci	r25, 0xFF	; 255
    53ee:	4b e1       	ldi	r20, 0x1B	; 27
    53f0:	50 e0       	ldi	r21, 0x00	; 0
    53f2:	bc 01       	movw	r22, r24
    53f4:	8a ef       	ldi	r24, 0xFA	; 250
    53f6:	91 e0       	ldi	r25, 0x01	; 1
    53f8:	0e 94 d5 37 	call	0x6faa	; 0x6faa <eeprom_read_block>
        if (where<(MAXMEM-1)) {
    53fc:	8d 81       	ldd	r24, Y+5	; 0x05
    53fe:	87 31       	cpi	r24, 0x17	; 23
    5400:	40 f5       	brcc	.+80     	; 0x5452 <_ZN3Nvr7memGoToEc+0xa8>
	        numNext=-1;
    5402:	8b 81       	ldd	r24, Y+3	; 0x03
    5404:	9c 81       	ldd	r25, Y+4	; 0x04
    5406:	2f ef       	ldi	r18, 0xFF	; 255
    5408:	fc 01       	movw	r30, r24
    540a:	21 83       	std	Z+1, r18	; 0x01
	    	for (j = where+1; j<MAXMEM; j++) {
    540c:	8d 81       	ldd	r24, Y+5	; 0x05
    540e:	88 2f       	mov	r24, r24
    5410:	90 e0       	ldi	r25, 0x00	; 0
    5412:	01 96       	adiw	r24, 0x01	; 1
    5414:	9a 83       	std	Y+2, r25	; 0x02
    5416:	89 83       	std	Y+1, r24	; 0x01
    5418:	17 c0       	rjmp	.+46     	; 0x5448 <_ZN3Nvr7memGoToEc+0x9e>
	    	   if (memValid[j]) {
    541a:	2b 81       	ldd	r18, Y+3	; 0x03
    541c:	3c 81       	ldd	r19, Y+4	; 0x04
    541e:	89 81       	ldd	r24, Y+1	; 0x01
    5420:	9a 81       	ldd	r25, Y+2	; 0x02
    5422:	82 0f       	add	r24, r18
    5424:	93 1f       	adc	r25, r19
    5426:	03 96       	adiw	r24, 0x03	; 3
    5428:	fc 01       	movw	r30, r24
    542a:	80 81       	ld	r24, Z
    542c:	88 23       	and	r24, r24
    542e:	39 f0       	breq	.+14     	; 0x543e <_ZN3Nvr7memGoToEc+0x94>
	    	   		numNext=j;
    5430:	29 81       	ldd	r18, Y+1	; 0x01
    5432:	8b 81       	ldd	r24, Y+3	; 0x03
    5434:	9c 81       	ldd	r25, Y+4	; 0x04
    5436:	fc 01       	movw	r30, r24
    5438:	21 83       	std	Z+1, r18	; 0x01
	    	   		break;
    543a:	00 00       	nop
    543c:	0f c0       	rjmp	.+30     	; 0x545c <_ZN3Nvr7memGoToEc+0xb2>
        eeprom_read_block((unsigned char *) &memNext,
                          (unsigned char *) &memEE[(unsigned char) where],
                          sizeof(Mem));
        if (where<(MAXMEM-1)) {
	        numNext=-1;
	    	for (j = where+1; j<MAXMEM; j++) {
    543e:	89 81       	ldd	r24, Y+1	; 0x01
    5440:	9a 81       	ldd	r25, Y+2	; 0x02
    5442:	01 96       	adiw	r24, 0x01	; 1
    5444:	9a 83       	std	Y+2, r25	; 0x02
    5446:	89 83       	std	Y+1, r24	; 0x01
    5448:	89 81       	ldd	r24, Y+1	; 0x01
    544a:	9a 81       	ldd	r25, Y+2	; 0x02
    544c:	48 97       	sbiw	r24, 0x18	; 24
    544e:	2c f3       	brlt	.-54     	; 0x541a <_ZN3Nvr7memGoToEc+0x70>
    5450:	05 c0       	rjmp	.+10     	; 0x545c <_ZN3Nvr7memGoToEc+0xb2>
	    	   		numNext=j;
	    	   		break;
	    	   }
	    	}
        }
        else numNext=-1;
    5452:	8b 81       	ldd	r24, Y+3	; 0x03
    5454:	9c 81       	ldd	r25, Y+4	; 0x04
    5456:	2f ef       	ldi	r18, 0xFF	; 255
    5458:	fc 01       	movw	r30, r24
    545a:	21 83       	std	Z+1, r18	; 0x01
        numPrevious=numCurrent;
    545c:	8b 81       	ldd	r24, Y+3	; 0x03
    545e:	9c 81       	ldd	r25, Y+4	; 0x04
    5460:	fc 01       	movw	r30, r24
    5462:	20 81       	ld	r18, Z
    5464:	8b 81       	ldd	r24, Y+3	; 0x03
    5466:	9c 81       	ldd	r25, Y+4	; 0x04
    5468:	fc 01       	movw	r30, r24
    546a:	22 83       	std	Z+2, r18	; 0x02
        numCurrent=where;
    546c:	8b 81       	ldd	r24, Y+3	; 0x03
    546e:	9c 81       	ldd	r25, Y+4	; 0x04
    5470:	2d 81       	ldd	r18, Y+5	; 0x05
    5472:	fc 01       	movw	r30, r24
    5474:	20 83       	st	Z, r18
        return true;
    5476:	81 e0       	ldi	r24, 0x01	; 1
    5478:	01 c0       	rjmp	.+2      	; 0x547c <_ZN3Nvr7memGoToEc+0xd2>
    } else
        return false;
    547a:	80 e0       	ldi	r24, 0x00	; 0
}
    547c:	0f 90       	pop	r0
    547e:	0f 90       	pop	r0
    5480:	0f 90       	pop	r0
    5482:	0f 90       	pop	r0
    5484:	0f 90       	pop	r0
    5486:	df 91       	pop	r29
    5488:	cf 91       	pop	r28
    548a:	08 95       	ret

0000548c <_ZN3Nvr7memBackEv>:

bool Nvr::memBack()
{
    548c:	cf 93       	push	r28
    548e:	df 93       	push	r29
    5490:	00 d0       	rcall	.+0      	; 0x5492 <_ZN3Nvr7memBackEv+0x6>
    5492:	00 d0       	rcall	.+0      	; 0x5494 <_ZN3Nvr7memBackEv+0x8>
    5494:	cd b7       	in	r28, 0x3d	; 61
    5496:	de b7       	in	r29, 0x3e	; 62
    5498:	9c 83       	std	Y+4, r25	; 0x04
    549a:	8b 83       	std	Y+3, r24	; 0x03
    int i;
    numNext=numCurrent;
    549c:	8b 81       	ldd	r24, Y+3	; 0x03
    549e:	9c 81       	ldd	r25, Y+4	; 0x04
    54a0:	fc 01       	movw	r30, r24
    54a2:	20 81       	ld	r18, Z
    54a4:	8b 81       	ldd	r24, Y+3	; 0x03
    54a6:	9c 81       	ldd	r25, Y+4	; 0x04
    54a8:	fc 01       	movw	r30, r24
    54aa:	21 83       	std	Z+1, r18	; 0x01
    numCurrent=numPrevious;    	
    54ac:	8b 81       	ldd	r24, Y+3	; 0x03
    54ae:	9c 81       	ldd	r25, Y+4	; 0x04
    54b0:	fc 01       	movw	r30, r24
    54b2:	22 81       	ldd	r18, Z+2	; 0x02
    54b4:	8b 81       	ldd	r24, Y+3	; 0x03
    54b6:	9c 81       	ldd	r25, Y+4	; 0x04
    54b8:	fc 01       	movw	r30, r24
    54ba:	20 83       	st	Z, r18
	    memNext.timeIn = DEFAULT_TIMEIN;
	    memset(&memNext.chan[0], 0, 24);
    }
    else {
        eeprom_read_block((unsigned char *) &memNext,
                          (unsigned char *) &memEE[(unsigned char) numPrevious],
    54bc:	8b 81       	ldd	r24, Y+3	; 0x03
    54be:	9c 81       	ldd	r25, Y+4	; 0x04
    54c0:	fc 01       	movw	r30, r24
    54c2:	82 81       	ldd	r24, Z+2	; 0x02
    54c4:	28 2f       	mov	r18, r24
    54c6:	30 e0       	ldi	r19, 0x00	; 0
                          sizeof(Mem));
    54c8:	4b e1       	ldi	r20, 0x1B	; 27
    54ca:	42 9f       	mul	r20, r18
    54cc:	c0 01       	movw	r24, r0
    54ce:	43 9f       	mul	r20, r19
    54d0:	90 0d       	add	r25, r0
    54d2:	11 24       	eor	r1, r1
    54d4:	89 5c       	subi	r24, 0xC9	; 201
    54d6:	9f 4f       	sbci	r25, 0xFF	; 255
    54d8:	4b e1       	ldi	r20, 0x1B	; 27
    54da:	50 e0       	ldi	r21, 0x00	; 0
    54dc:	bc 01       	movw	r22, r24
    54de:	8a ef       	ldi	r24, 0xFA	; 250
    54e0:	91 e0       	ldi	r25, 0x01	; 1
    54e2:	0e 94 d5 37 	call	0x6faa	; 0x6faa <eeprom_read_block>
    }
    if (numPrevious>0) {
    54e6:	8b 81       	ldd	r24, Y+3	; 0x03
    54e8:	9c 81       	ldd	r25, Y+4	; 0x04
    54ea:	fc 01       	movw	r30, r24
    54ec:	82 81       	ldd	r24, Z+2	; 0x02
    54ee:	88 23       	and	r24, r24
    54f0:	71 f1       	breq	.+92     	; 0x554e <_ZN3Nvr7memBackEv+0xc2>
		for (i = numPrevious-1; i>=0; i--) {
    54f2:	8b 81       	ldd	r24, Y+3	; 0x03
    54f4:	9c 81       	ldd	r25, Y+4	; 0x04
    54f6:	fc 01       	movw	r30, r24
    54f8:	82 81       	ldd	r24, Z+2	; 0x02
    54fa:	88 2f       	mov	r24, r24
    54fc:	90 e0       	ldi	r25, 0x00	; 0
    54fe:	01 97       	sbiw	r24, 0x01	; 1
    5500:	9a 83       	std	Y+2, r25	; 0x02
    5502:	89 83       	std	Y+1, r24	; 0x01
    5504:	16 c0       	rjmp	.+44     	; 0x5532 <_ZN3Nvr7memBackEv+0xa6>
		   if (memValid[i]) {
    5506:	2b 81       	ldd	r18, Y+3	; 0x03
    5508:	3c 81       	ldd	r19, Y+4	; 0x04
    550a:	89 81       	ldd	r24, Y+1	; 0x01
    550c:	9a 81       	ldd	r25, Y+2	; 0x02
    550e:	82 0f       	add	r24, r18
    5510:	93 1f       	adc	r25, r19
    5512:	03 96       	adiw	r24, 0x03	; 3
    5514:	fc 01       	movw	r30, r24
    5516:	80 81       	ld	r24, Z
    5518:	88 23       	and	r24, r24
    551a:	31 f0       	breq	.+12     	; 0x5528 <_ZN3Nvr7memBackEv+0x9c>
		   		numPrevious=i;
    551c:	29 81       	ldd	r18, Y+1	; 0x01
    551e:	8b 81       	ldd	r24, Y+3	; 0x03
    5520:	9c 81       	ldd	r25, Y+4	; 0x04
    5522:	fc 01       	movw	r30, r24
    5524:	22 83       	std	Z+2, r18	; 0x02
		   		break;
    5526:	09 c0       	rjmp	.+18     	; 0x553a <_ZN3Nvr7memBackEv+0xae>
        eeprom_read_block((unsigned char *) &memNext,
                          (unsigned char *) &memEE[(unsigned char) numPrevious],
                          sizeof(Mem));
    }
    if (numPrevious>0) {
		for (i = numPrevious-1; i>=0; i--) {
    5528:	89 81       	ldd	r24, Y+1	; 0x01
    552a:	9a 81       	ldd	r25, Y+2	; 0x02
    552c:	01 97       	sbiw	r24, 0x01	; 1
    552e:	9a 83       	std	Y+2, r25	; 0x02
    5530:	89 83       	std	Y+1, r24	; 0x01
    5532:	89 81       	ldd	r24, Y+1	; 0x01
    5534:	9a 81       	ldd	r25, Y+2	; 0x02
    5536:	99 23       	and	r25, r25
    5538:	34 f7       	brge	.-52     	; 0x5506 <_ZN3Nvr7memBackEv+0x7a>
		   if (memValid[i]) {
		   		numPrevious=i;
		   		break;
		   }
		}
		if (i<0) numPrevious=-1;
    553a:	89 81       	ldd	r24, Y+1	; 0x01
    553c:	9a 81       	ldd	r25, Y+2	; 0x02
    553e:	99 23       	and	r25, r25
    5540:	5c f4       	brge	.+22     	; 0x5558 <_ZN3Nvr7memBackEv+0xcc>
    5542:	8b 81       	ldd	r24, Y+3	; 0x03
    5544:	9c 81       	ldd	r25, Y+4	; 0x04
    5546:	2f ef       	ldi	r18, 0xFF	; 255
    5548:	fc 01       	movw	r30, r24
    554a:	22 83       	std	Z+2, r18	; 0x02
    554c:	05 c0       	rjmp	.+10     	; 0x5558 <_ZN3Nvr7memBackEv+0xcc>
    }
	else numPrevious=-1;
    554e:	8b 81       	ldd	r24, Y+3	; 0x03
    5550:	9c 81       	ldd	r25, Y+4	; 0x04
    5552:	2f ef       	ldi	r18, 0xFF	; 255
    5554:	fc 01       	movw	r30, r24
    5556:	22 83       	std	Z+2, r18	; 0x02
    return true;
    5558:	81 e0       	ldi	r24, 0x01	; 1
}
    555a:	0f 90       	pop	r0
    555c:	0f 90       	pop	r0
    555e:	0f 90       	pop	r0
    5560:	0f 90       	pop	r0
    5562:	df 91       	pop	r29
    5564:	cf 91       	pop	r28
    5566:	08 95       	ret

00005568 <_ZN3Nvr11memCancelGoEv>:

void Nvr::memCancelGo()
{
    5568:	cf 93       	push	r28
    556a:	df 93       	push	r29
    556c:	00 d0       	rcall	.+0      	; 0x556e <_ZN3Nvr11memCancelGoEv+0x6>
    556e:	cd b7       	in	r28, 0x3d	; 61
    5570:	de b7       	in	r29, 0x3e	; 62
    5572:	9a 83       	std	Y+2, r25	; 0x02
    5574:	89 83       	std	Y+1, r24	; 0x01
    numNext=numCurrent;
    5576:	89 81       	ldd	r24, Y+1	; 0x01
    5578:	9a 81       	ldd	r25, Y+2	; 0x02
    557a:	fc 01       	movw	r30, r24
    557c:	20 81       	ld	r18, Z
    557e:	89 81       	ldd	r24, Y+1	; 0x01
    5580:	9a 81       	ldd	r25, Y+2	; 0x02
    5582:	fc 01       	movw	r30, r24
    5584:	21 83       	std	Z+1, r18	; 0x01
    numCurrent=numPrevious;
    5586:	89 81       	ldd	r24, Y+1	; 0x01
    5588:	9a 81       	ldd	r25, Y+2	; 0x02
    558a:	fc 01       	movw	r30, r24
    558c:	22 81       	ldd	r18, Z+2	; 0x02
    558e:	89 81       	ldd	r24, Y+1	; 0x01
    5590:	9a 81       	ldd	r25, Y+2	; 0x02
    5592:	fc 01       	movw	r30, r24
    5594:	20 83       	st	Z, r18
}
    5596:	0f 90       	pop	r0
    5598:	0f 90       	pop	r0
    559a:	df 91       	pop	r29
    559c:	cf 91       	pop	r28
    559e:	08 95       	ret

000055a0 <_ZN3Nvr8memStoreEv>:
/*
 * Memory store and storeTo routines:
 */

int Nvr::memStore()
{
    55a0:	cf 93       	push	r28
    55a2:	df 93       	push	r29
    55a4:	00 d0       	rcall	.+0      	; 0x55a6 <_ZN3Nvr8memStoreEv+0x6>
    55a6:	00 d0       	rcall	.+0      	; 0x55a8 <_ZN3Nvr8memStoreEv+0x8>
    55a8:	cd b7       	in	r28, 0x3d	; 61
    55aa:	de b7       	in	r29, 0x3e	; 62
    55ac:	9c 83       	std	Y+4, r25	; 0x04
    55ae:	8b 83       	std	Y+3, r24	; 0x03
    int i;
    for (i=MAXMEM-1; i>=0; i--)
    55b0:	87 e1       	ldi	r24, 0x17	; 23
    55b2:	90 e0       	ldi	r25, 0x00	; 0
    55b4:	9a 83       	std	Y+2, r25	; 0x02
    55b6:	89 83       	std	Y+1, r24	; 0x01
    55b8:	16 c0       	rjmp	.+44     	; 0x55e6 <_ZN3Nvr8memStoreEv+0x46>
        if (memValid[i]) {
    55ba:	2b 81       	ldd	r18, Y+3	; 0x03
    55bc:	3c 81       	ldd	r19, Y+4	; 0x04
    55be:	89 81       	ldd	r24, Y+1	; 0x01
    55c0:	9a 81       	ldd	r25, Y+2	; 0x02
    55c2:	82 0f       	add	r24, r18
    55c4:	93 1f       	adc	r25, r19
    55c6:	03 96       	adiw	r24, 0x03	; 3
    55c8:	fc 01       	movw	r30, r24
    55ca:	80 81       	ld	r24, Z
    55cc:	88 23       	and	r24, r24
    55ce:	31 f0       	breq	.+12     	; 0x55dc <_ZN3Nvr8memStoreEv+0x3c>
           i++;
    55d0:	89 81       	ldd	r24, Y+1	; 0x01
    55d2:	9a 81       	ldd	r25, Y+2	; 0x02
    55d4:	01 96       	adiw	r24, 0x01	; 1
    55d6:	9a 83       	std	Y+2, r25	; 0x02
    55d8:	89 83       	std	Y+1, r24	; 0x01
           break;
    55da:	09 c0       	rjmp	.+18     	; 0x55ee <_ZN3Nvr8memStoreEv+0x4e>
 */

int Nvr::memStore()
{
    int i;
    for (i=MAXMEM-1; i>=0; i--)
    55dc:	89 81       	ldd	r24, Y+1	; 0x01
    55de:	9a 81       	ldd	r25, Y+2	; 0x02
    55e0:	01 97       	sbiw	r24, 0x01	; 1
    55e2:	9a 83       	std	Y+2, r25	; 0x02
    55e4:	89 83       	std	Y+1, r24	; 0x01
    55e6:	89 81       	ldd	r24, Y+1	; 0x01
    55e8:	9a 81       	ldd	r25, Y+2	; 0x02
    55ea:	99 23       	and	r25, r25
    55ec:	34 f7       	brge	.-52     	; 0x55ba <_ZN3Nvr8memStoreEv+0x1a>
        if (memValid[i]) {
           i++;
           break;
        }
    if (i>=MAXMEM) return -1;
    55ee:	89 81       	ldd	r24, Y+1	; 0x01
    55f0:	9a 81       	ldd	r25, Y+2	; 0x02
    55f2:	48 97       	sbiw	r24, 0x18	; 24
    55f4:	1c f0       	brlt	.+6      	; 0x55fc <_ZN3Nvr8memStoreEv+0x5c>
    55f6:	8f ef       	ldi	r24, 0xFF	; 255
    55f8:	9f ef       	ldi	r25, 0xFF	; 255
    55fa:	4e c0       	rjmp	.+156    	; 0x5698 <_ZN3Nvr8memStoreEv+0xf8>
    if (i<0) i=0;
    55fc:	89 81       	ldd	r24, Y+1	; 0x01
    55fe:	9a 81       	ldd	r25, Y+2	; 0x02
    5600:	99 23       	and	r25, r25
    5602:	14 f4       	brge	.+4      	; 0x5608 <_ZN3Nvr8memStoreEv+0x68>
    5604:	1a 82       	std	Y+2, r1	; 0x02
    5606:	19 82       	std	Y+1, r1	; 0x01
    if (memValid[i]) return -1;
    5608:	2b 81       	ldd	r18, Y+3	; 0x03
    560a:	3c 81       	ldd	r19, Y+4	; 0x04
    560c:	89 81       	ldd	r24, Y+1	; 0x01
    560e:	9a 81       	ldd	r25, Y+2	; 0x02
    5610:	82 0f       	add	r24, r18
    5612:	93 1f       	adc	r25, r19
    5614:	03 96       	adiw	r24, 0x03	; 3
    5616:	fc 01       	movw	r30, r24
    5618:	80 81       	ld	r24, Z
    561a:	88 23       	and	r24, r24
    561c:	19 f0       	breq	.+6      	; 0x5624 <_ZN3Nvr8memStoreEv+0x84>
    561e:	8f ef       	ldi	r24, 0xFF	; 255
    5620:	9f ef       	ldi	r25, 0xFF	; 255
    5622:	3a c0       	rjmp	.+116    	; 0x5698 <_ZN3Nvr8memStoreEv+0xf8>
    memValid[i]=1;
    5624:	2b 81       	ldd	r18, Y+3	; 0x03
    5626:	3c 81       	ldd	r19, Y+4	; 0x04
    5628:	89 81       	ldd	r24, Y+1	; 0x01
    562a:	9a 81       	ldd	r25, Y+2	; 0x02
    562c:	82 0f       	add	r24, r18
    562e:	93 1f       	adc	r25, r19
    5630:	03 96       	adiw	r24, 0x03	; 3
    5632:	21 e0       	ldi	r18, 0x01	; 1
    5634:	fc 01       	movw	r30, r24
    5636:	20 83       	st	Z, r18
    eeprom_write_byte(&memEE[i].valid,1);
    5638:	29 81       	ldd	r18, Y+1	; 0x01
    563a:	3a 81       	ldd	r19, Y+2	; 0x02
    563c:	4b e1       	ldi	r20, 0x1B	; 27
    563e:	42 9f       	mul	r20, r18
    5640:	c0 01       	movw	r24, r0
    5642:	43 9f       	mul	r20, r19
    5644:	90 0d       	add	r25, r0
    5646:	11 24       	eor	r1, r1
    5648:	89 5c       	subi	r24, 0xC9	; 201
    564a:	9f 4f       	sbci	r25, 0xFF	; 255
    564c:	61 e0       	ldi	r22, 0x01	; 1
    564e:	0e 94 fb 37 	call	0x6ff6	; 0x6ff6 <eeprom_write_byte>
    eeprom_write_word(&memEE[i].timeIn,DEFAULT_TIMEIN);
    5652:	29 81       	ldd	r18, Y+1	; 0x01
    5654:	3a 81       	ldd	r19, Y+2	; 0x02
    5656:	4b e1       	ldi	r20, 0x1B	; 27
    5658:	42 9f       	mul	r20, r18
    565a:	c0 01       	movw	r24, r0
    565c:	43 9f       	mul	r20, r19
    565e:	90 0d       	add	r25, r0
    5660:	11 24       	eor	r1, r1
    5662:	01 96       	adiw	r24, 0x01	; 1
    5664:	89 5c       	subi	r24, 0xC9	; 201
    5666:	9f 4f       	sbci	r25, 0xFF	; 255
    5668:	6a e5       	ldi	r22, 0x5A	; 90
    566a:	70 e0       	ldi	r23, 0x00	; 0
    566c:	0e 94 08 38 	call	0x7010	; 0x7010 <eeprom_write_word>
    eeprom_write_block((const void *)&Dmx::inVal[0], &memEE[i].chan[0],24);
    5670:	29 81       	ldd	r18, Y+1	; 0x01
    5672:	3a 81       	ldd	r19, Y+2	; 0x02
    5674:	4b e1       	ldi	r20, 0x1B	; 27
    5676:	42 9f       	mul	r20, r18
    5678:	c0 01       	movw	r24, r0
    567a:	43 9f       	mul	r20, r19
    567c:	90 0d       	add	r25, r0
    567e:	11 24       	eor	r1, r1
    5680:	03 96       	adiw	r24, 0x03	; 3
    5682:	89 5c       	subi	r24, 0xC9	; 201
    5684:	9f 4f       	sbci	r25, 0xFF	; 255
    5686:	48 e1       	ldi	r20, 0x18	; 24
    5688:	50 e0       	ldi	r21, 0x00	; 0
    568a:	bc 01       	movw	r22, r24
    568c:	84 e6       	ldi	r24, 0x64	; 100
    568e:	91 e0       	ldi	r25, 0x01	; 1
    5690:	0e 94 f2 37 	call	0x6fe4	; 0x6fe4 <eeprom_write_block>
    if (numNext<0) numNext=i;
    return i;
    5694:	89 81       	ldd	r24, Y+1	; 0x01
    5696:	9a 81       	ldd	r25, Y+2	; 0x02
}
    5698:	0f 90       	pop	r0
    569a:	0f 90       	pop	r0
    569c:	0f 90       	pop	r0
    569e:	0f 90       	pop	r0
    56a0:	df 91       	pop	r29
    56a2:	cf 91       	pop	r28
    56a4:	08 95       	ret

000056a6 <_ZN3Nvr10memStoreToEh>:

void Nvr::memStoreTo(unsigned char where)
{
    56a6:	cf 93       	push	r28
    56a8:	df 93       	push	r29
    56aa:	00 d0       	rcall	.+0      	; 0x56ac <_ZN3Nvr10memStoreToEh+0x6>
    56ac:	1f 92       	push	r1
    56ae:	cd b7       	in	r28, 0x3d	; 61
    56b0:	de b7       	in	r29, 0x3e	; 62
    56b2:	9a 83       	std	Y+2, r25	; 0x02
    56b4:	89 83       	std	Y+1, r24	; 0x01
    56b6:	6b 83       	std	Y+3, r22	; 0x03
    if (where>=MAXMEM) return;
    56b8:	8b 81       	ldd	r24, Y+3	; 0x03
    56ba:	88 31       	cpi	r24, 0x18	; 24
    56bc:	08 f0       	brcs	.+2      	; 0x56c0 <_ZN3Nvr10memStoreToEh+0x1a>
    56be:	3c c0       	rjmp	.+120    	; 0x5738 <_ZN3Nvr10memStoreToEh+0x92>
    memValid[where]=1;
    56c0:	8b 81       	ldd	r24, Y+3	; 0x03
    56c2:	88 2f       	mov	r24, r24
    56c4:	90 e0       	ldi	r25, 0x00	; 0
    56c6:	29 81       	ldd	r18, Y+1	; 0x01
    56c8:	3a 81       	ldd	r19, Y+2	; 0x02
    56ca:	82 0f       	add	r24, r18
    56cc:	93 1f       	adc	r25, r19
    56ce:	03 96       	adiw	r24, 0x03	; 3
    56d0:	21 e0       	ldi	r18, 0x01	; 1
    56d2:	fc 01       	movw	r30, r24
    56d4:	20 83       	st	Z, r18
    eeprom_write_byte(&memEE[where].valid,1);
    56d6:	8b 81       	ldd	r24, Y+3	; 0x03
    56d8:	28 2f       	mov	r18, r24
    56da:	30 e0       	ldi	r19, 0x00	; 0
    56dc:	4b e1       	ldi	r20, 0x1B	; 27
    56de:	42 9f       	mul	r20, r18
    56e0:	c0 01       	movw	r24, r0
    56e2:	43 9f       	mul	r20, r19
    56e4:	90 0d       	add	r25, r0
    56e6:	11 24       	eor	r1, r1
    56e8:	89 5c       	subi	r24, 0xC9	; 201
    56ea:	9f 4f       	sbci	r25, 0xFF	; 255
    56ec:	61 e0       	ldi	r22, 0x01	; 1
    56ee:	0e 94 fb 37 	call	0x6ff6	; 0x6ff6 <eeprom_write_byte>
    eeprom_write_word(&memEE[where].timeIn,DEFAULT_TIMEIN);
    56f2:	8b 81       	ldd	r24, Y+3	; 0x03
    56f4:	28 2f       	mov	r18, r24
    56f6:	30 e0       	ldi	r19, 0x00	; 0
    56f8:	4b e1       	ldi	r20, 0x1B	; 27
    56fa:	42 9f       	mul	r20, r18
    56fc:	c0 01       	movw	r24, r0
    56fe:	43 9f       	mul	r20, r19
    5700:	90 0d       	add	r25, r0
    5702:	11 24       	eor	r1, r1
    5704:	01 96       	adiw	r24, 0x01	; 1
    5706:	89 5c       	subi	r24, 0xC9	; 201
    5708:	9f 4f       	sbci	r25, 0xFF	; 255
    570a:	6a e5       	ldi	r22, 0x5A	; 90
    570c:	70 e0       	ldi	r23, 0x00	; 0
    570e:	0e 94 08 38 	call	0x7010	; 0x7010 <eeprom_write_word>
    eeprom_write_block((const void *)&Dmx::inVal[0], &memEE[where].chan[0],24);
    5712:	8b 81       	ldd	r24, Y+3	; 0x03
    5714:	28 2f       	mov	r18, r24
    5716:	30 e0       	ldi	r19, 0x00	; 0
    5718:	4b e1       	ldi	r20, 0x1B	; 27
    571a:	42 9f       	mul	r20, r18
    571c:	c0 01       	movw	r24, r0
    571e:	43 9f       	mul	r20, r19
    5720:	90 0d       	add	r25, r0
    5722:	11 24       	eor	r1, r1
    5724:	03 96       	adiw	r24, 0x03	; 3
    5726:	89 5c       	subi	r24, 0xC9	; 201
    5728:	9f 4f       	sbci	r25, 0xFF	; 255
    572a:	48 e1       	ldi	r20, 0x18	; 24
    572c:	50 e0       	ldi	r21, 0x00	; 0
    572e:	bc 01       	movw	r22, r24
    5730:	84 e6       	ldi	r24, 0x64	; 100
    5732:	91 e0       	ldi	r25, 0x01	; 1
    5734:	0e 94 f2 37 	call	0x6fe4	; 0x6fe4 <eeprom_write_block>
    if (numNext<0) numNext=where;
}
    5738:	0f 90       	pop	r0
    573a:	0f 90       	pop	r0
    573c:	0f 90       	pop	r0
    573e:	df 91       	pop	r29
    5740:	cf 91       	pop	r28
    5742:	08 95       	ret

00005744 <_ZN3Nvr10memGetTimeEh>:
/*
 * Memory editing functions:
 */

unsigned int Nvr::memGetTime(unsigned char m)
{
    5744:	cf 93       	push	r28
    5746:	df 93       	push	r29
    5748:	00 d0       	rcall	.+0      	; 0x574a <_ZN3Nvr10memGetTimeEh+0x6>
    574a:	1f 92       	push	r1
    574c:	cd b7       	in	r28, 0x3d	; 61
    574e:	de b7       	in	r29, 0x3e	; 62
    5750:	9a 83       	std	Y+2, r25	; 0x02
    5752:	89 83       	std	Y+1, r24	; 0x01
    5754:	6b 83       	std	Y+3, r22	; 0x03
    if (m>=MAXMEM) return 0xffff;
    5756:	8b 81       	ldd	r24, Y+3	; 0x03
    5758:	88 31       	cpi	r24, 0x18	; 24
    575a:	18 f0       	brcs	.+6      	; 0x5762 <_ZN3Nvr10memGetTimeEh+0x1e>
    575c:	8f ef       	ldi	r24, 0xFF	; 255
    575e:	9f ef       	ldi	r25, 0xFF	; 255
    5760:	20 c0       	rjmp	.+64     	; 0x57a2 <_ZN3Nvr10memGetTimeEh+0x5e>
    if (!eeprom_read_byte(&memEE[m].valid)) return 0xffff;
    5762:	8b 81       	ldd	r24, Y+3	; 0x03
    5764:	28 2f       	mov	r18, r24
    5766:	30 e0       	ldi	r19, 0x00	; 0
    5768:	4b e1       	ldi	r20, 0x1B	; 27
    576a:	42 9f       	mul	r20, r18
    576c:	c0 01       	movw	r24, r0
    576e:	43 9f       	mul	r20, r19
    5770:	90 0d       	add	r25, r0
    5772:	11 24       	eor	r1, r1
    5774:	89 5c       	subi	r24, 0xC9	; 201
    5776:	9f 4f       	sbci	r25, 0xFF	; 255
    5778:	0e 94 e5 37 	call	0x6fca	; 0x6fca <eeprom_read_byte>
    577c:	88 23       	and	r24, r24
    577e:	19 f4       	brne	.+6      	; 0x5786 <_ZN3Nvr10memGetTimeEh+0x42>
    5780:	8f ef       	ldi	r24, 0xFF	; 255
    5782:	9f ef       	ldi	r25, 0xFF	; 255
    5784:	0e c0       	rjmp	.+28     	; 0x57a2 <_ZN3Nvr10memGetTimeEh+0x5e>
    return eeprom_read_word(&memEE[m].timeIn);
    5786:	8b 81       	ldd	r24, Y+3	; 0x03
    5788:	28 2f       	mov	r18, r24
    578a:	30 e0       	ldi	r19, 0x00	; 0
    578c:	4b e1       	ldi	r20, 0x1B	; 27
    578e:	42 9f       	mul	r20, r18
    5790:	c0 01       	movw	r24, r0
    5792:	43 9f       	mul	r20, r19
    5794:	90 0d       	add	r25, r0
    5796:	11 24       	eor	r1, r1
    5798:	01 96       	adiw	r24, 0x01	; 1
    579a:	89 5c       	subi	r24, 0xC9	; 201
    579c:	9f 4f       	sbci	r25, 0xFF	; 255
    579e:	0e 94 ed 37 	call	0x6fda	; 0x6fda <eeprom_read_word>
}
    57a2:	0f 90       	pop	r0
    57a4:	0f 90       	pop	r0
    57a6:	0f 90       	pop	r0
    57a8:	df 91       	pop	r29
    57aa:	cf 91       	pop	r28
    57ac:	08 95       	ret

000057ae <_ZN3Nvr10memSetTimeEhj>:

bool Nvr::memSetTime(unsigned char m, unsigned int time)
{
    57ae:	cf 93       	push	r28
    57b0:	df 93       	push	r29
    57b2:	00 d0       	rcall	.+0      	; 0x57b4 <_ZN3Nvr10memSetTimeEhj+0x6>
    57b4:	00 d0       	rcall	.+0      	; 0x57b6 <_ZN3Nvr10memSetTimeEhj+0x8>
    57b6:	1f 92       	push	r1
    57b8:	cd b7       	in	r28, 0x3d	; 61
    57ba:	de b7       	in	r29, 0x3e	; 62
    57bc:	9a 83       	std	Y+2, r25	; 0x02
    57be:	89 83       	std	Y+1, r24	; 0x01
    57c0:	6b 83       	std	Y+3, r22	; 0x03
    57c2:	5d 83       	std	Y+5, r21	; 0x05
    57c4:	4c 83       	std	Y+4, r20	; 0x04
    if (m>=MAXMEM) return false;
    57c6:	8b 81       	ldd	r24, Y+3	; 0x03
    57c8:	88 31       	cpi	r24, 0x18	; 24
    57ca:	10 f0       	brcs	.+4      	; 0x57d0 <_ZN3Nvr10memSetTimeEhj+0x22>
    57cc:	80 e0       	ldi	r24, 0x00	; 0
    57ce:	23 c0       	rjmp	.+70     	; 0x5816 <_ZN3Nvr10memSetTimeEhj+0x68>
    if (!eeprom_read_byte(&memEE[m].valid)) return false;
    57d0:	8b 81       	ldd	r24, Y+3	; 0x03
    57d2:	28 2f       	mov	r18, r24
    57d4:	30 e0       	ldi	r19, 0x00	; 0
    57d6:	4b e1       	ldi	r20, 0x1B	; 27
    57d8:	42 9f       	mul	r20, r18
    57da:	c0 01       	movw	r24, r0
    57dc:	43 9f       	mul	r20, r19
    57de:	90 0d       	add	r25, r0
    57e0:	11 24       	eor	r1, r1
    57e2:	89 5c       	subi	r24, 0xC9	; 201
    57e4:	9f 4f       	sbci	r25, 0xFF	; 255
    57e6:	0e 94 e5 37 	call	0x6fca	; 0x6fca <eeprom_read_byte>
    57ea:	88 23       	and	r24, r24
    57ec:	11 f4       	brne	.+4      	; 0x57f2 <_ZN3Nvr10memSetTimeEhj+0x44>
    57ee:	80 e0       	ldi	r24, 0x00	; 0
    57f0:	12 c0       	rjmp	.+36     	; 0x5816 <_ZN3Nvr10memSetTimeEhj+0x68>
    eeprom_write_word(&memEE[m].timeIn,time);
    57f2:	8b 81       	ldd	r24, Y+3	; 0x03
    57f4:	28 2f       	mov	r18, r24
    57f6:	30 e0       	ldi	r19, 0x00	; 0
    57f8:	4b e1       	ldi	r20, 0x1B	; 27
    57fa:	42 9f       	mul	r20, r18
    57fc:	c0 01       	movw	r24, r0
    57fe:	43 9f       	mul	r20, r19
    5800:	90 0d       	add	r25, r0
    5802:	11 24       	eor	r1, r1
    5804:	01 96       	adiw	r24, 0x01	; 1
    5806:	89 5c       	subi	r24, 0xC9	; 201
    5808:	9f 4f       	sbci	r25, 0xFF	; 255
    580a:	2c 81       	ldd	r18, Y+4	; 0x04
    580c:	3d 81       	ldd	r19, Y+5	; 0x05
    580e:	b9 01       	movw	r22, r18
    5810:	0e 94 08 38 	call	0x7010	; 0x7010 <eeprom_write_word>
    return true;
    5814:	81 e0       	ldi	r24, 0x01	; 1
}
    5816:	0f 90       	pop	r0
    5818:	0f 90       	pop	r0
    581a:	0f 90       	pop	r0
    581c:	0f 90       	pop	r0
    581e:	0f 90       	pop	r0
    5820:	df 91       	pop	r29
    5822:	cf 91       	pop	r28
    5824:	08 95       	ret

00005826 <_ZN3Nvr9memDeleteEh>:

bool Nvr::memDelete(unsigned char m)
{
    5826:	cf 93       	push	r28
    5828:	df 93       	push	r29
    582a:	00 d0       	rcall	.+0      	; 0x582c <_ZN3Nvr9memDeleteEh+0x6>
    582c:	00 d0       	rcall	.+0      	; 0x582e <_ZN3Nvr9memDeleteEh+0x8>
    582e:	cd b7       	in	r28, 0x3d	; 61
    5830:	de b7       	in	r29, 0x3e	; 62
    5832:	9b 83       	std	Y+3, r25	; 0x03
    5834:	8a 83       	std	Y+2, r24	; 0x02
    5836:	6c 83       	std	Y+4, r22	; 0x04
    if (m>=MAXMEM) return false;
    5838:	8c 81       	ldd	r24, Y+4	; 0x04
    583a:	88 31       	cpi	r24, 0x18	; 24
    583c:	10 f0       	brcs	.+4      	; 0x5842 <_ZN3Nvr9memDeleteEh+0x1c>
    583e:	80 e0       	ldi	r24, 0x00	; 0
    5840:	57 c0       	rjmp	.+174    	; 0x58f0 <_ZN3Nvr9memDeleteEh+0xca>
    if (!eeprom_read_byte(&memEE[m].valid)) return false;
    5842:	8c 81       	ldd	r24, Y+4	; 0x04
    5844:	28 2f       	mov	r18, r24
    5846:	30 e0       	ldi	r19, 0x00	; 0
    5848:	4b e1       	ldi	r20, 0x1B	; 27
    584a:	42 9f       	mul	r20, r18
    584c:	c0 01       	movw	r24, r0
    584e:	43 9f       	mul	r20, r19
    5850:	90 0d       	add	r25, r0
    5852:	11 24       	eor	r1, r1
    5854:	89 5c       	subi	r24, 0xC9	; 201
    5856:	9f 4f       	sbci	r25, 0xFF	; 255
    5858:	0e 94 e5 37 	call	0x6fca	; 0x6fca <eeprom_read_byte>
    585c:	88 23       	and	r24, r24
    585e:	11 f4       	brne	.+4      	; 0x5864 <_ZN3Nvr9memDeleteEh+0x3e>
    5860:	80 e0       	ldi	r24, 0x00	; 0
    5862:	46 c0       	rjmp	.+140    	; 0x58f0 <_ZN3Nvr9memDeleteEh+0xca>
    eeprom_write_byte(&memEE[m].valid,0);
    5864:	8c 81       	ldd	r24, Y+4	; 0x04
    5866:	28 2f       	mov	r18, r24
    5868:	30 e0       	ldi	r19, 0x00	; 0
    586a:	4b e1       	ldi	r20, 0x1B	; 27
    586c:	42 9f       	mul	r20, r18
    586e:	c0 01       	movw	r24, r0
    5870:	43 9f       	mul	r20, r19
    5872:	90 0d       	add	r25, r0
    5874:	11 24       	eor	r1, r1
    5876:	89 5c       	subi	r24, 0xC9	; 201
    5878:	9f 4f       	sbci	r25, 0xFF	; 255
    587a:	60 e0       	ldi	r22, 0x00	; 0
    587c:	0e 94 fb 37 	call	0x6ff6	; 0x6ff6 <eeprom_write_byte>
    memValid[m]=0;
    5880:	8c 81       	ldd	r24, Y+4	; 0x04
    5882:	88 2f       	mov	r24, r24
    5884:	90 e0       	ldi	r25, 0x00	; 0
    5886:	2a 81       	ldd	r18, Y+2	; 0x02
    5888:	3b 81       	ldd	r19, Y+3	; 0x03
    588a:	82 0f       	add	r24, r18
    588c:	93 1f       	adc	r25, r19
    588e:	03 96       	adiw	r24, 0x03	; 3
    5890:	fc 01       	movw	r30, r24
    5892:	10 82       	st	Z, r1
    if (numNext==m) {
    5894:	8a 81       	ldd	r24, Y+2	; 0x02
    5896:	9b 81       	ldd	r25, Y+3	; 0x03
    5898:	fc 01       	movw	r30, r24
    589a:	91 81       	ldd	r25, Z+1	; 0x01
    589c:	8c 81       	ldd	r24, Y+4	; 0x04
    589e:	98 17       	cp	r25, r24
    58a0:	31 f5       	brne	.+76     	; 0x58ee <_ZN3Nvr9memDeleteEh+0xc8>
        unsigned char j;
        numNext=-1;
    58a2:	8a 81       	ldd	r24, Y+2	; 0x02
    58a4:	9b 81       	ldd	r25, Y+3	; 0x03
    58a6:	2f ef       	ldi	r18, 0xFF	; 255
    58a8:	fc 01       	movw	r30, r24
    58aa:	21 83       	std	Z+1, r18	; 0x01
        for (j = (m<(MAXMEM-1)) ? m+1 : MAXMEM-1; j<MAXMEM; j++) {
    58ac:	8c 81       	ldd	r24, Y+4	; 0x04
    58ae:	87 31       	cpi	r24, 0x17	; 23
    58b0:	18 f4       	brcc	.+6      	; 0x58b8 <_ZN3Nvr9memDeleteEh+0x92>
    58b2:	8c 81       	ldd	r24, Y+4	; 0x04
    58b4:	8f 5f       	subi	r24, 0xFF	; 255
    58b6:	01 c0       	rjmp	.+2      	; 0x58ba <_ZN3Nvr9memDeleteEh+0x94>
    58b8:	87 e1       	ldi	r24, 0x17	; 23
    58ba:	89 83       	std	Y+1, r24	; 0x01
    58bc:	15 c0       	rjmp	.+42     	; 0x58e8 <_ZN3Nvr9memDeleteEh+0xc2>
            if (memValid[j]) {
    58be:	89 81       	ldd	r24, Y+1	; 0x01
    58c0:	88 2f       	mov	r24, r24
    58c2:	90 e0       	ldi	r25, 0x00	; 0
    58c4:	2a 81       	ldd	r18, Y+2	; 0x02
    58c6:	3b 81       	ldd	r19, Y+3	; 0x03
    58c8:	82 0f       	add	r24, r18
    58ca:	93 1f       	adc	r25, r19
    58cc:	03 96       	adiw	r24, 0x03	; 3
    58ce:	fc 01       	movw	r30, r24
    58d0:	80 81       	ld	r24, Z
    58d2:	88 23       	and	r24, r24
    58d4:	31 f0       	breq	.+12     	; 0x58e2 <_ZN3Nvr9memDeleteEh+0xbc>
                  numNext=j;
    58d6:	8a 81       	ldd	r24, Y+2	; 0x02
    58d8:	9b 81       	ldd	r25, Y+3	; 0x03
    58da:	29 81       	ldd	r18, Y+1	; 0x01
    58dc:	fc 01       	movw	r30, r24
    58de:	21 83       	std	Z+1, r18	; 0x01
                 break;
    58e0:	06 c0       	rjmp	.+12     	; 0x58ee <_ZN3Nvr9memDeleteEh+0xc8>
    eeprom_write_byte(&memEE[m].valid,0);
    memValid[m]=0;
    if (numNext==m) {
        unsigned char j;
        numNext=-1;
        for (j = (m<(MAXMEM-1)) ? m+1 : MAXMEM-1; j<MAXMEM; j++) {
    58e2:	89 81       	ldd	r24, Y+1	; 0x01
    58e4:	8f 5f       	subi	r24, 0xFF	; 255
    58e6:	89 83       	std	Y+1, r24	; 0x01
    58e8:	89 81       	ldd	r24, Y+1	; 0x01
    58ea:	88 31       	cpi	r24, 0x18	; 24
    58ec:	40 f3       	brcs	.-48     	; 0x58be <_ZN3Nvr9memDeleteEh+0x98>
                  numNext=j;
                 break;
            }
        }
    }
    return true;
    58ee:	81 e0       	ldi	r24, 0x01	; 1
}
    58f0:	0f 90       	pop	r0
    58f2:	0f 90       	pop	r0
    58f4:	0f 90       	pop	r0
    58f6:	0f 90       	pop	r0
    58f8:	df 91       	pop	r29
    58fa:	cf 91       	pop	r28
    58fc:	08 95       	ret

000058fe <_ZN3Nvr8memClearEv>:

void Nvr::memClear()
{
    58fe:	cf 93       	push	r28
    5900:	df 93       	push	r29
    5902:	00 d0       	rcall	.+0      	; 0x5904 <_ZN3Nvr8memClearEv+0x6>
    5904:	00 d0       	rcall	.+0      	; 0x5906 <_ZN3Nvr8memClearEv+0x8>
    5906:	cd b7       	in	r28, 0x3d	; 61
    5908:	de b7       	in	r29, 0x3e	; 62
    590a:	9c 83       	std	Y+4, r25	; 0x04
    590c:	8b 83       	std	Y+3, r24	; 0x03
    memset(&memValid[0],0,MAXMEM);
    590e:	8b 81       	ldd	r24, Y+3	; 0x03
    5910:	9c 81       	ldd	r25, Y+4	; 0x04
    5912:	03 96       	adiw	r24, 0x03	; 3
    5914:	48 e1       	ldi	r20, 0x18	; 24
    5916:	50 e0       	ldi	r21, 0x00	; 0
    5918:	60 e0       	ldi	r22, 0x00	; 0
    591a:	70 e0       	ldi	r23, 0x00	; 0
    591c:	a1 d6       	rcall	.+3394   	; 0x6660 <memset>
    for (int i = 0; i < MAXMEM; ++i) {
    591e:	1a 82       	std	Y+2, r1	; 0x02
    5920:	19 82       	std	Y+1, r1	; 0x01
    5922:	12 c0       	rjmp	.+36     	; 0x5948 <_ZN3Nvr8memClearEv+0x4a>
        eeprom_write_byte(&memEE[i].valid, 0);  // invalidate all memories
    5924:	29 81       	ldd	r18, Y+1	; 0x01
    5926:	3a 81       	ldd	r19, Y+2	; 0x02
    5928:	4b e1       	ldi	r20, 0x1B	; 27
    592a:	42 9f       	mul	r20, r18
    592c:	c0 01       	movw	r24, r0
    592e:	43 9f       	mul	r20, r19
    5930:	90 0d       	add	r25, r0
    5932:	11 24       	eor	r1, r1
    5934:	89 5c       	subi	r24, 0xC9	; 201
    5936:	9f 4f       	sbci	r25, 0xFF	; 255
    5938:	60 e0       	ldi	r22, 0x00	; 0
    593a:	0e 94 fb 37 	call	0x6ff6	; 0x6ff6 <eeprom_write_byte>
}

void Nvr::memClear()
{
    memset(&memValid[0],0,MAXMEM);
    for (int i = 0; i < MAXMEM; ++i) {
    593e:	89 81       	ldd	r24, Y+1	; 0x01
    5940:	9a 81       	ldd	r25, Y+2	; 0x02
    5942:	01 96       	adiw	r24, 0x01	; 1
    5944:	9a 83       	std	Y+2, r25	; 0x02
    5946:	89 83       	std	Y+1, r24	; 0x01
    5948:	89 81       	ldd	r24, Y+1	; 0x01
    594a:	9a 81       	ldd	r25, Y+2	; 0x02
    594c:	48 97       	sbiw	r24, 0x18	; 24
    594e:	54 f3       	brlt	.-44     	; 0x5924 <_ZN3Nvr8memClearEv+0x26>
        eeprom_write_byte(&memEE[i].valid, 0);  // invalidate all memories
    }
    numNext=numCurrent=numPrevious=-1;
    5950:	8b 81       	ldd	r24, Y+3	; 0x03
    5952:	9c 81       	ldd	r25, Y+4	; 0x04
    5954:	2f ef       	ldi	r18, 0xFF	; 255
    5956:	fc 01       	movw	r30, r24
    5958:	22 83       	std	Z+2, r18	; 0x02
    595a:	8b 81       	ldd	r24, Y+3	; 0x03
    595c:	9c 81       	ldd	r25, Y+4	; 0x04
    595e:	fc 01       	movw	r30, r24
    5960:	22 81       	ldd	r18, Z+2	; 0x02
    5962:	8b 81       	ldd	r24, Y+3	; 0x03
    5964:	9c 81       	ldd	r25, Y+4	; 0x04
    5966:	fc 01       	movw	r30, r24
    5968:	20 83       	st	Z, r18
    596a:	8b 81       	ldd	r24, Y+3	; 0x03
    596c:	9c 81       	ldd	r25, Y+4	; 0x04
    596e:	fc 01       	movw	r30, r24
    5970:	20 81       	ld	r18, Z
    5972:	8b 81       	ldd	r24, Y+3	; 0x03
    5974:	9c 81       	ldd	r25, Y+4	; 0x04
    5976:	fc 01       	movw	r30, r24
    5978:	21 83       	std	Z+1, r18	; 0x01
}
    597a:	0f 90       	pop	r0
    597c:	0f 90       	pop	r0
    597e:	0f 90       	pop	r0
    5980:	0f 90       	pop	r0
    5982:	df 91       	pop	r29
    5984:	cf 91       	pop	r28
    5986:	08 95       	ret

00005988 <_Z41__static_initialization_and_destruction_0ii>:
    5988:	cf 93       	push	r28
    598a:	df 93       	push	r29
    598c:	00 d0       	rcall	.+0      	; 0x598e <_Z41__static_initialization_and_destruction_0ii+0x6>
    598e:	00 d0       	rcall	.+0      	; 0x5990 <_Z41__static_initialization_and_destruction_0ii+0x8>
    5990:	cd b7       	in	r28, 0x3d	; 61
    5992:	de b7       	in	r29, 0x3e	; 62
    5994:	9a 83       	std	Y+2, r25	; 0x02
    5996:	89 83       	std	Y+1, r24	; 0x01
    5998:	7c 83       	std	Y+4, r23	; 0x04
    599a:	6b 83       	std	Y+3, r22	; 0x03
    599c:	89 81       	ldd	r24, Y+1	; 0x01
    599e:	9a 81       	ldd	r25, Y+2	; 0x02
    59a0:	01 97       	sbiw	r24, 0x01	; 1
    59a2:	39 f4       	brne	.+14     	; 0x59b2 <_Z41__static_initialization_and_destruction_0ii+0x2a>
    59a4:	8b 81       	ldd	r24, Y+3	; 0x03
    59a6:	9c 81       	ldd	r25, Y+4	; 0x04
    59a8:	01 96       	adiw	r24, 0x01	; 1
    59aa:	19 f4       	brne	.+6      	; 0x59b2 <_Z41__static_initialization_and_destruction_0ii+0x2a>

//
// Static class instances and members
//

Nvr Nvr::nvr;
    59ac:	88 ea       	ldi	r24, 0xA8	; 168
    59ae:	91 e0       	ldi	r25, 0x01	; 1
    59b0:	fc db       	rcall	.-2056   	; 0x51aa <_ZN3NvrC1Ev>
    memset(&memValid[0],0,MAXMEM);
    for (int i = 0; i < MAXMEM; ++i) {
        eeprom_write_byte(&memEE[i].valid, 0);  // invalidate all memories
    }
    numNext=numCurrent=numPrevious=-1;
}
    59b2:	0f 90       	pop	r0
    59b4:	0f 90       	pop	r0
    59b6:	0f 90       	pop	r0
    59b8:	0f 90       	pop	r0
    59ba:	df 91       	pop	r29
    59bc:	cf 91       	pop	r28
    59be:	08 95       	ret

000059c0 <_GLOBAL__sub_I__ZN3Nvr3nvrE>:
    59c0:	cf 93       	push	r28
    59c2:	df 93       	push	r29
    59c4:	cd b7       	in	r28, 0x3d	; 61
    59c6:	de b7       	in	r29, 0x3e	; 62
    59c8:	6f ef       	ldi	r22, 0xFF	; 255
    59ca:	7f ef       	ldi	r23, 0xFF	; 255
    59cc:	81 e0       	ldi	r24, 0x01	; 1
    59ce:	90 e0       	ldi	r25, 0x00	; 0
    59d0:	db df       	rcall	.-74     	; 0x5988 <_Z41__static_initialization_and_destruction_0ii>
    59d2:	df 91       	pop	r29
    59d4:	cf 91       	pop	r28
    59d6:	08 95       	ret

000059d8 <_ZN3Spi11getPhasePtrEh>:
class Spi{
public:
    Spi();
    static void scan();
    static Spi spi;
	static inline unsigned char getPhasePtr(unsigned char chn)
    59d8:	cf 93       	push	r28
    59da:	df 93       	push	r29
    59dc:	00 d0       	rcall	.+0      	; 0x59de <_ZN3Spi11getPhasePtrEh+0x6>
    59de:	00 d0       	rcall	.+0      	; 0x59e0 <_ZN3Spi11getPhasePtrEh+0x8>
    59e0:	cd b7       	in	r28, 0x3d	; 61
    59e2:	de b7       	in	r29, 0x3e	; 62
    59e4:	8c 83       	std	Y+4, r24	; 0x04
    {
        return pgm_read_byte_near((unsigned int)&phasePtr[chn]);
    59e6:	8c 81       	ldd	r24, Y+4	; 0x04
    59e8:	88 2f       	mov	r24, r24
    59ea:	90 e0       	ldi	r25, 0x00	; 0
    59ec:	84 59       	subi	r24, 0x94	; 148
    59ee:	93 4f       	sbci	r25, 0xF3	; 243
    59f0:	9a 83       	std	Y+2, r25	; 0x02
    59f2:	89 83       	std	Y+1, r24	; 0x01
    59f4:	89 81       	ldd	r24, Y+1	; 0x01
    59f6:	9a 81       	ldd	r25, Y+2	; 0x02
    59f8:	fc 01       	movw	r30, r24
    59fa:	84 91       	lpm	r24, Z
    59fc:	8b 83       	std	Y+3, r24	; 0x03
    59fe:	8b 81       	ldd	r24, Y+3	; 0x03
    };
    5a00:	0f 90       	pop	r0
    5a02:	0f 90       	pop	r0
    5a04:	0f 90       	pop	r0
    5a06:	0f 90       	pop	r0
    5a08:	df 91       	pop	r29
    5a0a:	cf 91       	pop	r28
    5a0c:	08 95       	ret

00005a0e <_ZN3Spi11getPhaseTabEh>:
	static inline unsigned char getPhaseTab(unsigned char chn)
    5a0e:	cf 93       	push	r28
    5a10:	df 93       	push	r29
    5a12:	00 d0       	rcall	.+0      	; 0x5a14 <_ZN3Spi11getPhaseTabEh+0x6>
    5a14:	00 d0       	rcall	.+0      	; 0x5a16 <_ZN3Spi11getPhaseTabEh+0x8>
    5a16:	cd b7       	in	r28, 0x3d	; 61
    5a18:	de b7       	in	r29, 0x3e	; 62
    5a1a:	8c 83       	std	Y+4, r24	; 0x04
    {
        return  pgm_read_byte_near( ( unsigned int )&phaseTab[chn]);
    5a1c:	8c 81       	ldd	r24, Y+4	; 0x04
    5a1e:	88 2f       	mov	r24, r24
    5a20:	90 e0       	ldi	r25, 0x00	; 0
    5a22:	8c 5a       	subi	r24, 0xAC	; 172
    5a24:	93 4f       	sbci	r25, 0xF3	; 243
    5a26:	9a 83       	std	Y+2, r25	; 0x02
    5a28:	89 83       	std	Y+1, r24	; 0x01
    5a2a:	89 81       	ldd	r24, Y+1	; 0x01
    5a2c:	9a 81       	ldd	r25, Y+2	; 0x02
    5a2e:	fc 01       	movw	r30, r24
    5a30:	84 91       	lpm	r24, Z
    5a32:	8b 83       	std	Y+3, r24	; 0x03
    5a34:	8b 81       	ldd	r24, Y+3	; 0x03
    };
    5a36:	0f 90       	pop	r0
    5a38:	0f 90       	pop	r0
    5a3a:	0f 90       	pop	r0
    5a3c:	0f 90       	pop	r0
    5a3e:	df 91       	pop	r29
    5a40:	cf 91       	pop	r28
    5a42:	08 95       	ret

00005a44 <_ZN4ScanC1Ev>:
volatile unsigned char Scan::xfadeFlag;
unsigned char  Scan::xfadeHold, Scan::xfadeBack;
volatile unsigned int Scan::xfadeVal;
unsigned int Scan::time;

Scan::Scan()
    5a44:	cf 93       	push	r28
    5a46:	df 93       	push	r29
    5a48:	00 d0       	rcall	.+0      	; 0x5a4a <_ZN4ScanC1Ev+0x6>
    5a4a:	cd b7       	in	r28, 0x3d	; 61
    5a4c:	de b7       	in	r29, 0x3e	; 62
    5a4e:	9a 83       	std	Y+2, r25	; 0x02
    5a50:	89 83       	std	Y+1, r24	; 0x01
{
    TCCR1A = 0;
    5a52:	8f e4       	ldi	r24, 0x4F	; 79
    5a54:	90 e0       	ldi	r25, 0x00	; 0
    5a56:	fc 01       	movw	r30, r24
    5a58:	10 82       	st	Z, r1
    OCR1A = 2000u; // time costant (16Mhz/8/2000 = 1KHz)
    5a5a:	8a e4       	ldi	r24, 0x4A	; 74
    5a5c:	90 e0       	ldi	r25, 0x00	; 0
    5a5e:	20 ed       	ldi	r18, 0xD0	; 208
    5a60:	37 e0       	ldi	r19, 0x07	; 7
    5a62:	fc 01       	movw	r30, r24
    5a64:	31 83       	std	Z+1, r19	; 0x01
    5a66:	20 83       	st	Z, r18
    TCNT1 = 0;
    5a68:	8c e4       	ldi	r24, 0x4C	; 76
    5a6a:	90 e0       	ldi	r25, 0x00	; 0
    5a6c:	fc 01       	movw	r30, r24
    5a6e:	11 82       	std	Z+1, r1	; 0x01
    5a70:	10 82       	st	Z, r1
    TCCR1B = 0x0a; // clear on OC1A, 16 prescaler
    5a72:	8e e4       	ldi	r24, 0x4E	; 78
    5a74:	90 e0       	ldi	r25, 0x00	; 0
    5a76:	2a e0       	ldi	r18, 0x0A	; 10
    5a78:	fc 01       	movw	r30, r24
    5a7a:	20 83       	st	Z, r18
    TIMSK |= _BV(OCIE1A);  //sbi( TIMSK, OCIE1A ); // enable its interrupt
    5a7c:	87 e5       	ldi	r24, 0x57	; 87
    5a7e:	90 e0       	ldi	r25, 0x00	; 0
    5a80:	27 e5       	ldi	r18, 0x57	; 87
    5a82:	30 e0       	ldi	r19, 0x00	; 0
    5a84:	f9 01       	movw	r30, r18
    5a86:	20 81       	ld	r18, Z
    5a88:	20 61       	ori	r18, 0x10	; 16
    5a8a:	fc 01       	movw	r30, r24
    5a8c:	20 83       	st	Z, r18
}
    5a8e:	0f 90       	pop	r0
    5a90:	0f 90       	pop	r0
    5a92:	df 91       	pop	r29
    5a94:	cf 91       	pop	r28
    5a96:	08 95       	ret

00005a98 <_ZN4Scan3maxEhh>:
//
// Xfade
//

unsigned char Scan::max(unsigned char a, unsigned char b)
{
    5a98:	cf 93       	push	r28
    5a9a:	df 93       	push	r29
    5a9c:	00 d0       	rcall	.+0      	; 0x5a9e <_ZN4Scan3maxEhh+0x6>
    5a9e:	cd b7       	in	r28, 0x3d	; 61
    5aa0:	de b7       	in	r29, 0x3e	; 62
    5aa2:	89 83       	std	Y+1, r24	; 0x01
    5aa4:	6a 83       	std	Y+2, r22	; 0x02
    if (a>b) return a;
    5aa6:	99 81       	ldd	r25, Y+1	; 0x01
    5aa8:	8a 81       	ldd	r24, Y+2	; 0x02
    5aaa:	89 17       	cp	r24, r25
    5aac:	10 f4       	brcc	.+4      	; 0x5ab2 <_ZN4Scan3maxEhh+0x1a>
    5aae:	89 81       	ldd	r24, Y+1	; 0x01
    5ab0:	01 c0       	rjmp	.+2      	; 0x5ab4 <_ZN4Scan3maxEhh+0x1c>
    else return b;
    5ab2:	8a 81       	ldd	r24, Y+2	; 0x02
}
    5ab4:	0f 90       	pop	r0
    5ab6:	0f 90       	pop	r0
    5ab8:	df 91       	pop	r29
    5aba:	cf 91       	pop	r28
    5abc:	08 95       	ret

00005abe <_ZN4Scan5xfadeEv>:

#define high(x) \
 ({unsigned char t;  asm volatile ("lds %0,  (%1+1)" :"=r"(t) :"m"(x)); t;})

void Scan::xfade()
{
    5abe:	cf 93       	push	r28
    5ac0:	df 93       	push	r29
    5ac2:	00 d0       	rcall	.+0      	; 0x5ac4 <_ZN4Scan5xfadeEv+0x6>
    5ac4:	00 d0       	rcall	.+0      	; 0x5ac6 <_ZN4Scan5xfadeEv+0x8>
    5ac6:	00 d0       	rcall	.+0      	; 0x5ac8 <_ZN4Scan5xfadeEv+0xa>
    5ac8:	cd b7       	in	r28, 0x3d	; 61
    5aca:	de b7       	in	r29, 0x3e	; 62
    static unsigned int ma,mb;
    if (!xfadeFlag) { // to se zgodi e niso definirani prelivi po spominih
    5acc:	90 91 48 02 	lds	r25, 0x0248
    5ad0:	81 e0       	ldi	r24, 0x01	; 1
    5ad2:	99 23       	and	r25, r25
    5ad4:	09 f0       	breq	.+2      	; 0x5ad8 <_ZN4Scan5xfadeEv+0x1a>
    5ad6:	80 e0       	ldi	r24, 0x00	; 0
    5ad8:	88 23       	and	r24, r24
    5ada:	41 f0       	breq	.+16     	; 0x5aec <_ZN4Scan5xfadeEv+0x2e>
        memcpy(&chnVal[0],(const void *)&Dmx::inVal[0],24);
    5adc:	48 e1       	ldi	r20, 0x18	; 24
    5ade:	50 e0       	ldi	r21, 0x00	; 0
    5ae0:	64 e6       	ldi	r22, 0x64	; 100
    5ae2:	71 e0       	ldi	r23, 0x01	; 1
    5ae4:	86 e1       	ldi	r24, 0x16	; 22
    5ae6:	92 e0       	ldi	r25, 0x02	; 2
    5ae8:	b2 d5       	rcall	.+2916   	; 0x664e <memcpy>
        return;
    5aea:	ad c0       	rjmp	.+346    	; 0x5c46 <_ZN4Scan5xfadeEv+0x188>
    }

    if (xfadeHold) return;
    5aec:	80 91 49 02 	lds	r24, 0x0249
    5af0:	88 23       	and	r24, r24
    5af2:	09 f0       	breq	.+2      	; 0x5af6 <_ZN4Scan5xfadeEv+0x38>
    5af4:	a8 c0       	rjmp	.+336    	; 0x5c46 <_ZN4Scan5xfadeEv+0x188>
    time++;
    5af6:	80 91 4d 02 	lds	r24, 0x024D
    5afa:	90 91 4e 02 	lds	r25, 0x024E
    5afe:	01 96       	adiw	r24, 0x01	; 1
    5b00:	90 93 4e 02 	sts	0x024E, r25
    5b04:	80 93 4d 02 	sts	0x024D, r24
    xfadeVal=Dda::next();
    5b08:	0e 94 d7 0e 	call	0x1dae	; 0x1dae <_ZN3Dda4nextEv>
    5b0c:	90 93 4c 02 	sts	0x024C, r25
    5b10:	80 93 4b 02 	sts	0x024B, r24
    unsigned char vmax;
    unsigned int v;
    for (unsigned char chn=0; chn<24; chn++) {    
    5b14:	1b 82       	std	Y+3, r1	; 0x03
    5b16:	6d c0       	rjmp	.+218    	; 0x5bf2 <_ZN4Scan5xfadeEv+0x134>
        ma = Dmx::inVal[chn] * (256-xfadeVal);
    5b18:	8b 81       	ldd	r24, Y+3	; 0x03
    5b1a:	88 2f       	mov	r24, r24
    5b1c:	90 e0       	ldi	r25, 0x00	; 0
    5b1e:	8c 59       	subi	r24, 0x9C	; 156
    5b20:	9e 4f       	sbci	r25, 0xFE	; 254
    5b22:	fc 01       	movw	r30, r24
    5b24:	80 81       	ld	r24, Z
    5b26:	48 2f       	mov	r20, r24
    5b28:	50 e0       	ldi	r21, 0x00	; 0
    5b2a:	80 91 4b 02 	lds	r24, 0x024B
    5b2e:	90 91 4c 02 	lds	r25, 0x024C
    5b32:	20 e0       	ldi	r18, 0x00	; 0
    5b34:	31 e0       	ldi	r19, 0x01	; 1
    5b36:	28 1b       	sub	r18, r24
    5b38:	39 0b       	sbc	r19, r25
    5b3a:	42 9f       	mul	r20, r18
    5b3c:	c0 01       	movw	r24, r0
    5b3e:	43 9f       	mul	r20, r19
    5b40:	90 0d       	add	r25, r0
    5b42:	52 9f       	mul	r21, r18
    5b44:	90 0d       	add	r25, r0
    5b46:	11 24       	eor	r1, r1
    5b48:	90 93 50 02 	sts	0x0250, r25
    5b4c:	80 93 4f 02 	sts	0x024F, r24
        mb = Nvr::memNext.chan[chn] * xfadeVal;
    5b50:	8b 81       	ldd	r24, Y+3	; 0x03
    5b52:	88 2f       	mov	r24, r24
    5b54:	90 e0       	ldi	r25, 0x00	; 0
    5b56:	83 50       	subi	r24, 0x03	; 3
    5b58:	9e 4f       	sbci	r25, 0xFE	; 254
    5b5a:	fc 01       	movw	r30, r24
    5b5c:	80 81       	ld	r24, Z
    5b5e:	48 2f       	mov	r20, r24
    5b60:	50 e0       	ldi	r21, 0x00	; 0
    5b62:	20 91 4b 02 	lds	r18, 0x024B
    5b66:	30 91 4c 02 	lds	r19, 0x024C
    5b6a:	42 9f       	mul	r20, r18
    5b6c:	c0 01       	movw	r24, r0
    5b6e:	43 9f       	mul	r20, r19
    5b70:	90 0d       	add	r25, r0
    5b72:	52 9f       	mul	r21, r18
    5b74:	90 0d       	add	r25, r0
    5b76:	11 24       	eor	r1, r1
    5b78:	90 93 52 02 	sts	0x0252, r25
    5b7c:	80 93 51 02 	sts	0x0251, r24
        v = high(ma) + high(mb);
    5b80:	80 91 50 02 	lds	r24, 0x0250
    5b84:	8c 83       	std	Y+4, r24	; 0x04
    5b86:	8c 81       	ldd	r24, Y+4	; 0x04
    5b88:	28 2f       	mov	r18, r24
    5b8a:	30 e0       	ldi	r19, 0x00	; 0
    5b8c:	80 91 52 02 	lds	r24, 0x0252
    5b90:	8d 83       	std	Y+5, r24	; 0x05
    5b92:	8d 81       	ldd	r24, Y+5	; 0x05
    5b94:	88 2f       	mov	r24, r24
    5b96:	90 e0       	ldi	r25, 0x00	; 0
    5b98:	82 0f       	add	r24, r18
    5b9a:	93 1f       	adc	r25, r19
    5b9c:	9a 83       	std	Y+2, r25	; 0x02
    5b9e:	89 83       	std	Y+1, r24	; 0x01
        vmax=max(Dmx::inVal[chn], Nvr::memNext.chan[chn]);
    5ba0:	8b 81       	ldd	r24, Y+3	; 0x03
    5ba2:	88 2f       	mov	r24, r24
    5ba4:	90 e0       	ldi	r25, 0x00	; 0
    5ba6:	83 50       	subi	r24, 0x03	; 3
    5ba8:	9e 4f       	sbci	r25, 0xFE	; 254
    5baa:	fc 01       	movw	r30, r24
    5bac:	20 81       	ld	r18, Z
    5bae:	8b 81       	ldd	r24, Y+3	; 0x03
    5bb0:	88 2f       	mov	r24, r24
    5bb2:	90 e0       	ldi	r25, 0x00	; 0
    5bb4:	8c 59       	subi	r24, 0x9C	; 156
    5bb6:	9e 4f       	sbci	r25, 0xFE	; 254
    5bb8:	fc 01       	movw	r30, r24
    5bba:	80 81       	ld	r24, Z
    5bbc:	62 2f       	mov	r22, r18
    5bbe:	6c df       	rcall	.-296    	; 0x5a98 <_ZN4Scan3maxEhh>
    5bc0:	8e 83       	std	Y+6, r24	; 0x06
        if (v>vmax) v=vmax;
    5bc2:	8e 81       	ldd	r24, Y+6	; 0x06
    5bc4:	28 2f       	mov	r18, r24
    5bc6:	30 e0       	ldi	r19, 0x00	; 0
    5bc8:	89 81       	ldd	r24, Y+1	; 0x01
    5bca:	9a 81       	ldd	r25, Y+2	; 0x02
    5bcc:	28 17       	cp	r18, r24
    5bce:	39 07       	cpc	r19, r25
    5bd0:	28 f4       	brcc	.+10     	; 0x5bdc <_ZN4Scan5xfadeEv+0x11e>
    5bd2:	8e 81       	ldd	r24, Y+6	; 0x06
    5bd4:	88 2f       	mov	r24, r24
    5bd6:	90 e0       	ldi	r25, 0x00	; 0
    5bd8:	9a 83       	std	Y+2, r25	; 0x02
    5bda:	89 83       	std	Y+1, r24	; 0x01
        chnVal[chn]=v;
    5bdc:	8b 81       	ldd	r24, Y+3	; 0x03
    5bde:	88 2f       	mov	r24, r24
    5be0:	90 e0       	ldi	r25, 0x00	; 0
    5be2:	29 81       	ldd	r18, Y+1	; 0x01
    5be4:	8a 5e       	subi	r24, 0xEA	; 234
    5be6:	9d 4f       	sbci	r25, 0xFD	; 253
    5be8:	fc 01       	movw	r30, r24
    5bea:	20 83       	st	Z, r18
    if (xfadeHold) return;
    time++;
    xfadeVal=Dda::next();
    unsigned char vmax;
    unsigned int v;
    for (unsigned char chn=0; chn<24; chn++) {    
    5bec:	8b 81       	ldd	r24, Y+3	; 0x03
    5bee:	8f 5f       	subi	r24, 0xFF	; 255
    5bf0:	8b 83       	std	Y+3, r24	; 0x03
    5bf2:	8b 81       	ldd	r24, Y+3	; 0x03
    5bf4:	88 31       	cpi	r24, 0x18	; 24
    5bf6:	08 f4       	brcc	.+2      	; 0x5bfa <_ZN4Scan5xfadeEv+0x13c>
    5bf8:	8f cf       	rjmp	.-226    	; 0x5b18 <_ZN4Scan5xfadeEv+0x5a>
        v = high(ma) + high(mb);
        vmax=max(Dmx::inVal[chn], Nvr::memNext.chan[chn]);
        if (v>vmax) v=vmax;
        chnVal[chn]=v;
    }
    if (!xfadeBack) {
    5bfa:	80 91 4a 02 	lds	r24, 0x024A
    5bfe:	88 23       	and	r24, r24
    5c00:	b1 f4       	brne	.+44     	; 0x5c2e <_ZN4Scan5xfadeEv+0x170>
	    if (xfadeVal>=256) {
    5c02:	80 91 4b 02 	lds	r24, 0x024B
    5c06:	90 91 4c 02 	lds	r25, 0x024C
    5c0a:	21 e0       	ldi	r18, 0x01	; 1
    5c0c:	8f 3f       	cpi	r24, 0xFF	; 255
    5c0e:	91 05       	cpc	r25, r1
    5c10:	09 f0       	breq	.+2      	; 0x5c14 <_ZN4Scan5xfadeEv+0x156>
    5c12:	08 f4       	brcc	.+2      	; 0x5c16 <_ZN4Scan5xfadeEv+0x158>
    5c14:	20 e0       	ldi	r18, 0x00	; 0
    5c16:	22 23       	and	r18, r18
    5c18:	b1 f0       	breq	.+44     	; 0x5c46 <_ZN4Scan5xfadeEv+0x188>
	        memcpy((void*)&Dmx::inVal[0],(const void *)&Nvr::memNext.chan[0],24);
    5c1a:	48 e1       	ldi	r20, 0x18	; 24
    5c1c:	50 e0       	ldi	r21, 0x00	; 0
    5c1e:	6d ef       	ldi	r22, 0xFD	; 253
    5c20:	71 e0       	ldi	r23, 0x01	; 1
    5c22:	84 e6       	ldi	r24, 0x64	; 100
    5c24:	91 e0       	ldi	r25, 0x01	; 1
    5c26:	13 d5       	rcall	.+2598   	; 0x664e <memcpy>
	        xfadeFlag=0;
    5c28:	10 92 48 02 	sts	0x0248, r1
    5c2c:	0c c0       	rjmp	.+24     	; 0x5c46 <_ZN4Scan5xfadeEv+0x188>
	    }
    }
    else {
    	if (!xfadeVal)
    5c2e:	80 91 4b 02 	lds	r24, 0x024B
    5c32:	90 91 4c 02 	lds	r25, 0x024C
    5c36:	21 e0       	ldi	r18, 0x01	; 1
    5c38:	89 2b       	or	r24, r25
    5c3a:	09 f0       	breq	.+2      	; 0x5c3e <_ZN4Scan5xfadeEv+0x180>
    5c3c:	20 e0       	ldi	r18, 0x00	; 0
    5c3e:	22 23       	and	r18, r18
    5c40:	11 f0       	breq	.+4      	; 0x5c46 <_ZN4Scan5xfadeEv+0x188>
        	xfadeFlag=0;
    5c42:	10 92 48 02 	sts	0x0248, r1
    }
}
    5c46:	26 96       	adiw	r28, 0x06	; 6
    5c48:	0f b6       	in	r0, 0x3f	; 63
    5c4a:	f8 94       	cli
    5c4c:	de bf       	out	0x3e, r29	; 62
    5c4e:	0f be       	out	0x3f, r0	; 63
    5c50:	cd bf       	out	0x3d, r28	; 61
    5c52:	df 91       	pop	r29
    5c54:	cf 91       	pop	r28
    5c56:	08 95       	ret

00005c58 <_ZN4Scan7xfadeGoEv>:

void Scan::xfadeGo()
{
    5c58:	cf 93       	push	r28
    5c5a:	df 93       	push	r29
    5c5c:	00 d0       	rcall	.+0      	; 0x5c5e <_ZN4Scan7xfadeGoEv+0x6>
    5c5e:	cd b7       	in	r28, 0x3d	; 61
    5c60:	de b7       	in	r29, 0x3e	; 62
    5c62:	9a 83       	std	Y+2, r25	; 0x02
    5c64:	89 83       	std	Y+1, r24	; 0x01
    Dda::init(0,Nvr::memNext.timeIn,0,256);
    5c66:	80 91 fb 01 	lds	r24, 0x01FB
    5c6a:	90 91 fc 01 	lds	r25, 0x01FC
    5c6e:	20 e0       	ldi	r18, 0x00	; 0
    5c70:	31 e0       	ldi	r19, 0x01	; 1
    5c72:	40 e0       	ldi	r20, 0x00	; 0
    5c74:	50 e0       	ldi	r21, 0x00	; 0
    5c76:	bc 01       	movw	r22, r24
    5c78:	80 e0       	ldi	r24, 0x00	; 0
    5c7a:	90 e0       	ldi	r25, 0x00	; 0
    5c7c:	0e 94 4e 0e 	call	0x1c9c	; 0x1c9c <_ZN3Dda4initEiiii>
    time=0;
    5c80:	10 92 4e 02 	sts	0x024E, r1
    5c84:	10 92 4d 02 	sts	0x024D, r1
    xfadeHold=0;
    5c88:	10 92 49 02 	sts	0x0249, r1
    xfadeVal=0;
    5c8c:	10 92 4c 02 	sts	0x024C, r1
    5c90:	10 92 4b 02 	sts	0x024B, r1
    xfadeBack=0;
    5c94:	10 92 4a 02 	sts	0x024A, r1
    xfadeFlag=1;
    5c98:	81 e0       	ldi	r24, 0x01	; 1
    5c9a:	80 93 48 02 	sts	0x0248, r24
}
    5c9e:	0f 90       	pop	r0
    5ca0:	0f 90       	pop	r0
    5ca2:	df 91       	pop	r29
    5ca4:	cf 91       	pop	r28
    5ca6:	08 95       	ret

00005ca8 <_ZN4Scan13xfadeCancelGoEv>:

void Scan::xfadeCancelGo()
{
    5ca8:	cf 93       	push	r28
    5caa:	df 93       	push	r29
    5cac:	00 d0       	rcall	.+0      	; 0x5cae <_ZN4Scan13xfadeCancelGoEv+0x6>
    5cae:	cd b7       	in	r28, 0x3d	; 61
    5cb0:	de b7       	in	r29, 0x3e	; 62
    5cb2:	9a 83       	std	Y+2, r25	; 0x02
    5cb4:	89 83       	std	Y+1, r24	; 0x01
    TIMSK &= ~(_BV(OCIE1A));//cbi( TIMSK, OCIE1A );               // disable timer interrupt
    5cb6:	87 e5       	ldi	r24, 0x57	; 87
    5cb8:	90 e0       	ldi	r25, 0x00	; 0
    5cba:	27 e5       	ldi	r18, 0x57	; 87
    5cbc:	30 e0       	ldi	r19, 0x00	; 0
    5cbe:	f9 01       	movw	r30, r18
    5cc0:	20 81       	ld	r18, Z
    5cc2:	2f 7e       	andi	r18, 0xEF	; 239
    5cc4:	fc 01       	movw	r30, r24
    5cc6:	20 83       	st	Z, r18
    Dda::init(time,0,xfadeVal,0);       // revert dda
    5cc8:	80 91 4b 02 	lds	r24, 0x024B
    5ccc:	90 91 4c 02 	lds	r25, 0x024C
    5cd0:	ac 01       	movw	r20, r24
    5cd2:	80 91 4d 02 	lds	r24, 0x024D
    5cd6:	90 91 4e 02 	lds	r25, 0x024E
    5cda:	20 e0       	ldi	r18, 0x00	; 0
    5cdc:	30 e0       	ldi	r19, 0x00	; 0
    5cde:	60 e0       	ldi	r22, 0x00	; 0
    5ce0:	70 e0       	ldi	r23, 0x00	; 0
    5ce2:	0e 94 4e 0e 	call	0x1c9c	; 0x1c9c <_ZN3Dda4initEiiii>
    xfadeBack=1;
    5ce6:	81 e0       	ldi	r24, 0x01	; 1
    5ce8:	80 93 4a 02 	sts	0x024A, r24
   TIMSK |= _BV(OCIE1A);// sbi( TIMSK, OCIE1A );               // reenable timer interrupt
    5cec:	87 e5       	ldi	r24, 0x57	; 87
    5cee:	90 e0       	ldi	r25, 0x00	; 0
    5cf0:	27 e5       	ldi	r18, 0x57	; 87
    5cf2:	30 e0       	ldi	r19, 0x00	; 0
    5cf4:	f9 01       	movw	r30, r18
    5cf6:	20 81       	ld	r18, Z
    5cf8:	20 61       	ori	r18, 0x10	; 16
    5cfa:	fc 01       	movw	r30, r24
    5cfc:	20 83       	st	Z, r18
}
    5cfe:	0f 90       	pop	r0
    5d00:	0f 90       	pop	r0
    5d02:	df 91       	pop	r29
    5d04:	cf 91       	pop	r28
    5d06:	08 95       	ret

00005d08 <_ZN4Scan11scanOutputsEv>:


void Scan::scanOutputs()
{
    5d08:	ef 92       	push	r14
    5d0a:	ff 92       	push	r15
    5d0c:	0f 93       	push	r16
    5d0e:	1f 93       	push	r17
    5d10:	cf 93       	push	r28
    5d12:	df 93       	push	r29
    5d14:	cd b7       	in	r28, 0x3d	; 61
    5d16:	de b7       	in	r29, 0x3e	; 62
    5d18:	2e 97       	sbiw	r28, 0x0e	; 14
    5d1a:	0f b6       	in	r0, 0x3f	; 63
    5d1c:	f8 94       	cli
    5d1e:	de bf       	out	0x3e, r29	; 62
    5d20:	0f be       	out	0x3f, r0	; 63
    5d22:	cd bf       	out	0x3d, r28	; 61
    unsigned char phase;
    unsigned int rmsval/*, rms, factor*/;
    unsigned long dir = 0;
    5d24:	1b 82       	std	Y+3, r1	; 0x03
    5d26:	1c 82       	std	Y+4, r1	; 0x04
    5d28:	1d 82       	std	Y+5, r1	; 0x05
    5d2a:	1e 82       	std	Y+6, r1	; 0x06
  //  Spi::dpllEnable[0]=Spi::dpllEnable[1]=Spi::dpllEnable[2]=0x10;
    unsigned int curRms;
    for (unsigned char chn=0; chn<24; chn++) {
    5d2c:	1f 82       	std	Y+7, r1	; 0x07
    5d2e:	cd c0       	rjmp	.+410    	; 0x5eca <_ZN4Scan11scanOutputsEv+0x1c2>
    	rmsVal[chn]=Curve::getRms(chn,chnVal[chn]);
    5d30:	8f 81       	ldd	r24, Y+7	; 0x07
    5d32:	08 2f       	mov	r16, r24
    5d34:	10 e0       	ldi	r17, 0x00	; 0
    5d36:	8f 81       	ldd	r24, Y+7	; 0x07
    5d38:	88 2f       	mov	r24, r24
    5d3a:	90 e0       	ldi	r25, 0x00	; 0
    5d3c:	8a 5e       	subi	r24, 0xEA	; 234
    5d3e:	9d 4f       	sbci	r25, 0xFD	; 253
    5d40:	fc 01       	movw	r30, r24
    5d42:	80 81       	ld	r24, Z
    5d44:	68 2f       	mov	r22, r24
    5d46:	8f 81       	ldd	r24, Y+7	; 0x07
    5d48:	0e 94 e0 0d 	call	0x1bc0	; 0x1bc0 <_ZN5Curve6getRmsEhh>
    5d4c:	28 2f       	mov	r18, r24
    5d4e:	c8 01       	movw	r24, r16
    5d50:	82 5d       	subi	r24, 0xD2	; 210
    5d52:	9d 4f       	sbci	r25, 0xFD	; 253
    5d54:	fc 01       	movw	r30, r24
    5d56:	20 83       	st	Z, r18
        // figure out the phase
        phase=Spi::getPhasePtr(chn);
    5d58:	8f 81       	ldd	r24, Y+7	; 0x07
    5d5a:	3e de       	rcall	.-900    	; 0x59d8 <_ZN3Spi11getPhasePtrEh>
    5d5c:	88 87       	std	Y+8, r24	; 0x08
        curRms=Adc::getRms(phase);
    5d5e:	88 85       	ldd	r24, Y+8	; 0x08
    5d60:	0e 94 99 15 	call	0x2b32	; 0x2b32 <_ZN3Adc6getRmsEh>
    5d64:	9a 87       	std	Y+10, r25	; 0x0a
    5d66:	89 87       	std	Y+9, r24	; 0x09
        // calculate stable RMS value
        // if fluo then no stabilization
        if ( (Nvr::setup.outFunc[chn] == FLUODPLL) ||
    5d68:	8f 81       	ldd	r24, Y+7	; 0x07
    5d6a:	88 2f       	mov	r24, r24
    5d6c:	90 e0       	ldi	r25, 0x00	; 0
    5d6e:	81 52       	subi	r24, 0x21	; 33
    5d70:	9e 4f       	sbci	r25, 0xFE	; 254
    5d72:	fc 01       	movw	r30, r24
    5d74:	80 81       	ld	r24, Z
    5d76:	83 30       	cpi	r24, 0x03	; 3
    5d78:	c9 f0       	breq	.+50     	; 0x5dac <_ZN4Scan11scanOutputsEv+0xa4>
             (Nvr::setup.outFunc[chn] == DIREKT) ||
    5d7a:	8f 81       	ldd	r24, Y+7	; 0x07
    5d7c:	88 2f       	mov	r24, r24
    5d7e:	90 e0       	ldi	r25, 0x00	; 0
    5d80:	81 52       	subi	r24, 0x21	; 33
    5d82:	9e 4f       	sbci	r25, 0xFE	; 254
    5d84:	fc 01       	movw	r30, r24
    5d86:	80 81       	ld	r24, Z
        // figure out the phase
        phase=Spi::getPhasePtr(chn);
        curRms=Adc::getRms(phase);
        // calculate stable RMS value
        // if fluo then no stabilization
        if ( (Nvr::setup.outFunc[chn] == FLUODPLL) ||
    5d88:	85 30       	cpi	r24, 0x05	; 5
    5d8a:	81 f0       	breq	.+32     	; 0x5dac <_ZN4Scan11scanOutputsEv+0xa4>
             (Nvr::setup.outFunc[chn] == DIREKT) ||
             (curRms<Nvr::setup.refBot[phase] ) )
    5d8c:	88 85       	ldd	r24, Y+8	; 0x08
    5d8e:	88 2f       	mov	r24, r24
    5d90:	90 e0       	ldi	r25, 0x00	; 0
    5d92:	0b 96       	adiw	r24, 0x0b	; 11
    5d94:	88 0f       	add	r24, r24
    5d96:	99 1f       	adc	r25, r25
    5d98:	8d 53       	subi	r24, 0x3D	; 61
    5d9a:	9e 4f       	sbci	r25, 0xFE	; 254
    5d9c:	fc 01       	movw	r30, r24
    5d9e:	20 81       	ld	r18, Z
    5da0:	31 81       	ldd	r19, Z+1	; 0x01
        phase=Spi::getPhasePtr(chn);
        curRms=Adc::getRms(phase);
        // calculate stable RMS value
        // if fluo then no stabilization
        if ( (Nvr::setup.outFunc[chn] == FLUODPLL) ||
             (Nvr::setup.outFunc[chn] == DIREKT) ||
    5da2:	89 85       	ldd	r24, Y+9	; 0x09
    5da4:	9a 85       	ldd	r25, Y+10	; 0x0a
    5da6:	82 17       	cp	r24, r18
    5da8:	93 07       	cpc	r25, r19
    5daa:	60 f4       	brcc	.+24     	; 0x5dc4 <_ZN4Scan11scanOutputsEv+0xbc>
             (curRms<Nvr::setup.refBot[phase] ) )
            rmsval=rmsVal[chn];
    5dac:	8f 81       	ldd	r24, Y+7	; 0x07
    5dae:	88 2f       	mov	r24, r24
    5db0:	90 e0       	ldi	r25, 0x00	; 0
    5db2:	82 5d       	subi	r24, 0xD2	; 210
    5db4:	9d 4f       	sbci	r25, 0xFD	; 253
    5db6:	fc 01       	movw	r30, r24
    5db8:	80 81       	ld	r24, Z
    5dba:	88 2f       	mov	r24, r24
    5dbc:	90 e0       	ldi	r25, 0x00	; 0
    5dbe:	9a 83       	std	Y+2, r25	; 0x02
    5dc0:	89 83       	std	Y+1, r24	; 0x01
    5dc2:	46 c0       	rjmp	.+140    	; 0x5e50 <_ZN4Scan11scanOutputsEv+0x148>
        else if (Nvr::setup.outFunc[chn]==FLUOPHASE) {
    5dc4:	8f 81       	ldd	r24, Y+7	; 0x07
    5dc6:	88 2f       	mov	r24, r24
    5dc8:	90 e0       	ldi	r25, 0x00	; 0
    5dca:	81 52       	subi	r24, 0x21	; 33
    5dcc:	9e 4f       	sbci	r25, 0xFE	; 254
    5dce:	fc 01       	movw	r30, r24
    5dd0:	80 81       	ld	r24, Z
    5dd2:	84 30       	cpi	r24, 0x04	; 4
    5dd4:	99 f4       	brne	.+38     	; 0x5dfc <_ZN4Scan11scanOutputsEv+0xf4>
            rmsval=rmsVal[chn];
    5dd6:	8f 81       	ldd	r24, Y+7	; 0x07
    5dd8:	88 2f       	mov	r24, r24
    5dda:	90 e0       	ldi	r25, 0x00	; 0
    5ddc:	82 5d       	subi	r24, 0xD2	; 210
    5dde:	9d 4f       	sbci	r25, 0xFD	; 253
    5de0:	fc 01       	movw	r30, r24
    5de2:	80 81       	ld	r24, Z
    5de4:	88 2f       	mov	r24, r24
    5de6:	90 e0       	ldi	r25, 0x00	; 0
    5de8:	9a 83       	std	Y+2, r25	; 0x02
    5dea:	89 83       	std	Y+1, r24	; 0x01
            Nvr::setup.dpllEnable[phase]&=0;
    5dec:	88 85       	ldd	r24, Y+8	; 0x08
    5dee:	88 2f       	mov	r24, r24
    5df0:	90 e0       	ldi	r25, 0x00	; 0
    5df2:	89 50       	subi	r24, 0x09	; 9
    5df4:	9e 4f       	sbci	r25, 0xFE	; 254
    5df6:	fc 01       	movw	r30, r24
    5df8:	10 82       	st	Z, r1
    5dfa:	2a c0       	rjmp	.+84     	; 0x5e50 <_ZN4Scan11scanOutputsEv+0x148>
			//Spi::dpllEnable[phase]&=0;
        }
        else{
            rmsval=(unsigned int)(((unsigned long)rmsVal[chn]*
    5dfc:	8f 81       	ldd	r24, Y+7	; 0x07
    5dfe:	88 2f       	mov	r24, r24
    5e00:	90 e0       	ldi	r25, 0x00	; 0
    5e02:	82 5d       	subi	r24, 0xD2	; 210
    5e04:	9d 4f       	sbci	r25, 0xFD	; 253
    5e06:	fc 01       	movw	r30, r24
    5e08:	80 81       	ld	r24, Z
    5e0a:	28 2f       	mov	r18, r24
    5e0c:	30 e0       	ldi	r19, 0x00	; 0
    5e0e:	40 e0       	ldi	r20, 0x00	; 0
    5e10:	50 e0       	ldi	r21, 0x00	; 0
// 			rms = rmsVal[chn];
// 			factor = Nvr::setup.refTop[phase]/curRms;
// 			rmsval=(unsigned int)(((unsigned long)rmsVal[chn]*
                    Nvr::setup.refTop[phase])/curRms);
    5e12:	88 85       	ldd	r24, Y+8	; 0x08
    5e14:	88 2f       	mov	r24, r24
    5e16:	90 e0       	ldi	r25, 0x00	; 0
    5e18:	08 96       	adiw	r24, 0x08	; 8
    5e1a:	88 0f       	add	r24, r24
    5e1c:	99 1f       	adc	r25, r25
    5e1e:	8d 53       	subi	r24, 0x3D	; 61
    5e20:	9e 4f       	sbci	r25, 0xFE	; 254
    5e22:	fc 01       	movw	r30, r24
    5e24:	80 81       	ld	r24, Z
    5e26:	91 81       	ldd	r25, Z+1	; 0x01
            rmsval=rmsVal[chn];
            Nvr::setup.dpllEnable[phase]&=0;
			//Spi::dpllEnable[phase]&=0;
        }
        else{
            rmsval=(unsigned int)(((unsigned long)rmsVal[chn]*
    5e28:	cc 01       	movw	r24, r24
    5e2a:	a0 e0       	ldi	r26, 0x00	; 0
    5e2c:	b0 e0       	ldi	r27, 0x00	; 0
    5e2e:	bc 01       	movw	r22, r24
    5e30:	cd 01       	movw	r24, r26
    5e32:	93 d3       	rcall	.+1830   	; 0x655a <__mulsi3>
    5e34:	7b 01       	movw	r14, r22
    5e36:	8c 01       	movw	r16, r24
// 			rms = rmsVal[chn];
// 			factor = Nvr::setup.refTop[phase]/curRms;
// 			rmsval=(unsigned int)(((unsigned long)rmsVal[chn]*
                    Nvr::setup.refTop[phase])/curRms);
    5e38:	89 85       	ldd	r24, Y+9	; 0x09
    5e3a:	9a 85       	ldd	r25, Y+10	; 0x0a
    5e3c:	9c 01       	movw	r18, r24
    5e3e:	40 e0       	ldi	r20, 0x00	; 0
    5e40:	50 e0       	ldi	r21, 0x00	; 0
    5e42:	c8 01       	movw	r24, r16
    5e44:	b7 01       	movw	r22, r14
    5e46:	ab d3       	rcall	.+1878   	; 0x659e <__udivmodsi4>
    5e48:	da 01       	movw	r26, r20
    5e4a:	c9 01       	movw	r24, r18
    5e4c:	9a 83       	std	Y+2, r25	; 0x02
    5e4e:	89 83       	std	Y+1, r24	; 0x01
		}
        if (rmsval>255) rmsval=255;
    5e50:	89 81       	ldd	r24, Y+1	; 0x01
    5e52:	9a 81       	ldd	r25, Y+2	; 0x02
    5e54:	8f 3f       	cpi	r24, 0xFF	; 255
    5e56:	91 05       	cpc	r25, r1
    5e58:	29 f0       	breq	.+10     	; 0x5e64 <_ZN4Scan11scanOutputsEv+0x15c>
    5e5a:	20 f0       	brcs	.+8      	; 0x5e64 <_ZN4Scan11scanOutputsEv+0x15c>
    5e5c:	8f ef       	ldi	r24, 0xFF	; 255
    5e5e:	90 e0       	ldi	r25, 0x00	; 0
    5e60:	9a 83       	std	Y+2, r25	; 0x02
    5e62:	89 83       	std	Y+1, r24	; 0x01
        // get the phase angle value
		Spi::outVal[chn]=Curve::getPhaseAngle(rmsval);
    5e64:	8f 81       	ldd	r24, Y+7	; 0x07
    5e66:	08 2f       	mov	r16, r24
    5e68:	10 e0       	ldi	r17, 0x00	; 0
    5e6a:	89 81       	ldd	r24, Y+1	; 0x01
    5e6c:	0e 94 0b 0e 	call	0x1c16	; 0x1c16 <_ZN5Curve13getPhaseAngleEh>
    5e70:	28 2f       	mov	r18, r24
    5e72:	c8 01       	movw	r24, r16
    5e74:	87 57       	subi	r24, 0x77	; 119
    5e76:	9d 4f       	sbci	r25, 0xFD	; 253
    5e78:	fc 01       	movw	r30, r24
    5e7a:	20 83       	st	Z, r18
        // figure out which channel is direkt
//        if ( Nvr::setup.outFunc[chn] == 4 ) // mozna napaka DIREKT=5
        if ( Nvr::setup.outFunc[chn] == DIREKT )		            
    5e7c:	8f 81       	ldd	r24, Y+7	; 0x07
    5e7e:	88 2f       	mov	r24, r24
    5e80:	90 e0       	ldi	r25, 0x00	; 0
    5e82:	81 52       	subi	r24, 0x21	; 33
    5e84:	9e 4f       	sbci	r25, 0xFE	; 254
    5e86:	fc 01       	movw	r30, r24
    5e88:	80 81       	ld	r24, Z
    5e8a:	85 30       	cpi	r24, 0x05	; 5
    5e8c:	d9 f4       	brne	.+54     	; 0x5ec4 <_ZN4Scan11scanOutputsEv+0x1bc>
            dir |= 1 << Spi::getPhaseTab(chn);
    5e8e:	8f 81       	ldd	r24, Y+7	; 0x07
    5e90:	be dd       	rcall	.-1156   	; 0x5a0e <_ZN3Spi11getPhaseTabEh>
    5e92:	28 2f       	mov	r18, r24
    5e94:	30 e0       	ldi	r19, 0x00	; 0
    5e96:	81 e0       	ldi	r24, 0x01	; 1
    5e98:	90 e0       	ldi	r25, 0x00	; 0
    5e9a:	02 c0       	rjmp	.+4      	; 0x5ea0 <_ZN4Scan11scanOutputsEv+0x198>
    5e9c:	88 0f       	add	r24, r24
    5e9e:	99 1f       	adc	r25, r25
    5ea0:	2a 95       	dec	r18
    5ea2:	e2 f7       	brpl	.-8      	; 0x5e9c <_ZN4Scan11scanOutputsEv+0x194>
    5ea4:	09 2e       	mov	r0, r25
    5ea6:	00 0c       	add	r0, r0
    5ea8:	aa 0b       	sbc	r26, r26
    5eaa:	bb 0b       	sbc	r27, r27
    5eac:	2b 81       	ldd	r18, Y+3	; 0x03
    5eae:	3c 81       	ldd	r19, Y+4	; 0x04
    5eb0:	4d 81       	ldd	r20, Y+5	; 0x05
    5eb2:	5e 81       	ldd	r21, Y+6	; 0x06
    5eb4:	82 2b       	or	r24, r18
    5eb6:	93 2b       	or	r25, r19
    5eb8:	a4 2b       	or	r26, r20
    5eba:	b5 2b       	or	r27, r21
    5ebc:	8b 83       	std	Y+3, r24	; 0x03
    5ebe:	9c 83       	std	Y+4, r25	; 0x04
    5ec0:	ad 83       	std	Y+5, r26	; 0x05
    5ec2:	be 83       	std	Y+6, r27	; 0x06
    unsigned char phase;
    unsigned int rmsval/*, rms, factor*/;
    unsigned long dir = 0;
  //  Spi::dpllEnable[0]=Spi::dpllEnable[1]=Spi::dpllEnable[2]=0x10;
    unsigned int curRms;
    for (unsigned char chn=0; chn<24; chn++) {
    5ec4:	8f 81       	ldd	r24, Y+7	; 0x07
    5ec6:	8f 5f       	subi	r24, 0xFF	; 255
    5ec8:	8f 83       	std	Y+7, r24	; 0x07
    5eca:	8f 81       	ldd	r24, Y+7	; 0x07
    5ecc:	88 31       	cpi	r24, 0x18	; 24
    5ece:	08 f4       	brcc	.+2      	; 0x5ed2 <_ZN4Scan11scanOutputsEv+0x1ca>
    5ed0:	2f cf       	rjmp	.-418    	; 0x5d30 <_ZN4Scan11scanOutputsEv+0x28>
        // figure out which channel is direkt
//        if ( Nvr::setup.outFunc[chn] == 4 ) // mozna napaka DIREKT=5
        if ( Nvr::setup.outFunc[chn] == DIREKT )		            
            dir |= 1 << Spi::getPhaseTab(chn);
    }
    Spi::outDirekt.l = dir;
    5ed2:	8b 81       	ldd	r24, Y+3	; 0x03
    5ed4:	9c 81       	ldd	r25, Y+4	; 0x04
    5ed6:	ad 81       	ldd	r26, Y+5	; 0x05
    5ed8:	be 81       	ldd	r27, Y+6	; 0x06
    5eda:	80 93 a1 02 	sts	0x02A1, r24
    5ede:	90 93 a2 02 	sts	0x02A2, r25
    5ee2:	a0 93 a3 02 	sts	0x02A3, r26
    5ee6:	b0 93 a4 02 	sts	0x02A4, r27
}
    5eea:	2e 96       	adiw	r28, 0x0e	; 14
    5eec:	0f b6       	in	r0, 0x3f	; 63
    5eee:	f8 94       	cli
    5ef0:	de bf       	out	0x3e, r29	; 62
    5ef2:	0f be       	out	0x3f, r0	; 63
    5ef4:	cd bf       	out	0x3d, r28	; 61
    5ef6:	df 91       	pop	r29
    5ef8:	cf 91       	pop	r28
    5efa:	1f 91       	pop	r17
    5efc:	0f 91       	pop	r16
    5efe:	ff 90       	pop	r15
    5f00:	ef 90       	pop	r14
    5f02:	08 95       	ret

00005f04 <_ZN4Scan7scanAllEv>:

void Scan::scanAll()
{
    5f04:	cf 93       	push	r28
    5f06:	df 93       	push	r29
    5f08:	00 d0       	rcall	.+0      	; 0x5f0a <_ZN4Scan7scanAllEv+0x6>
    5f0a:	00 d0       	rcall	.+0      	; 0x5f0c <_ZN4Scan7scanAllEv+0x8>
    5f0c:	cd b7       	in	r28, 0x3d	; 61
    5f0e:	de b7       	in	r29, 0x3e	; 62
    unsigned int tcnt1Start=TCNT1;
    5f10:	8c e4       	ldi	r24, 0x4C	; 76
    5f12:	90 e0       	ldi	r25, 0x00	; 0
    5f14:	fc 01       	movw	r30, r24
    5f16:	80 81       	ld	r24, Z
    5f18:	91 81       	ldd	r25, Z+1	; 0x01
    5f1a:	9a 83       	std	Y+2, r25	; 0x02
    5f1c:	89 83       	std	Y+1, r24	; 0x01
    Spi::scan();
    5f1e:	ca d0       	rcall	.+404    	; 0x60b4 <_ZN3Spi4scanEv>
    Adc::scan();
    5f20:	0e 94 81 06 	call	0xd02	; 0xd02 <_ZN3Adc4scanEv>
    Kbd::scan();
    5f24:	0e 94 7d 12 	call	0x24fa	; 0x24fa <_ZN3Kbd4scanEv>
	Menue::tick--;
    5f28:	80 91 08 01 	lds	r24, 0x0108
    5f2c:	90 91 09 01 	lds	r25, 0x0109
    5f30:	01 97       	sbiw	r24, 0x01	; 1
    5f32:	90 93 09 01 	sts	0x0109, r25
    5f36:	80 93 08 01 	sts	0x0108, r24
	
    if (cnt==REFRESHTICK-2)
    5f3a:	80 91 0a 01 	lds	r24, 0x010A
    5f3e:	8f 31       	cpi	r24, 0x1F	; 31
    5f40:	19 f4       	brne	.+6      	; 0x5f48 <_ZN4Scan7scanAllEv+0x44>
        Dmx::merge();
    5f42:	0e 94 63 11 	call	0x22c6	; 0x22c6 <_ZN3Dmx5mergeEv>
    5f46:	05 c0       	rjmp	.+10     	; 0x5f52 <_ZN4Scan7scanAllEv+0x4e>
    else if ((cnt==REFRESHTICK-1))
    5f48:	80 91 0a 01 	lds	r24, 0x010A
    5f4c:	80 32       	cpi	r24, 0x20	; 32
    5f4e:	09 f4       	brne	.+2      	; 0x5f52 <_ZN4Scan7scanAllEv+0x4e>
        xfade();
    5f50:	b6 dd       	rcall	.-1172   	; 0x5abe <_ZN4Scan5xfadeEv>
    if(++cnt>REFRESHTICK) {
    5f52:	80 91 0a 01 	lds	r24, 0x010A
    5f56:	8f 5f       	subi	r24, 0xFF	; 255
    5f58:	80 93 0a 01 	sts	0x010A, r24
    5f5c:	90 91 0a 01 	lds	r25, 0x010A
    5f60:	81 e0       	ldi	r24, 0x01	; 1
    5f62:	92 32       	cpi	r25, 0x22	; 34
    5f64:	08 f4       	brcc	.+2      	; 0x5f68 <_ZN4Scan7scanAllEv+0x64>
    5f66:	80 e0       	ldi	r24, 0x00	; 0
    5f68:	88 23       	and	r24, r24
    5f6a:	b1 f0       	breq	.+44     	; 0x5f98 <_ZN4Scan7scanAllEv+0x94>
        scanOutputs();
    5f6c:	cd de       	rcall	.-614    	; 0x5d08 <_ZN4Scan11scanOutputsEv>

        cnt=0;
    5f6e:	10 92 0a 01 	sts	0x010A, r1
        unsigned int tcnt1Stop=TCNT1;
    5f72:	8c e4       	ldi	r24, 0x4C	; 76
    5f74:	90 e0       	ldi	r25, 0x00	; 0
    5f76:	fc 01       	movw	r30, r24
    5f78:	80 81       	ld	r24, Z
    5f7a:	91 81       	ldd	r25, Z+1	; 0x01
    5f7c:	9c 83       	std	Y+4, r25	; 0x04
    5f7e:	8b 83       	std	Y+3, r24	; 0x03
        tcnt1Lap=tcnt1Stop-tcnt1Start;
    5f80:	2b 81       	ldd	r18, Y+3	; 0x03
    5f82:	3c 81       	ldd	r19, Y+4	; 0x04
    5f84:	89 81       	ldd	r24, Y+1	; 0x01
    5f86:	9a 81       	ldd	r25, Y+2	; 0x02
    5f88:	a9 01       	movw	r20, r18
    5f8a:	48 1b       	sub	r20, r24
    5f8c:	59 0b       	sbc	r21, r25
    5f8e:	ca 01       	movw	r24, r20
    5f90:	90 93 47 02 	sts	0x0247, r25
    5f94:	80 93 46 02 	sts	0x0246, r24
    }
}
    5f98:	0f 90       	pop	r0
    5f9a:	0f 90       	pop	r0
    5f9c:	0f 90       	pop	r0
    5f9e:	0f 90       	pop	r0
    5fa0:	df 91       	pop	r29
    5fa2:	cf 91       	pop	r28
    5fa4:	08 95       	ret

00005fa6 <__vector_12>:

extern "C"
ISR( TIMER1_COMPA_vect )
{
    5fa6:	1f 92       	push	r1
    5fa8:	0f 92       	push	r0
    5faa:	00 90 5f 00 	lds	r0, 0x005F
    5fae:	0f 92       	push	r0
    5fb0:	11 24       	eor	r1, r1
    5fb2:	00 90 5b 00 	lds	r0, 0x005B
    5fb6:	0f 92       	push	r0
    5fb8:	2f 93       	push	r18
    5fba:	3f 93       	push	r19
    5fbc:	4f 93       	push	r20
    5fbe:	5f 93       	push	r21
    5fc0:	6f 93       	push	r22
    5fc2:	7f 93       	push	r23
    5fc4:	8f 93       	push	r24
    5fc6:	9f 93       	push	r25
    5fc8:	af 93       	push	r26
    5fca:	bf 93       	push	r27
    5fcc:	ef 93       	push	r30
    5fce:	ff 93       	push	r31
    5fd0:	cf 93       	push	r28
    5fd2:	df 93       	push	r29
    5fd4:	cd b7       	in	r28, 0x3d	; 61
    5fd6:	de b7       	in	r29, 0x3e	; 62
    TIMSK &= ~(_BV(OCIE1A));//cbi( TIMSK, OCIE1A ); // disable own interrupt
    5fd8:	87 e5       	ldi	r24, 0x57	; 87
    5fda:	90 e0       	ldi	r25, 0x00	; 0
    5fdc:	27 e5       	ldi	r18, 0x57	; 87
    5fde:	30 e0       	ldi	r19, 0x00	; 0
    5fe0:	f9 01       	movw	r30, r18
    5fe2:	20 81       	ld	r18, Z
    5fe4:	2f 7e       	andi	r18, 0xEF	; 239
    5fe6:	fc 01       	movw	r30, r24
    5fe8:	20 83       	st	Z, r18
    Scan::scanAll();
    5fea:	8c df       	rcall	.-232    	; 0x5f04 <_ZN4Scan7scanAllEv>
    cli();
    5fec:	f8 94       	cli
    TIMSK |= _BV(OCIE1A);//sbi( TIMSK, OCIE1A ); // reenable own interrupt
    5fee:	87 e5       	ldi	r24, 0x57	; 87
    5ff0:	90 e0       	ldi	r25, 0x00	; 0
    5ff2:	27 e5       	ldi	r18, 0x57	; 87
    5ff4:	30 e0       	ldi	r19, 0x00	; 0
    5ff6:	f9 01       	movw	r30, r18
    5ff8:	20 81       	ld	r18, Z
    5ffa:	20 61       	ori	r18, 0x10	; 16
    5ffc:	fc 01       	movw	r30, r24
    5ffe:	20 83       	st	Z, r18
}
    6000:	df 91       	pop	r29
    6002:	cf 91       	pop	r28
    6004:	ff 91       	pop	r31
    6006:	ef 91       	pop	r30
    6008:	bf 91       	pop	r27
    600a:	af 91       	pop	r26
    600c:	9f 91       	pop	r25
    600e:	8f 91       	pop	r24
    6010:	7f 91       	pop	r23
    6012:	6f 91       	pop	r22
    6014:	5f 91       	pop	r21
    6016:	4f 91       	pop	r20
    6018:	3f 91       	pop	r19
    601a:	2f 91       	pop	r18
    601c:	0f 90       	pop	r0
    601e:	00 92 5b 00 	sts	0x005B, r0
    6022:	0f 90       	pop	r0
    6024:	00 92 5f 00 	sts	0x005F, r0
    6028:	0f 90       	pop	r0
    602a:	1f 90       	pop	r1
    602c:	18 95       	reti

0000602e <_Z41__static_initialization_and_destruction_0ii>:
    602e:	cf 93       	push	r28
    6030:	df 93       	push	r29
    6032:	00 d0       	rcall	.+0      	; 0x6034 <_Z41__static_initialization_and_destruction_0ii+0x6>
    6034:	00 d0       	rcall	.+0      	; 0x6036 <_Z41__static_initialization_and_destruction_0ii+0x8>
    6036:	cd b7       	in	r28, 0x3d	; 61
    6038:	de b7       	in	r29, 0x3e	; 62
    603a:	9a 83       	std	Y+2, r25	; 0x02
    603c:	89 83       	std	Y+1, r24	; 0x01
    603e:	7c 83       	std	Y+4, r23	; 0x04
    6040:	6b 83       	std	Y+3, r22	; 0x03
    6042:	89 81       	ldd	r24, Y+1	; 0x01
    6044:	9a 81       	ldd	r25, Y+2	; 0x02
    6046:	01 97       	sbiw	r24, 0x01	; 1
    6048:	39 f4       	brne	.+14     	; 0x6058 <_Z41__static_initialization_and_destruction_0ii+0x2a>
    604a:	8b 81       	ldd	r24, Y+3	; 0x03
    604c:	9c 81       	ldd	r25, Y+4	; 0x04
    604e:	01 96       	adiw	r24, 0x01	; 1
    6050:	19 f4       	brne	.+6      	; 0x6058 <_Z41__static_initialization_and_destruction_0ii+0x2a>

//
// static classs instance and members
//

Scan Scan::scan;
    6052:	85 e1       	ldi	r24, 0x15	; 21
    6054:	92 e0       	ldi	r25, 0x02	; 2
    6056:	f6 dc       	rcall	.-1556   	; 0x5a44 <_ZN4ScanC1Ev>
{
    TIMSK &= ~(_BV(OCIE1A));//cbi( TIMSK, OCIE1A ); // disable own interrupt
    Scan::scanAll();
    cli();
    TIMSK |= _BV(OCIE1A);//sbi( TIMSK, OCIE1A ); // reenable own interrupt
}
    6058:	0f 90       	pop	r0
    605a:	0f 90       	pop	r0
    605c:	0f 90       	pop	r0
    605e:	0f 90       	pop	r0
    6060:	df 91       	pop	r29
    6062:	cf 91       	pop	r28
    6064:	08 95       	ret

00006066 <_GLOBAL__sub_I__ZN4Scan4scanE>:
    6066:	cf 93       	push	r28
    6068:	df 93       	push	r29
    606a:	cd b7       	in	r28, 0x3d	; 61
    606c:	de b7       	in	r29, 0x3e	; 62
    606e:	6f ef       	ldi	r22, 0xFF	; 255
    6070:	7f ef       	ldi	r23, 0xFF	; 255
    6072:	81 e0       	ldi	r24, 0x01	; 1
    6074:	90 e0       	ldi	r25, 0x00	; 0
    6076:	db df       	rcall	.-74     	; 0x602e <_Z41__static_initialization_and_destruction_0ii>
    6078:	df 91       	pop	r29
    607a:	cf 91       	pop	r28
    607c:	08 95       	ret

0000607e <_ZN3SpiC1Ev>:
    0, 0, 1, 1, 2, 2, 0, 0, 1, 1, 2, 2, 0, 0, 1, 1, 2, 2, 0,
    0, 1, 1, 2, 2
};


Spi::Spi()
    607e:	cf 93       	push	r28
    6080:	df 93       	push	r29
    6082:	00 d0       	rcall	.+0      	; 0x6084 <_ZN3SpiC1Ev+0x6>
    6084:	cd b7       	in	r28, 0x3d	; 61
    6086:	de b7       	in	r29, 0x3e	; 62
    6088:	9a 83       	std	Y+2, r25	; 0x02
    608a:	89 83       	std	Y+1, r24	; 0x01
{
    PORTB = 0xFF;
    608c:	88 e3       	ldi	r24, 0x38	; 56
    608e:	90 e0       	ldi	r25, 0x00	; 0
    6090:	2f ef       	ldi	r18, 0xFF	; 255
    6092:	fc 01       	movw	r30, r24
    6094:	20 83       	st	Z, r18
    DDRB = 0x76; // set three SS + MOSI + SCK drivers to output
    6096:	87 e3       	ldi	r24, 0x37	; 55
    6098:	90 e0       	ldi	r25, 0x00	; 0
    609a:	26 e7       	ldi	r18, 0x76	; 118
    609c:	fc 01       	movw	r30, r24
    609e:	20 83       	st	Z, r18
    SPCR = 0x57; // 1/128 CLK
    60a0:	8d e2       	ldi	r24, 0x2D	; 45
    60a2:	90 e0       	ldi	r25, 0x00	; 0
    60a4:	27 e5       	ldi	r18, 0x57	; 87
    60a6:	fc 01       	movw	r30, r24
    60a8:	20 83       	st	Z, r18
}
    60aa:	0f 90       	pop	r0
    60ac:	0f 90       	pop	r0
    60ae:	df 91       	pop	r29
    60b0:	cf 91       	pop	r28
    60b2:	08 95       	ret

000060b4 <_ZN3Spi4scanEv>:

void Spi::scan()
{
    60b4:	cf 93       	push	r28
    60b6:	df 93       	push	r29
    60b8:	cd b7       	in	r28, 0x3d	; 61
    60ba:	de b7       	in	r29, 0x3e	; 62
    60bc:	6c 97       	sbiw	r28, 0x1c	; 28
    60be:	0f b6       	in	r0, 0x3f	; 63
    60c0:	f8 94       	cli
    60c2:	de bf       	out	0x3e, r29	; 62
    60c4:	0f be       	out	0x3f, r0	; 63
    60c6:	cd bf       	out	0x3d, r28	; 61
    unsigned char b;


    if ( !cnt ) { // first 0x55
    60c8:	80 91 54 02 	lds	r24, 0x0254
    60cc:	88 23       	and	r24, r24
    60ce:	19 f5       	brne	.+70     	; 0x6116 <_ZN3Spi4scanEv+0x62>
        PORTB &= ~(_BV(4)); //cbi( PORTB, 4 ); // Select R timebase
    60d0:	88 e3       	ldi	r24, 0x38	; 56
    60d2:	90 e0       	ldi	r25, 0x00	; 0
    60d4:	28 e3       	ldi	r18, 0x38	; 56
    60d6:	30 e0       	ldi	r19, 0x00	; 0
    60d8:	f9 01       	movw	r30, r18
    60da:	20 81       	ld	r18, Z
    60dc:	2f 7e       	andi	r18, 0xEF	; 239
    60de:	fc 01       	movw	r30, r24
    60e0:	20 83       	st	Z, r18
        b = SPSR;
    60e2:	8e e2       	ldi	r24, 0x2E	; 46
    60e4:	90 e0       	ldi	r25, 0x00	; 0
    60e6:	fc 01       	movw	r30, r24
    60e8:	80 81       	ld	r24, Z
    60ea:	89 83       	std	Y+1, r24	; 0x01
        b = SPDR;
    60ec:	8f e2       	ldi	r24, 0x2F	; 47
    60ee:	90 e0       	ldi	r25, 0x00	; 0
    60f0:	fc 01       	movw	r30, r24
    60f2:	80 81       	ld	r24, Z
    60f4:	89 83       	std	Y+1, r24	; 0x01
        if ( flagCurVol ) SPDR = 0x0a||Nvr::setup.dpllEnable[0];
    60f6:	80 91 55 02 	lds	r24, 0x0255
    60fa:	88 23       	and	r24, r24
    60fc:	31 f0       	breq	.+12     	; 0x610a <_ZN3Spi4scanEv+0x56>
    60fe:	8f e2       	ldi	r24, 0x2F	; 47
    6100:	90 e0       	ldi	r25, 0x00	; 0
    6102:	21 e0       	ldi	r18, 0x01	; 1
    6104:	fc 01       	movw	r30, r24
    6106:	20 83       	st	Z, r18
    6108:	e8 c1       	rjmp	.+976    	; 0x64da <_ZN3Spi4scanEv+0x426>
        else
			 SPDR = 0x05||Nvr::setup.dpllEnable[0];; // send first chn
    610a:	8f e2       	ldi	r24, 0x2F	; 47
    610c:	90 e0       	ldi	r25, 0x00	; 0
    610e:	21 e0       	ldi	r18, 0x01	; 1
    6110:	fc 01       	movw	r30, r24
    6112:	20 83       	st	Z, r18
    6114:	e2 c1       	rjmp	.+964    	; 0x64da <_ZN3Spi4scanEv+0x426>
    }
    else if ( ( cnt > 0 ) && ( cnt < 9 ) ) { // 8 data bytes
    6116:	80 91 54 02 	lds	r24, 0x0254
    611a:	88 23       	and	r24, r24
    611c:	09 f4       	brne	.+2      	; 0x6120 <_ZN3Spi4scanEv+0x6c>
    611e:	5c c0       	rjmp	.+184    	; 0x61d8 <_ZN3Spi4scanEv+0x124>
    6120:	80 91 54 02 	lds	r24, 0x0254
    6124:	89 30       	cpi	r24, 0x09	; 9
    6126:	08 f0       	brcs	.+2      	; 0x612a <_ZN3Spi4scanEv+0x76>
    6128:	57 c0       	rjmp	.+174    	; 0x61d8 <_ZN3Spi4scanEv+0x124>
        b = SPSR;
    612a:	8e e2       	ldi	r24, 0x2E	; 46
    612c:	90 e0       	ldi	r25, 0x00	; 0
    612e:	fc 01       	movw	r30, r24
    6130:	80 81       	ld	r24, Z
    6132:	89 83       	std	Y+1, r24	; 0x01
        if ( !flagCurVol )
    6134:	80 91 55 02 	lds	r24, 0x0255
    6138:	88 23       	and	r24, r24
    613a:	d1 f4       	brne	.+52     	; 0x6170 <_ZN3Spi4scanEv+0xbc>
            outputCurrent[pgm_read_byte_near( ( unsigned int ) & phaseTab[cnt - 1] )] = SPDR; //
    613c:	80 91 54 02 	lds	r24, 0x0254
    6140:	88 2f       	mov	r24, r24
    6142:	90 e0       	ldi	r25, 0x00	; 0
    6144:	01 97       	sbiw	r24, 0x01	; 1
    6146:	8c 5a       	subi	r24, 0xAC	; 172
    6148:	93 4f       	sbci	r25, 0xF3	; 243
    614a:	9b 83       	std	Y+3, r25	; 0x03
    614c:	8a 83       	std	Y+2, r24	; 0x02
    614e:	8a 81       	ldd	r24, Y+2	; 0x02
    6150:	9b 81       	ldd	r25, Y+3	; 0x03
    6152:	fc 01       	movw	r30, r24
    6154:	84 91       	lpm	r24, Z
    6156:	8c 83       	std	Y+4, r24	; 0x04
    6158:	8c 81       	ldd	r24, Y+4	; 0x04
    615a:	88 2f       	mov	r24, r24
    615c:	90 e0       	ldi	r25, 0x00	; 0
    615e:	2f e2       	ldi	r18, 0x2F	; 47
    6160:	30 e0       	ldi	r19, 0x00	; 0
    6162:	f9 01       	movw	r30, r18
    6164:	20 81       	ld	r18, Z
    6166:	8a 5a       	subi	r24, 0xAA	; 170
    6168:	9d 4f       	sbci	r25, 0xFD	; 253
    616a:	fc 01       	movw	r30, r24
    616c:	20 83       	st	Z, r18
    616e:	19 c0       	rjmp	.+50     	; 0x61a2 <_ZN3Spi4scanEv+0xee>
        // read output current
        else
            outputVoltage[pgm_read_byte_near( ( unsigned int ) & phaseTab[cnt - 1] )] = SPDR; //
    6170:	80 91 54 02 	lds	r24, 0x0254
    6174:	88 2f       	mov	r24, r24
    6176:	90 e0       	ldi	r25, 0x00	; 0
    6178:	01 97       	sbiw	r24, 0x01	; 1
    617a:	8c 5a       	subi	r24, 0xAC	; 172
    617c:	93 4f       	sbci	r25, 0xF3	; 243
    617e:	9e 83       	std	Y+6, r25	; 0x06
    6180:	8d 83       	std	Y+5, r24	; 0x05
    6182:	8d 81       	ldd	r24, Y+5	; 0x05
    6184:	9e 81       	ldd	r25, Y+6	; 0x06
    6186:	fc 01       	movw	r30, r24
    6188:	84 91       	lpm	r24, Z
    618a:	8f 83       	std	Y+7, r24	; 0x07
    618c:	8f 81       	ldd	r24, Y+7	; 0x07
    618e:	88 2f       	mov	r24, r24
    6190:	90 e0       	ldi	r25, 0x00	; 0
    6192:	2f e2       	ldi	r18, 0x2F	; 47
    6194:	30 e0       	ldi	r19, 0x00	; 0
    6196:	f9 01       	movw	r30, r18
    6198:	20 81       	ld	r18, Z
    619a:	82 59       	subi	r24, 0x92	; 146
    619c:	9d 4f       	sbci	r25, 0xFD	; 253
    619e:	fc 01       	movw	r30, r24
    61a0:	20 83       	st	Z, r18
        // read output voltage
        SPDR = outVal[pgm_read_byte_near( ( unsigned int ) & phaseTab[cnt - 1] )];
    61a2:	8f e2       	ldi	r24, 0x2F	; 47
    61a4:	90 e0       	ldi	r25, 0x00	; 0
    61a6:	20 91 54 02 	lds	r18, 0x0254
    61aa:	22 2f       	mov	r18, r18
    61ac:	30 e0       	ldi	r19, 0x00	; 0
    61ae:	21 50       	subi	r18, 0x01	; 1
    61b0:	31 09       	sbc	r19, r1
    61b2:	2c 5a       	subi	r18, 0xAC	; 172
    61b4:	33 4f       	sbci	r19, 0xF3	; 243
    61b6:	39 87       	std	Y+9, r19	; 0x09
    61b8:	28 87       	std	Y+8, r18	; 0x08
    61ba:	28 85       	ldd	r18, Y+8	; 0x08
    61bc:	39 85       	ldd	r19, Y+9	; 0x09
    61be:	f9 01       	movw	r30, r18
    61c0:	24 91       	lpm	r18, Z
    61c2:	2a 87       	std	Y+10, r18	; 0x0a
    61c4:	2a 85       	ldd	r18, Y+10	; 0x0a
    61c6:	22 2f       	mov	r18, r18
    61c8:	30 e0       	ldi	r19, 0x00	; 0
    61ca:	27 57       	subi	r18, 0x77	; 119
    61cc:	3d 4f       	sbci	r19, 0xFD	; 253
    61ce:	f9 01       	movw	r30, r18
    61d0:	20 81       	ld	r18, Z
    61d2:	fc 01       	movw	r30, r24
    61d4:	20 83       	st	Z, r18
    61d6:	81 c1       	rjmp	.+770    	; 0x64da <_ZN3Spi4scanEv+0x426>
    }
    else if ( cnt == 9 ) {
    61d8:	80 91 54 02 	lds	r24, 0x0254
    61dc:	89 30       	cpi	r24, 0x09	; 9
    61de:	91 f4       	brne	.+36     	; 0x6204 <_ZN3Spi4scanEv+0x150>
        b = SPSR;
    61e0:	8e e2       	ldi	r24, 0x2E	; 46
    61e2:	90 e0       	ldi	r25, 0x00	; 0
    61e4:	fc 01       	movw	r30, r24
    61e6:	80 81       	ld	r24, Z
    61e8:	89 83       	std	Y+1, r24	; 0x01
        outputStatus[0] = SPDR;
    61ea:	8f e2       	ldi	r24, 0x2F	; 47
    61ec:	90 e0       	ldi	r25, 0x00	; 0
    61ee:	fc 01       	movw	r30, r24
    61f0:	80 81       	ld	r24, Z
    61f2:	80 93 86 02 	sts	0x0286, r24
        SPDR = outDirekt.b.b0; // finish here with direkt flag
    61f6:	8f e2       	ldi	r24, 0x2F	; 47
    61f8:	90 e0       	ldi	r25, 0x00	; 0
    61fa:	20 91 a1 02 	lds	r18, 0x02A1
    61fe:	fc 01       	movw	r30, r24
    6200:	20 83       	st	Z, r18
    6202:	6b c1       	rjmp	.+726    	; 0x64da <_ZN3Spi4scanEv+0x426>

    }
    // second
    else if ( cnt == 10 ) { // second 0x55
    6204:	80 91 54 02 	lds	r24, 0x0254
    6208:	8a 30       	cpi	r24, 0x0A	; 10
    620a:	81 f5       	brne	.+96     	; 0x626c <_ZN3Spi4scanEv+0x1b8>
        PORTB |= _BV(4);  //sbi( PORTB, 4 );
    620c:	88 e3       	ldi	r24, 0x38	; 56
    620e:	90 e0       	ldi	r25, 0x00	; 0
    6210:	28 e3       	ldi	r18, 0x38	; 56
    6212:	30 e0       	ldi	r19, 0x00	; 0
    6214:	f9 01       	movw	r30, r18
    6216:	20 81       	ld	r18, Z
    6218:	20 61       	ori	r18, 0x10	; 16
    621a:	fc 01       	movw	r30, r24
    621c:	20 83       	st	Z, r18
        PORTB &= ~(_BV(5));//cbi( PORTB, 5 ); // Select S Timebase
    621e:	88 e3       	ldi	r24, 0x38	; 56
    6220:	90 e0       	ldi	r25, 0x00	; 0
    6222:	28 e3       	ldi	r18, 0x38	; 56
    6224:	30 e0       	ldi	r19, 0x00	; 0
    6226:	f9 01       	movw	r30, r18
    6228:	20 81       	ld	r18, Z
    622a:	2f 7d       	andi	r18, 0xDF	; 223
    622c:	fc 01       	movw	r30, r24
    622e:	20 83       	st	Z, r18
        b = SPSR;
    6230:	8e e2       	ldi	r24, 0x2E	; 46
    6232:	90 e0       	ldi	r25, 0x00	; 0
    6234:	fc 01       	movw	r30, r24
    6236:	80 81       	ld	r24, Z
    6238:	89 83       	std	Y+1, r24	; 0x01
        b = SPDR;
    623a:	8f e2       	ldi	r24, 0x2F	; 47
    623c:	90 e0       	ldi	r25, 0x00	; 0
    623e:	fc 01       	movw	r30, r24
    6240:	80 81       	ld	r24, Z
    6242:	89 83       	std	Y+1, r24	; 0x01
        if ( flagCurVol ) SPDR = 0x0a|Nvr::setup.dpllEnable[1];
    6244:	80 91 55 02 	lds	r24, 0x0255
    6248:	88 23       	and	r24, r24
    624a:	41 f0       	breq	.+16     	; 0x625c <_ZN3Spi4scanEv+0x1a8>
    624c:	8f e2       	ldi	r24, 0x2F	; 47
    624e:	90 e0       	ldi	r25, 0x00	; 0
    6250:	20 91 f8 01 	lds	r18, 0x01F8
    6254:	2a 60       	ori	r18, 0x0A	; 10
    6256:	fc 01       	movw	r30, r24
    6258:	20 83       	st	Z, r18
    625a:	3f c1       	rjmp	.+638    	; 0x64da <_ZN3Spi4scanEv+0x426>
        else SPDR = 0x55|Nvr::setup.dpllEnable[1]; // send first char
    625c:	8f e2       	ldi	r24, 0x2F	; 47
    625e:	90 e0       	ldi	r25, 0x00	; 0
    6260:	20 91 f8 01 	lds	r18, 0x01F8
    6264:	25 65       	ori	r18, 0x55	; 85
    6266:	fc 01       	movw	r30, r24
    6268:	20 83       	st	Z, r18
    626a:	37 c1       	rjmp	.+622    	; 0x64da <_ZN3Spi4scanEv+0x426>
    }
    else if ( ( cnt > 10 ) && ( cnt < 19 ) ) { // 8 data bytes
    626c:	80 91 54 02 	lds	r24, 0x0254
    6270:	8b 30       	cpi	r24, 0x0B	; 11
    6272:	08 f4       	brcc	.+2      	; 0x6276 <_ZN3Spi4scanEv+0x1c2>
    6274:	5c c0       	rjmp	.+184    	; 0x632e <_ZN3Spi4scanEv+0x27a>
    6276:	80 91 54 02 	lds	r24, 0x0254
    627a:	83 31       	cpi	r24, 0x13	; 19
    627c:	08 f0       	brcs	.+2      	; 0x6280 <_ZN3Spi4scanEv+0x1cc>
    627e:	57 c0       	rjmp	.+174    	; 0x632e <_ZN3Spi4scanEv+0x27a>
        b = SPSR;
    6280:	8e e2       	ldi	r24, 0x2E	; 46
    6282:	90 e0       	ldi	r25, 0x00	; 0
    6284:	fc 01       	movw	r30, r24
    6286:	80 81       	ld	r24, Z
    6288:	89 83       	std	Y+1, r24	; 0x01
        if ( !flagCurVol )
    628a:	80 91 55 02 	lds	r24, 0x0255
    628e:	88 23       	and	r24, r24
    6290:	d1 f4       	brne	.+52     	; 0x62c6 <_ZN3Spi4scanEv+0x212>
            outputCurrent[pgm_read_byte_near( ( unsigned int ) & phaseTab[cnt - 3] )] = SPDR; //
    6292:	80 91 54 02 	lds	r24, 0x0254
    6296:	88 2f       	mov	r24, r24
    6298:	90 e0       	ldi	r25, 0x00	; 0
    629a:	03 97       	sbiw	r24, 0x03	; 3
    629c:	8c 5a       	subi	r24, 0xAC	; 172
    629e:	93 4f       	sbci	r25, 0xF3	; 243
    62a0:	9c 87       	std	Y+12, r25	; 0x0c
    62a2:	8b 87       	std	Y+11, r24	; 0x0b
    62a4:	8b 85       	ldd	r24, Y+11	; 0x0b
    62a6:	9c 85       	ldd	r25, Y+12	; 0x0c
    62a8:	fc 01       	movw	r30, r24
    62aa:	84 91       	lpm	r24, Z
    62ac:	8d 87       	std	Y+13, r24	; 0x0d
    62ae:	8d 85       	ldd	r24, Y+13	; 0x0d
    62b0:	88 2f       	mov	r24, r24
    62b2:	90 e0       	ldi	r25, 0x00	; 0
    62b4:	2f e2       	ldi	r18, 0x2F	; 47
    62b6:	30 e0       	ldi	r19, 0x00	; 0
    62b8:	f9 01       	movw	r30, r18
    62ba:	20 81       	ld	r18, Z
    62bc:	8a 5a       	subi	r24, 0xAA	; 170
    62be:	9d 4f       	sbci	r25, 0xFD	; 253
    62c0:	fc 01       	movw	r30, r24
    62c2:	20 83       	st	Z, r18
    62c4:	19 c0       	rjmp	.+50     	; 0x62f8 <_ZN3Spi4scanEv+0x244>
        // read output current
        else
            outputVoltage[pgm_read_byte_near( ( unsigned int ) & phaseTab[cnt - 3] )] = SPDR; //
    62c6:	80 91 54 02 	lds	r24, 0x0254
    62ca:	88 2f       	mov	r24, r24
    62cc:	90 e0       	ldi	r25, 0x00	; 0
    62ce:	03 97       	sbiw	r24, 0x03	; 3
    62d0:	8c 5a       	subi	r24, 0xAC	; 172
    62d2:	93 4f       	sbci	r25, 0xF3	; 243
    62d4:	9f 87       	std	Y+15, r25	; 0x0f
    62d6:	8e 87       	std	Y+14, r24	; 0x0e
    62d8:	8e 85       	ldd	r24, Y+14	; 0x0e
    62da:	9f 85       	ldd	r25, Y+15	; 0x0f
    62dc:	fc 01       	movw	r30, r24
    62de:	84 91       	lpm	r24, Z
    62e0:	88 8b       	std	Y+16, r24	; 0x10
    62e2:	88 89       	ldd	r24, Y+16	; 0x10
    62e4:	88 2f       	mov	r24, r24
    62e6:	90 e0       	ldi	r25, 0x00	; 0
    62e8:	2f e2       	ldi	r18, 0x2F	; 47
    62ea:	30 e0       	ldi	r19, 0x00	; 0
    62ec:	f9 01       	movw	r30, r18
    62ee:	20 81       	ld	r18, Z
    62f0:	82 59       	subi	r24, 0x92	; 146
    62f2:	9d 4f       	sbci	r25, 0xFD	; 253
    62f4:	fc 01       	movw	r30, r24
    62f6:	20 83       	st	Z, r18
        // read output voltage
        SPDR = outVal[pgm_read_byte_near( ( unsigned int ) & phaseTab[cnt - 3] )];
    62f8:	8f e2       	ldi	r24, 0x2F	; 47
    62fa:	90 e0       	ldi	r25, 0x00	; 0
    62fc:	20 91 54 02 	lds	r18, 0x0254
    6300:	22 2f       	mov	r18, r18
    6302:	30 e0       	ldi	r19, 0x00	; 0
    6304:	23 50       	subi	r18, 0x03	; 3
    6306:	31 09       	sbc	r19, r1
    6308:	2c 5a       	subi	r18, 0xAC	; 172
    630a:	33 4f       	sbci	r19, 0xF3	; 243
    630c:	3a 8b       	std	Y+18, r19	; 0x12
    630e:	29 8b       	std	Y+17, r18	; 0x11
    6310:	29 89       	ldd	r18, Y+17	; 0x11
    6312:	3a 89       	ldd	r19, Y+18	; 0x12
    6314:	f9 01       	movw	r30, r18
    6316:	24 91       	lpm	r18, Z
    6318:	2b 8b       	std	Y+19, r18	; 0x13
    631a:	2b 89       	ldd	r18, Y+19	; 0x13
    631c:	22 2f       	mov	r18, r18
    631e:	30 e0       	ldi	r19, 0x00	; 0
    6320:	27 57       	subi	r18, 0x77	; 119
    6322:	3d 4f       	sbci	r19, 0xFD	; 253
    6324:	f9 01       	movw	r30, r18
    6326:	20 81       	ld	r18, Z
    6328:	fc 01       	movw	r30, r24
    632a:	20 83       	st	Z, r18
    632c:	d6 c0       	rjmp	.+428    	; 0x64da <_ZN3Spi4scanEv+0x426>

    }
    else if ( cnt == 19 ) {
    632e:	80 91 54 02 	lds	r24, 0x0254
    6332:	83 31       	cpi	r24, 0x13	; 19
    6334:	91 f4       	brne	.+36     	; 0x635a <_ZN3Spi4scanEv+0x2a6>
        b = SPSR;
    6336:	8e e2       	ldi	r24, 0x2E	; 46
    6338:	90 e0       	ldi	r25, 0x00	; 0
    633a:	fc 01       	movw	r30, r24
    633c:	80 81       	ld	r24, Z
    633e:	89 83       	std	Y+1, r24	; 0x01
        outputStatus[1] = SPDR;
    6340:	8f e2       	ldi	r24, 0x2F	; 47
    6342:	90 e0       	ldi	r25, 0x00	; 0
    6344:	fc 01       	movw	r30, r24
    6346:	80 81       	ld	r24, Z
    6348:	80 93 87 02 	sts	0x0287, r24
        SPDR = outDirekt.b.b1; // finish here with direkt flag
    634c:	8f e2       	ldi	r24, 0x2F	; 47
    634e:	90 e0       	ldi	r25, 0x00	; 0
    6350:	20 91 a2 02 	lds	r18, 0x02A2
    6354:	fc 01       	movw	r30, r24
    6356:	20 83       	st	Z, r18
    6358:	c0 c0       	rjmp	.+384    	; 0x64da <_ZN3Spi4scanEv+0x426>
    }
    // third
    else if ( cnt == 20 ) { // second 0x55
    635a:	80 91 54 02 	lds	r24, 0x0254
    635e:	84 31       	cpi	r24, 0x14	; 20
    6360:	81 f5       	brne	.+96     	; 0x63c2 <_ZN3Spi4scanEv+0x30e>
        PORTB |= _BV(5); //sbi( PORTB, 5 );
    6362:	88 e3       	ldi	r24, 0x38	; 56
    6364:	90 e0       	ldi	r25, 0x00	; 0
    6366:	28 e3       	ldi	r18, 0x38	; 56
    6368:	30 e0       	ldi	r19, 0x00	; 0
    636a:	f9 01       	movw	r30, r18
    636c:	20 81       	ld	r18, Z
    636e:	20 62       	ori	r18, 0x20	; 32
    6370:	fc 01       	movw	r30, r24
    6372:	20 83       	st	Z, r18
        PORTB &= ~(_BV(6));  //cbi( PORTB, 6 ); // Select T Timebase
    6374:	88 e3       	ldi	r24, 0x38	; 56
    6376:	90 e0       	ldi	r25, 0x00	; 0
    6378:	28 e3       	ldi	r18, 0x38	; 56
    637a:	30 e0       	ldi	r19, 0x00	; 0
    637c:	f9 01       	movw	r30, r18
    637e:	20 81       	ld	r18, Z
    6380:	2f 7b       	andi	r18, 0xBF	; 191
    6382:	fc 01       	movw	r30, r24
    6384:	20 83       	st	Z, r18
        b = SPSR;
    6386:	8e e2       	ldi	r24, 0x2E	; 46
    6388:	90 e0       	ldi	r25, 0x00	; 0
    638a:	fc 01       	movw	r30, r24
    638c:	80 81       	ld	r24, Z
    638e:	89 83       	std	Y+1, r24	; 0x01
        b = SPDR;
    6390:	8f e2       	ldi	r24, 0x2F	; 47
    6392:	90 e0       	ldi	r25, 0x00	; 0
    6394:	fc 01       	movw	r30, r24
    6396:	80 81       	ld	r24, Z
    6398:	89 83       	std	Y+1, r24	; 0x01
        if ( flagCurVol ) SPDR = 0x0a|Nvr::setup.dpllEnable[2];
    639a:	80 91 55 02 	lds	r24, 0x0255
    639e:	88 23       	and	r24, r24
    63a0:	41 f0       	breq	.+16     	; 0x63b2 <_ZN3Spi4scanEv+0x2fe>
    63a2:	8f e2       	ldi	r24, 0x2F	; 47
    63a4:	90 e0       	ldi	r25, 0x00	; 0
    63a6:	20 91 f9 01 	lds	r18, 0x01F9
    63aa:	2a 60       	ori	r18, 0x0A	; 10
    63ac:	fc 01       	movw	r30, r24
    63ae:	20 83       	st	Z, r18
    63b0:	94 c0       	rjmp	.+296    	; 0x64da <_ZN3Spi4scanEv+0x426>
        else SPDR = 0x05|Nvr::setup.dpllEnable[2]; // send first char
    63b2:	8f e2       	ldi	r24, 0x2F	; 47
    63b4:	90 e0       	ldi	r25, 0x00	; 0
    63b6:	20 91 f9 01 	lds	r18, 0x01F9
    63ba:	25 60       	ori	r18, 0x05	; 5
    63bc:	fc 01       	movw	r30, r24
    63be:	20 83       	st	Z, r18
    63c0:	8c c0       	rjmp	.+280    	; 0x64da <_ZN3Spi4scanEv+0x426>
    }
    else if ( ( cnt > 20 ) && ( cnt < 29 ) ) { // 8 data bytes
    63c2:	80 91 54 02 	lds	r24, 0x0254
    63c6:	85 31       	cpi	r24, 0x15	; 21
    63c8:	08 f4       	brcc	.+2      	; 0x63cc <_ZN3Spi4scanEv+0x318>
    63ca:	5c c0       	rjmp	.+184    	; 0x6484 <_ZN3Spi4scanEv+0x3d0>
    63cc:	80 91 54 02 	lds	r24, 0x0254
    63d0:	8d 31       	cpi	r24, 0x1D	; 29
    63d2:	08 f0       	brcs	.+2      	; 0x63d6 <_ZN3Spi4scanEv+0x322>
    63d4:	57 c0       	rjmp	.+174    	; 0x6484 <_ZN3Spi4scanEv+0x3d0>
        b = SPSR;
    63d6:	8e e2       	ldi	r24, 0x2E	; 46
    63d8:	90 e0       	ldi	r25, 0x00	; 0
    63da:	fc 01       	movw	r30, r24
    63dc:	80 81       	ld	r24, Z
    63de:	89 83       	std	Y+1, r24	; 0x01
        if ( !flagCurVol )
    63e0:	80 91 55 02 	lds	r24, 0x0255
    63e4:	88 23       	and	r24, r24
    63e6:	d1 f4       	brne	.+52     	; 0x641c <_ZN3Spi4scanEv+0x368>
            outputCurrent[pgm_read_byte_near( ( unsigned int ) & phaseTab[cnt - 5] )] = SPDR; //
    63e8:	80 91 54 02 	lds	r24, 0x0254
    63ec:	88 2f       	mov	r24, r24
    63ee:	90 e0       	ldi	r25, 0x00	; 0
    63f0:	05 97       	sbiw	r24, 0x05	; 5
    63f2:	8c 5a       	subi	r24, 0xAC	; 172
    63f4:	93 4f       	sbci	r25, 0xF3	; 243
    63f6:	9d 8b       	std	Y+21, r25	; 0x15
    63f8:	8c 8b       	std	Y+20, r24	; 0x14
    63fa:	8c 89       	ldd	r24, Y+20	; 0x14
    63fc:	9d 89       	ldd	r25, Y+21	; 0x15
    63fe:	fc 01       	movw	r30, r24
    6400:	84 91       	lpm	r24, Z
    6402:	8e 8b       	std	Y+22, r24	; 0x16
    6404:	8e 89       	ldd	r24, Y+22	; 0x16
    6406:	88 2f       	mov	r24, r24
    6408:	90 e0       	ldi	r25, 0x00	; 0
    640a:	2f e2       	ldi	r18, 0x2F	; 47
    640c:	30 e0       	ldi	r19, 0x00	; 0
    640e:	f9 01       	movw	r30, r18
    6410:	20 81       	ld	r18, Z
    6412:	8a 5a       	subi	r24, 0xAA	; 170
    6414:	9d 4f       	sbci	r25, 0xFD	; 253
    6416:	fc 01       	movw	r30, r24
    6418:	20 83       	st	Z, r18
    641a:	19 c0       	rjmp	.+50     	; 0x644e <_ZN3Spi4scanEv+0x39a>
        // read output current
        else
            outputVoltage[pgm_read_byte_near( ( unsigned int ) & phaseTab[cnt - 5] )] = SPDR; //
    641c:	80 91 54 02 	lds	r24, 0x0254
    6420:	88 2f       	mov	r24, r24
    6422:	90 e0       	ldi	r25, 0x00	; 0
    6424:	05 97       	sbiw	r24, 0x05	; 5
    6426:	8c 5a       	subi	r24, 0xAC	; 172
    6428:	93 4f       	sbci	r25, 0xF3	; 243
    642a:	98 8f       	std	Y+24, r25	; 0x18
    642c:	8f 8b       	std	Y+23, r24	; 0x17
    642e:	8f 89       	ldd	r24, Y+23	; 0x17
    6430:	98 8d       	ldd	r25, Y+24	; 0x18
    6432:	fc 01       	movw	r30, r24
    6434:	84 91       	lpm	r24, Z
    6436:	89 8f       	std	Y+25, r24	; 0x19
    6438:	89 8d       	ldd	r24, Y+25	; 0x19
    643a:	88 2f       	mov	r24, r24
    643c:	90 e0       	ldi	r25, 0x00	; 0
    643e:	2f e2       	ldi	r18, 0x2F	; 47
    6440:	30 e0       	ldi	r19, 0x00	; 0
    6442:	f9 01       	movw	r30, r18
    6444:	20 81       	ld	r18, Z
    6446:	82 59       	subi	r24, 0x92	; 146
    6448:	9d 4f       	sbci	r25, 0xFD	; 253
    644a:	fc 01       	movw	r30, r24
    644c:	20 83       	st	Z, r18
        // read output current
        SPDR = outVal[pgm_read_byte_near( ( unsigned int ) & phaseTab[cnt - 5] )];
    644e:	8f e2       	ldi	r24, 0x2F	; 47
    6450:	90 e0       	ldi	r25, 0x00	; 0
    6452:	20 91 54 02 	lds	r18, 0x0254
    6456:	22 2f       	mov	r18, r18
    6458:	30 e0       	ldi	r19, 0x00	; 0
    645a:	25 50       	subi	r18, 0x05	; 5
    645c:	31 09       	sbc	r19, r1
    645e:	2c 5a       	subi	r18, 0xAC	; 172
    6460:	33 4f       	sbci	r19, 0xF3	; 243
    6462:	3b 8f       	std	Y+27, r19	; 0x1b
    6464:	2a 8f       	std	Y+26, r18	; 0x1a
    6466:	2a 8d       	ldd	r18, Y+26	; 0x1a
    6468:	3b 8d       	ldd	r19, Y+27	; 0x1b
    646a:	f9 01       	movw	r30, r18
    646c:	24 91       	lpm	r18, Z
    646e:	2c 8f       	std	Y+28, r18	; 0x1c
    6470:	2c 8d       	ldd	r18, Y+28	; 0x1c
    6472:	22 2f       	mov	r18, r18
    6474:	30 e0       	ldi	r19, 0x00	; 0
    6476:	27 57       	subi	r18, 0x77	; 119
    6478:	3d 4f       	sbci	r19, 0xFD	; 253
    647a:	f9 01       	movw	r30, r18
    647c:	20 81       	ld	r18, Z
    647e:	fc 01       	movw	r30, r24
    6480:	20 83       	st	Z, r18
    6482:	2b c0       	rjmp	.+86     	; 0x64da <_ZN3Spi4scanEv+0x426>

    }
    else if ( cnt == 29 ) {
    6484:	80 91 54 02 	lds	r24, 0x0254
    6488:	8d 31       	cpi	r24, 0x1D	; 29
    648a:	91 f4       	brne	.+36     	; 0x64b0 <_ZN3Spi4scanEv+0x3fc>
        b = SPSR;
    648c:	8e e2       	ldi	r24, 0x2E	; 46
    648e:	90 e0       	ldi	r25, 0x00	; 0
    6490:	fc 01       	movw	r30, r24
    6492:	80 81       	ld	r24, Z
    6494:	89 83       	std	Y+1, r24	; 0x01
        outputStatus[2] = SPDR;
    6496:	8f e2       	ldi	r24, 0x2F	; 47
    6498:	90 e0       	ldi	r25, 0x00	; 0
    649a:	fc 01       	movw	r30, r24
    649c:	80 81       	ld	r24, Z
    649e:	80 93 88 02 	sts	0x0288, r24
        SPDR = outDirekt.b.b2; // finish here with direkt flag
    64a2:	8f e2       	ldi	r24, 0x2F	; 47
    64a4:	90 e0       	ldi	r25, 0x00	; 0
    64a6:	20 91 a3 02 	lds	r18, 0x02A3
    64aa:	fc 01       	movw	r30, r24
    64ac:	20 83       	st	Z, r18
    64ae:	15 c0       	rjmp	.+42     	; 0x64da <_ZN3Spi4scanEv+0x426>
    }
    // finish here
    else if ( cnt == 30 ) {
    64b0:	80 91 54 02 	lds	r24, 0x0254
    64b4:	8e 31       	cpi	r24, 0x1E	; 30
    64b6:	89 f4       	brne	.+34     	; 0x64da <_ZN3Spi4scanEv+0x426>
        PORTB |= _BV(6);  //sbi( PORTB, 6 );
    64b8:	88 e3       	ldi	r24, 0x38	; 56
    64ba:	90 e0       	ldi	r25, 0x00	; 0
    64bc:	28 e3       	ldi	r18, 0x38	; 56
    64be:	30 e0       	ldi	r19, 0x00	; 0
    64c0:	f9 01       	movw	r30, r18
    64c2:	20 81       	ld	r18, Z
    64c4:	20 64       	ori	r18, 0x40	; 64
    64c6:	fc 01       	movw	r30, r24
    64c8:	20 83       	st	Z, r18
        flagCurVol = !flagCurVol;
    64ca:	90 91 55 02 	lds	r25, 0x0255
    64ce:	81 e0       	ldi	r24, 0x01	; 1
    64d0:	99 23       	and	r25, r25
    64d2:	09 f0       	breq	.+2      	; 0x64d6 <_ZN3Spi4scanEv+0x422>
    64d4:	80 e0       	ldi	r24, 0x00	; 0
    64d6:	80 93 55 02 	sts	0x0255, r24
    }
    if (++cnt>REFRESHTICK) cnt=0;
    64da:	80 91 54 02 	lds	r24, 0x0254
    64de:	8f 5f       	subi	r24, 0xFF	; 255
    64e0:	80 93 54 02 	sts	0x0254, r24
    64e4:	90 91 54 02 	lds	r25, 0x0254
    64e8:	81 e0       	ldi	r24, 0x01	; 1
    64ea:	92 32       	cpi	r25, 0x22	; 34
    64ec:	08 f4       	brcc	.+2      	; 0x64f0 <_ZN3Spi4scanEv+0x43c>
    64ee:	80 e0       	ldi	r24, 0x00	; 0
    64f0:	88 23       	and	r24, r24
    64f2:	11 f0       	breq	.+4      	; 0x64f8 <_ZN3Spi4scanEv+0x444>
    64f4:	10 92 54 02 	sts	0x0254, r1
}
    64f8:	6c 96       	adiw	r28, 0x1c	; 28
    64fa:	0f b6       	in	r0, 0x3f	; 63
    64fc:	f8 94       	cli
    64fe:	de bf       	out	0x3e, r29	; 62
    6500:	0f be       	out	0x3f, r0	; 63
    6502:	cd bf       	out	0x3d, r28	; 61
    6504:	df 91       	pop	r29
    6506:	cf 91       	pop	r28
    6508:	08 95       	ret

0000650a <_Z41__static_initialization_and_destruction_0ii>:
    650a:	cf 93       	push	r28
    650c:	df 93       	push	r29
    650e:	00 d0       	rcall	.+0      	; 0x6510 <_Z41__static_initialization_and_destruction_0ii+0x6>
    6510:	00 d0       	rcall	.+0      	; 0x6512 <_Z41__static_initialization_and_destruction_0ii+0x8>
    6512:	cd b7       	in	r28, 0x3d	; 61
    6514:	de b7       	in	r29, 0x3e	; 62
    6516:	9a 83       	std	Y+2, r25	; 0x02
    6518:	89 83       	std	Y+1, r24	; 0x01
    651a:	7c 83       	std	Y+4, r23	; 0x04
    651c:	6b 83       	std	Y+3, r22	; 0x03
    651e:	89 81       	ldd	r24, Y+1	; 0x01
    6520:	9a 81       	ldd	r25, Y+2	; 0x02
    6522:	01 97       	sbiw	r24, 0x01	; 1
    6524:	39 f4       	brne	.+14     	; 0x6534 <_Z41__static_initialization_and_destruction_0ii+0x2a>
    6526:	8b 81       	ldd	r24, Y+3	; 0x03
    6528:	9c 81       	ldd	r25, Y+4	; 0x04
    652a:	01 96       	adiw	r24, 0x01	; 1
    652c:	19 f4       	brne	.+6      	; 0x6534 <_Z41__static_initialization_and_destruction_0ii+0x2a>

//
// static class instance and members
//

Spi Spi::spi;
    652e:	83 e5       	ldi	r24, 0x53	; 83
    6530:	92 e0       	ldi	r25, 0x02	; 2
    6532:	a5 dd       	rcall	.-1206   	; 0x607e <_ZN3SpiC1Ev>
    else if ( cnt == 30 ) {
        PORTB |= _BV(6);  //sbi( PORTB, 6 );
        flagCurVol = !flagCurVol;
    }
    if (++cnt>REFRESHTICK) cnt=0;
}
    6534:	0f 90       	pop	r0
    6536:	0f 90       	pop	r0
    6538:	0f 90       	pop	r0
    653a:	0f 90       	pop	r0
    653c:	df 91       	pop	r29
    653e:	cf 91       	pop	r28
    6540:	08 95       	ret

00006542 <_GLOBAL__sub_I__ZN3Spi3spiE>:
    6542:	cf 93       	push	r28
    6544:	df 93       	push	r29
    6546:	cd b7       	in	r28, 0x3d	; 61
    6548:	de b7       	in	r29, 0x3e	; 62
    654a:	6f ef       	ldi	r22, 0xFF	; 255
    654c:	7f ef       	ldi	r23, 0xFF	; 255
    654e:	81 e0       	ldi	r24, 0x01	; 1
    6550:	90 e0       	ldi	r25, 0x00	; 0
    6552:	db df       	rcall	.-74     	; 0x650a <_Z41__static_initialization_and_destruction_0ii>
    6554:	df 91       	pop	r29
    6556:	cf 91       	pop	r28
    6558:	08 95       	ret

0000655a <__mulsi3>:
    655a:	db 01       	movw	r26, r22
    655c:	8f 93       	push	r24
    655e:	9f 93       	push	r25
    6560:	4f d0       	rcall	.+158    	; 0x6600 <__muluhisi3>
    6562:	bf 91       	pop	r27
    6564:	af 91       	pop	r26
    6566:	a2 9f       	mul	r26, r18
    6568:	80 0d       	add	r24, r0
    656a:	91 1d       	adc	r25, r1
    656c:	a3 9f       	mul	r26, r19
    656e:	90 0d       	add	r25, r0
    6570:	b2 9f       	mul	r27, r18
    6572:	90 0d       	add	r25, r0
    6574:	11 24       	eor	r1, r1
    6576:	08 95       	ret

00006578 <__divmodhi4>:
    6578:	97 fb       	bst	r25, 7
    657a:	07 2e       	mov	r0, r23
    657c:	16 f4       	brtc	.+4      	; 0x6582 <__divmodhi4+0xa>
    657e:	00 94       	com	r0
    6580:	06 d0       	rcall	.+12     	; 0x658e <__divmodhi4_neg1>
    6582:	77 fd       	sbrc	r23, 7
    6584:	08 d0       	rcall	.+16     	; 0x6596 <__divmodhi4_neg2>
    6586:	46 d0       	rcall	.+140    	; 0x6614 <__udivmodhi4>
    6588:	07 fc       	sbrc	r0, 7
    658a:	05 d0       	rcall	.+10     	; 0x6596 <__divmodhi4_neg2>
    658c:	3e f4       	brtc	.+14     	; 0x659c <__divmodhi4_exit>

0000658e <__divmodhi4_neg1>:
    658e:	90 95       	com	r25
    6590:	81 95       	neg	r24
    6592:	9f 4f       	sbci	r25, 0xFF	; 255
    6594:	08 95       	ret

00006596 <__divmodhi4_neg2>:
    6596:	70 95       	com	r23
    6598:	61 95       	neg	r22
    659a:	7f 4f       	sbci	r23, 0xFF	; 255

0000659c <__divmodhi4_exit>:
    659c:	08 95       	ret

0000659e <__udivmodsi4>:
    659e:	a1 e2       	ldi	r26, 0x21	; 33
    65a0:	1a 2e       	mov	r1, r26
    65a2:	aa 1b       	sub	r26, r26
    65a4:	bb 1b       	sub	r27, r27
    65a6:	fd 01       	movw	r30, r26
    65a8:	0d c0       	rjmp	.+26     	; 0x65c4 <__udivmodsi4_ep>

000065aa <__udivmodsi4_loop>:
    65aa:	aa 1f       	adc	r26, r26
    65ac:	bb 1f       	adc	r27, r27
    65ae:	ee 1f       	adc	r30, r30
    65b0:	ff 1f       	adc	r31, r31
    65b2:	a2 17       	cp	r26, r18
    65b4:	b3 07       	cpc	r27, r19
    65b6:	e4 07       	cpc	r30, r20
    65b8:	f5 07       	cpc	r31, r21
    65ba:	20 f0       	brcs	.+8      	; 0x65c4 <__udivmodsi4_ep>
    65bc:	a2 1b       	sub	r26, r18
    65be:	b3 0b       	sbc	r27, r19
    65c0:	e4 0b       	sbc	r30, r20
    65c2:	f5 0b       	sbc	r31, r21

000065c4 <__udivmodsi4_ep>:
    65c4:	66 1f       	adc	r22, r22
    65c6:	77 1f       	adc	r23, r23
    65c8:	88 1f       	adc	r24, r24
    65ca:	99 1f       	adc	r25, r25
    65cc:	1a 94       	dec	r1
    65ce:	69 f7       	brne	.-38     	; 0x65aa <__udivmodsi4_loop>
    65d0:	60 95       	com	r22
    65d2:	70 95       	com	r23
    65d4:	80 95       	com	r24
    65d6:	90 95       	com	r25
    65d8:	9b 01       	movw	r18, r22
    65da:	ac 01       	movw	r20, r24
    65dc:	bd 01       	movw	r22, r26
    65de:	cf 01       	movw	r24, r30
    65e0:	08 95       	ret

000065e2 <__umulhisi3>:
    65e2:	a2 9f       	mul	r26, r18
    65e4:	b0 01       	movw	r22, r0
    65e6:	b3 9f       	mul	r27, r19
    65e8:	c0 01       	movw	r24, r0
    65ea:	a3 9f       	mul	r26, r19
    65ec:	70 0d       	add	r23, r0
    65ee:	81 1d       	adc	r24, r1
    65f0:	11 24       	eor	r1, r1
    65f2:	91 1d       	adc	r25, r1
    65f4:	b2 9f       	mul	r27, r18
    65f6:	70 0d       	add	r23, r0
    65f8:	81 1d       	adc	r24, r1
    65fa:	11 24       	eor	r1, r1
    65fc:	91 1d       	adc	r25, r1
    65fe:	08 95       	ret

00006600 <__muluhisi3>:
    6600:	f0 df       	rcall	.-32     	; 0x65e2 <__umulhisi3>
    6602:	a5 9f       	mul	r26, r21
    6604:	90 0d       	add	r25, r0
    6606:	b4 9f       	mul	r27, r20
    6608:	90 0d       	add	r25, r0
    660a:	a4 9f       	mul	r26, r20
    660c:	80 0d       	add	r24, r0
    660e:	91 1d       	adc	r25, r1
    6610:	11 24       	eor	r1, r1
    6612:	08 95       	ret

00006614 <__udivmodhi4>:
    6614:	aa 1b       	sub	r26, r26
    6616:	bb 1b       	sub	r27, r27
    6618:	51 e1       	ldi	r21, 0x11	; 17
    661a:	07 c0       	rjmp	.+14     	; 0x662a <__udivmodhi4_ep>

0000661c <__udivmodhi4_loop>:
    661c:	aa 1f       	adc	r26, r26
    661e:	bb 1f       	adc	r27, r27
    6620:	a6 17       	cp	r26, r22
    6622:	b7 07       	cpc	r27, r23
    6624:	10 f0       	brcs	.+4      	; 0x662a <__udivmodhi4_ep>
    6626:	a6 1b       	sub	r26, r22
    6628:	b7 0b       	sbc	r27, r23

0000662a <__udivmodhi4_ep>:
    662a:	88 1f       	adc	r24, r24
    662c:	99 1f       	adc	r25, r25
    662e:	5a 95       	dec	r21
    6630:	a9 f7       	brne	.-22     	; 0x661c <__udivmodhi4_loop>
    6632:	80 95       	com	r24
    6634:	90 95       	com	r25
    6636:	bc 01       	movw	r22, r24
    6638:	cd 01       	movw	r24, r26
    663a:	08 95       	ret

0000663c <__tablejump2__>:
    663c:	ee 0f       	add	r30, r30
    663e:	ff 1f       	adc	r31, r31
    6640:	00 24       	eor	r0, r0
    6642:	00 1c       	adc	r0, r0
    6644:	0b be       	out	0x3b, r0	; 59
    6646:	07 90       	elpm	r0, Z+
    6648:	f6 91       	elpm	r31, Z
    664a:	e0 2d       	mov	r30, r0
    664c:	09 94       	ijmp

0000664e <memcpy>:
    664e:	fb 01       	movw	r30, r22
    6650:	dc 01       	movw	r26, r24
    6652:	02 c0       	rjmp	.+4      	; 0x6658 <memcpy+0xa>
    6654:	01 90       	ld	r0, Z+
    6656:	0d 92       	st	X+, r0
    6658:	41 50       	subi	r20, 0x01	; 1
    665a:	50 40       	sbci	r21, 0x00	; 0
    665c:	d8 f7       	brcc	.-10     	; 0x6654 <memcpy+0x6>
    665e:	08 95       	ret

00006660 <memset>:
    6660:	dc 01       	movw	r26, r24
    6662:	01 c0       	rjmp	.+2      	; 0x6666 <memset+0x6>
    6664:	6d 93       	st	X+, r22
    6666:	41 50       	subi	r20, 0x01	; 1
    6668:	50 40       	sbci	r21, 0x00	; 0
    666a:	e0 f7       	brcc	.-8      	; 0x6664 <memset+0x4>
    666c:	08 95       	ret

0000666e <fdevopen>:
    666e:	0f 93       	push	r16
    6670:	1f 93       	push	r17
    6672:	cf 93       	push	r28
    6674:	df 93       	push	r29
    6676:	00 97       	sbiw	r24, 0x00	; 0
    6678:	31 f4       	brne	.+12     	; 0x6686 <fdevopen+0x18>
    667a:	61 15       	cp	r22, r1
    667c:	71 05       	cpc	r23, r1
    667e:	19 f4       	brne	.+6      	; 0x6686 <fdevopen+0x18>
    6680:	80 e0       	ldi	r24, 0x00	; 0
    6682:	90 e0       	ldi	r25, 0x00	; 0
    6684:	39 c0       	rjmp	.+114    	; 0x66f8 <fdevopen+0x8a>
    6686:	8b 01       	movw	r16, r22
    6688:	ec 01       	movw	r28, r24
    668a:	6e e0       	ldi	r22, 0x0E	; 14
    668c:	70 e0       	ldi	r23, 0x00	; 0
    668e:	81 e0       	ldi	r24, 0x01	; 1
    6690:	90 e0       	ldi	r25, 0x00	; 0
    6692:	98 d2       	rcall	.+1328   	; 0x6bc4 <calloc>
    6694:	fc 01       	movw	r30, r24
    6696:	89 2b       	or	r24, r25
    6698:	99 f3       	breq	.-26     	; 0x6680 <fdevopen+0x12>
    669a:	80 e8       	ldi	r24, 0x80	; 128
    669c:	83 83       	std	Z+3, r24	; 0x03
    669e:	01 15       	cp	r16, r1
    66a0:	11 05       	cpc	r17, r1
    66a2:	71 f0       	breq	.+28     	; 0x66c0 <fdevopen+0x52>
    66a4:	13 87       	std	Z+11, r17	; 0x0b
    66a6:	02 87       	std	Z+10, r16	; 0x0a
    66a8:	81 e8       	ldi	r24, 0x81	; 129
    66aa:	83 83       	std	Z+3, r24	; 0x03
    66ac:	80 91 a5 02 	lds	r24, 0x02A5
    66b0:	90 91 a6 02 	lds	r25, 0x02A6
    66b4:	89 2b       	or	r24, r25
    66b6:	21 f4       	brne	.+8      	; 0x66c0 <fdevopen+0x52>
    66b8:	f0 93 a6 02 	sts	0x02A6, r31
    66bc:	e0 93 a5 02 	sts	0x02A5, r30
    66c0:	20 97       	sbiw	r28, 0x00	; 0
    66c2:	c9 f0       	breq	.+50     	; 0x66f6 <fdevopen+0x88>
    66c4:	d1 87       	std	Z+9, r29	; 0x09
    66c6:	c0 87       	std	Z+8, r28	; 0x08
    66c8:	83 81       	ldd	r24, Z+3	; 0x03
    66ca:	82 60       	ori	r24, 0x02	; 2
    66cc:	83 83       	std	Z+3, r24	; 0x03
    66ce:	80 91 a7 02 	lds	r24, 0x02A7
    66d2:	90 91 a8 02 	lds	r25, 0x02A8
    66d6:	89 2b       	or	r24, r25
    66d8:	71 f4       	brne	.+28     	; 0x66f6 <fdevopen+0x88>
    66da:	f0 93 a8 02 	sts	0x02A8, r31
    66de:	e0 93 a7 02 	sts	0x02A7, r30
    66e2:	80 91 a9 02 	lds	r24, 0x02A9
    66e6:	90 91 aa 02 	lds	r25, 0x02AA
    66ea:	89 2b       	or	r24, r25
    66ec:	21 f4       	brne	.+8      	; 0x66f6 <fdevopen+0x88>
    66ee:	f0 93 aa 02 	sts	0x02AA, r31
    66f2:	e0 93 a9 02 	sts	0x02A9, r30
    66f6:	cf 01       	movw	r24, r30
    66f8:	df 91       	pop	r29
    66fa:	cf 91       	pop	r28
    66fc:	1f 91       	pop	r17
    66fe:	0f 91       	pop	r16
    6700:	08 95       	ret

00006702 <fgetc>:
    6702:	cf 93       	push	r28
    6704:	df 93       	push	r29
    6706:	ec 01       	movw	r28, r24
    6708:	2b 81       	ldd	r18, Y+3	; 0x03
    670a:	20 ff       	sbrs	r18, 0
    670c:	33 c0       	rjmp	.+102    	; 0x6774 <fgetc+0x72>
    670e:	26 ff       	sbrs	r18, 6
    6710:	0a c0       	rjmp	.+20     	; 0x6726 <fgetc+0x24>
    6712:	2f 7b       	andi	r18, 0xBF	; 191
    6714:	2b 83       	std	Y+3, r18	; 0x03
    6716:	8e 81       	ldd	r24, Y+6	; 0x06
    6718:	9f 81       	ldd	r25, Y+7	; 0x07
    671a:	01 96       	adiw	r24, 0x01	; 1
    671c:	9f 83       	std	Y+7, r25	; 0x07
    671e:	8e 83       	std	Y+6, r24	; 0x06
    6720:	8a 81       	ldd	r24, Y+2	; 0x02
    6722:	90 e0       	ldi	r25, 0x00	; 0
    6724:	29 c0       	rjmp	.+82     	; 0x6778 <fgetc+0x76>
    6726:	22 ff       	sbrs	r18, 2
    6728:	0f c0       	rjmp	.+30     	; 0x6748 <fgetc+0x46>
    672a:	e8 81       	ld	r30, Y
    672c:	f9 81       	ldd	r31, Y+1	; 0x01
    672e:	80 81       	ld	r24, Z
    6730:	08 2e       	mov	r0, r24
    6732:	00 0c       	add	r0, r0
    6734:	99 0b       	sbc	r25, r25
    6736:	00 97       	sbiw	r24, 0x00	; 0
    6738:	19 f4       	brne	.+6      	; 0x6740 <fgetc+0x3e>
    673a:	20 62       	ori	r18, 0x20	; 32
    673c:	2b 83       	std	Y+3, r18	; 0x03
    673e:	1a c0       	rjmp	.+52     	; 0x6774 <fgetc+0x72>
    6740:	31 96       	adiw	r30, 0x01	; 1
    6742:	f9 83       	std	Y+1, r31	; 0x01
    6744:	e8 83       	st	Y, r30
    6746:	0e c0       	rjmp	.+28     	; 0x6764 <fgetc+0x62>
    6748:	ea 85       	ldd	r30, Y+10	; 0x0a
    674a:	fb 85       	ldd	r31, Y+11	; 0x0b
    674c:	09 95       	icall
    674e:	97 ff       	sbrs	r25, 7
    6750:	09 c0       	rjmp	.+18     	; 0x6764 <fgetc+0x62>
    6752:	2b 81       	ldd	r18, Y+3	; 0x03
    6754:	01 96       	adiw	r24, 0x01	; 1
    6756:	11 f0       	breq	.+4      	; 0x675c <fgetc+0x5a>
    6758:	80 e2       	ldi	r24, 0x20	; 32
    675a:	01 c0       	rjmp	.+2      	; 0x675e <fgetc+0x5c>
    675c:	80 e1       	ldi	r24, 0x10	; 16
    675e:	82 2b       	or	r24, r18
    6760:	8b 83       	std	Y+3, r24	; 0x03
    6762:	08 c0       	rjmp	.+16     	; 0x6774 <fgetc+0x72>
    6764:	2e 81       	ldd	r18, Y+6	; 0x06
    6766:	3f 81       	ldd	r19, Y+7	; 0x07
    6768:	2f 5f       	subi	r18, 0xFF	; 255
    676a:	3f 4f       	sbci	r19, 0xFF	; 255
    676c:	3f 83       	std	Y+7, r19	; 0x07
    676e:	2e 83       	std	Y+6, r18	; 0x06
    6770:	99 27       	eor	r25, r25
    6772:	02 c0       	rjmp	.+4      	; 0x6778 <fgetc+0x76>
    6774:	8f ef       	ldi	r24, 0xFF	; 255
    6776:	9f ef       	ldi	r25, 0xFF	; 255
    6778:	df 91       	pop	r29
    677a:	cf 91       	pop	r28
    677c:	08 95       	ret

0000677e <printf_P>:
    677e:	0f 93       	push	r16
    6780:	1f 93       	push	r17
    6782:	cf 93       	push	r28
    6784:	df 93       	push	r29
    6786:	cd b7       	in	r28, 0x3d	; 61
    6788:	de b7       	in	r29, 0x3e	; 62
    678a:	ae 01       	movw	r20, r28
    678c:	49 5f       	subi	r20, 0xF9	; 249
    678e:	5f 4f       	sbci	r21, 0xFF	; 255
    6790:	da 01       	movw	r26, r20
    6792:	6d 91       	ld	r22, X+
    6794:	7d 91       	ld	r23, X+
    6796:	ad 01       	movw	r20, r26
    6798:	05 ea       	ldi	r16, 0xA5	; 165
    679a:	12 e0       	ldi	r17, 0x02	; 2
    679c:	f8 01       	movw	r30, r16
    679e:	82 81       	ldd	r24, Z+2	; 0x02
    67a0:	93 81       	ldd	r25, Z+3	; 0x03
    67a2:	dc 01       	movw	r26, r24
    67a4:	13 96       	adiw	r26, 0x03	; 3
    67a6:	2c 91       	ld	r18, X
    67a8:	13 97       	sbiw	r26, 0x03	; 3
    67aa:	28 60       	ori	r18, 0x08	; 8
    67ac:	13 96       	adiw	r26, 0x03	; 3
    67ae:	2c 93       	st	X, r18
    67b0:	1b d0       	rcall	.+54     	; 0x67e8 <vfprintf>
    67b2:	d8 01       	movw	r26, r16
    67b4:	12 96       	adiw	r26, 0x02	; 2
    67b6:	ed 91       	ld	r30, X+
    67b8:	fc 91       	ld	r31, X
    67ba:	13 97       	sbiw	r26, 0x03	; 3
    67bc:	23 81       	ldd	r18, Z+3	; 0x03
    67be:	27 7f       	andi	r18, 0xF7	; 247
    67c0:	23 83       	std	Z+3, r18	; 0x03
    67c2:	df 91       	pop	r29
    67c4:	cf 91       	pop	r28
    67c6:	1f 91       	pop	r17
    67c8:	0f 91       	pop	r16
    67ca:	08 95       	ret

000067cc <vfprintf_P>:
    67cc:	cf 93       	push	r28
    67ce:	df 93       	push	r29
    67d0:	ec 01       	movw	r28, r24
    67d2:	8b 81       	ldd	r24, Y+3	; 0x03
    67d4:	88 60       	ori	r24, 0x08	; 8
    67d6:	8b 83       	std	Y+3, r24	; 0x03
    67d8:	ce 01       	movw	r24, r28
    67da:	06 d0       	rcall	.+12     	; 0x67e8 <vfprintf>
    67dc:	2b 81       	ldd	r18, Y+3	; 0x03
    67de:	27 7f       	andi	r18, 0xF7	; 247
    67e0:	2b 83       	std	Y+3, r18	; 0x03
    67e2:	df 91       	pop	r29
    67e4:	cf 91       	pop	r28
    67e6:	08 95       	ret

000067e8 <vfprintf>:
    67e8:	2f 92       	push	r2
    67ea:	3f 92       	push	r3
    67ec:	4f 92       	push	r4
    67ee:	5f 92       	push	r5
    67f0:	6f 92       	push	r6
    67f2:	7f 92       	push	r7
    67f4:	8f 92       	push	r8
    67f6:	9f 92       	push	r9
    67f8:	af 92       	push	r10
    67fa:	bf 92       	push	r11
    67fc:	cf 92       	push	r12
    67fe:	df 92       	push	r13
    6800:	ef 92       	push	r14
    6802:	ff 92       	push	r15
    6804:	0f 93       	push	r16
    6806:	1f 93       	push	r17
    6808:	cf 93       	push	r28
    680a:	df 93       	push	r29
    680c:	cd b7       	in	r28, 0x3d	; 61
    680e:	de b7       	in	r29, 0x3e	; 62
    6810:	2c 97       	sbiw	r28, 0x0c	; 12
    6812:	0f b6       	in	r0, 0x3f	; 63
    6814:	f8 94       	cli
    6816:	de bf       	out	0x3e, r29	; 62
    6818:	0f be       	out	0x3f, r0	; 63
    681a:	cd bf       	out	0x3d, r28	; 61
    681c:	7c 01       	movw	r14, r24
    681e:	6b 01       	movw	r12, r22
    6820:	8a 01       	movw	r16, r20
    6822:	fc 01       	movw	r30, r24
    6824:	17 82       	std	Z+7, r1	; 0x07
    6826:	16 82       	std	Z+6, r1	; 0x06
    6828:	83 81       	ldd	r24, Z+3	; 0x03
    682a:	81 ff       	sbrs	r24, 1
    682c:	b0 c1       	rjmp	.+864    	; 0x6b8e <vfprintf+0x3a6>
    682e:	ce 01       	movw	r24, r28
    6830:	01 96       	adiw	r24, 0x01	; 1
    6832:	4c 01       	movw	r8, r24
    6834:	f7 01       	movw	r30, r14
    6836:	93 81       	ldd	r25, Z+3	; 0x03
    6838:	f6 01       	movw	r30, r12
    683a:	93 fd       	sbrc	r25, 3
    683c:	85 91       	lpm	r24, Z+
    683e:	93 ff       	sbrs	r25, 3
    6840:	81 91       	ld	r24, Z+
    6842:	6f 01       	movw	r12, r30
    6844:	88 23       	and	r24, r24
    6846:	09 f4       	brne	.+2      	; 0x684a <vfprintf+0x62>
    6848:	9e c1       	rjmp	.+828    	; 0x6b86 <vfprintf+0x39e>
    684a:	85 32       	cpi	r24, 0x25	; 37
    684c:	39 f4       	brne	.+14     	; 0x685c <vfprintf+0x74>
    684e:	93 fd       	sbrc	r25, 3
    6850:	85 91       	lpm	r24, Z+
    6852:	93 ff       	sbrs	r25, 3
    6854:	81 91       	ld	r24, Z+
    6856:	6f 01       	movw	r12, r30
    6858:	85 32       	cpi	r24, 0x25	; 37
    685a:	21 f4       	brne	.+8      	; 0x6864 <vfprintf+0x7c>
    685c:	b7 01       	movw	r22, r14
    685e:	90 e0       	ldi	r25, 0x00	; 0
    6860:	0e d3       	rcall	.+1564   	; 0x6e7e <fputc>
    6862:	e8 cf       	rjmp	.-48     	; 0x6834 <vfprintf+0x4c>
    6864:	51 2c       	mov	r5, r1
    6866:	31 2c       	mov	r3, r1
    6868:	20 e0       	ldi	r18, 0x00	; 0
    686a:	20 32       	cpi	r18, 0x20	; 32
    686c:	a0 f4       	brcc	.+40     	; 0x6896 <vfprintf+0xae>
    686e:	8b 32       	cpi	r24, 0x2B	; 43
    6870:	69 f0       	breq	.+26     	; 0x688c <vfprintf+0xa4>
    6872:	30 f4       	brcc	.+12     	; 0x6880 <vfprintf+0x98>
    6874:	80 32       	cpi	r24, 0x20	; 32
    6876:	59 f0       	breq	.+22     	; 0x688e <vfprintf+0xa6>
    6878:	83 32       	cpi	r24, 0x23	; 35
    687a:	69 f4       	brne	.+26     	; 0x6896 <vfprintf+0xae>
    687c:	20 61       	ori	r18, 0x10	; 16
    687e:	2c c0       	rjmp	.+88     	; 0x68d8 <vfprintf+0xf0>
    6880:	8d 32       	cpi	r24, 0x2D	; 45
    6882:	39 f0       	breq	.+14     	; 0x6892 <vfprintf+0xaa>
    6884:	80 33       	cpi	r24, 0x30	; 48
    6886:	39 f4       	brne	.+14     	; 0x6896 <vfprintf+0xae>
    6888:	21 60       	ori	r18, 0x01	; 1
    688a:	26 c0       	rjmp	.+76     	; 0x68d8 <vfprintf+0xf0>
    688c:	22 60       	ori	r18, 0x02	; 2
    688e:	24 60       	ori	r18, 0x04	; 4
    6890:	23 c0       	rjmp	.+70     	; 0x68d8 <vfprintf+0xf0>
    6892:	28 60       	ori	r18, 0x08	; 8
    6894:	21 c0       	rjmp	.+66     	; 0x68d8 <vfprintf+0xf0>
    6896:	27 fd       	sbrc	r18, 7
    6898:	27 c0       	rjmp	.+78     	; 0x68e8 <vfprintf+0x100>
    689a:	30 ed       	ldi	r19, 0xD0	; 208
    689c:	38 0f       	add	r19, r24
    689e:	3a 30       	cpi	r19, 0x0A	; 10
    68a0:	78 f4       	brcc	.+30     	; 0x68c0 <vfprintf+0xd8>
    68a2:	26 ff       	sbrs	r18, 6
    68a4:	06 c0       	rjmp	.+12     	; 0x68b2 <vfprintf+0xca>
    68a6:	fa e0       	ldi	r31, 0x0A	; 10
    68a8:	5f 9e       	mul	r5, r31
    68aa:	30 0d       	add	r19, r0
    68ac:	11 24       	eor	r1, r1
    68ae:	53 2e       	mov	r5, r19
    68b0:	13 c0       	rjmp	.+38     	; 0x68d8 <vfprintf+0xf0>
    68b2:	8a e0       	ldi	r24, 0x0A	; 10
    68b4:	38 9e       	mul	r3, r24
    68b6:	30 0d       	add	r19, r0
    68b8:	11 24       	eor	r1, r1
    68ba:	33 2e       	mov	r3, r19
    68bc:	20 62       	ori	r18, 0x20	; 32
    68be:	0c c0       	rjmp	.+24     	; 0x68d8 <vfprintf+0xf0>
    68c0:	8e 32       	cpi	r24, 0x2E	; 46
    68c2:	21 f4       	brne	.+8      	; 0x68cc <vfprintf+0xe4>
    68c4:	26 fd       	sbrc	r18, 6
    68c6:	5f c1       	rjmp	.+702    	; 0x6b86 <vfprintf+0x39e>
    68c8:	20 64       	ori	r18, 0x40	; 64
    68ca:	06 c0       	rjmp	.+12     	; 0x68d8 <vfprintf+0xf0>
    68cc:	8c 36       	cpi	r24, 0x6C	; 108
    68ce:	11 f4       	brne	.+4      	; 0x68d4 <vfprintf+0xec>
    68d0:	20 68       	ori	r18, 0x80	; 128
    68d2:	02 c0       	rjmp	.+4      	; 0x68d8 <vfprintf+0xf0>
    68d4:	88 36       	cpi	r24, 0x68	; 104
    68d6:	41 f4       	brne	.+16     	; 0x68e8 <vfprintf+0x100>
    68d8:	f6 01       	movw	r30, r12
    68da:	93 fd       	sbrc	r25, 3
    68dc:	85 91       	lpm	r24, Z+
    68de:	93 ff       	sbrs	r25, 3
    68e0:	81 91       	ld	r24, Z+
    68e2:	6f 01       	movw	r12, r30
    68e4:	81 11       	cpse	r24, r1
    68e6:	c1 cf       	rjmp	.-126    	; 0x686a <vfprintf+0x82>
    68e8:	98 2f       	mov	r25, r24
    68ea:	9f 7d       	andi	r25, 0xDF	; 223
    68ec:	95 54       	subi	r25, 0x45	; 69
    68ee:	93 30       	cpi	r25, 0x03	; 3
    68f0:	28 f4       	brcc	.+10     	; 0x68fc <vfprintf+0x114>
    68f2:	0c 5f       	subi	r16, 0xFC	; 252
    68f4:	1f 4f       	sbci	r17, 0xFF	; 255
    68f6:	ff e3       	ldi	r31, 0x3F	; 63
    68f8:	f9 83       	std	Y+1, r31	; 0x01
    68fa:	0d c0       	rjmp	.+26     	; 0x6916 <vfprintf+0x12e>
    68fc:	83 36       	cpi	r24, 0x63	; 99
    68fe:	31 f0       	breq	.+12     	; 0x690c <vfprintf+0x124>
    6900:	83 37       	cpi	r24, 0x73	; 115
    6902:	71 f0       	breq	.+28     	; 0x6920 <vfprintf+0x138>
    6904:	83 35       	cpi	r24, 0x53	; 83
    6906:	09 f0       	breq	.+2      	; 0x690a <vfprintf+0x122>
    6908:	57 c0       	rjmp	.+174    	; 0x69b8 <vfprintf+0x1d0>
    690a:	21 c0       	rjmp	.+66     	; 0x694e <vfprintf+0x166>
    690c:	f8 01       	movw	r30, r16
    690e:	80 81       	ld	r24, Z
    6910:	89 83       	std	Y+1, r24	; 0x01
    6912:	0e 5f       	subi	r16, 0xFE	; 254
    6914:	1f 4f       	sbci	r17, 0xFF	; 255
    6916:	44 24       	eor	r4, r4
    6918:	43 94       	inc	r4
    691a:	51 2c       	mov	r5, r1
    691c:	54 01       	movw	r10, r8
    691e:	14 c0       	rjmp	.+40     	; 0x6948 <vfprintf+0x160>
    6920:	38 01       	movw	r6, r16
    6922:	f2 e0       	ldi	r31, 0x02	; 2
    6924:	6f 0e       	add	r6, r31
    6926:	71 1c       	adc	r7, r1
    6928:	f8 01       	movw	r30, r16
    692a:	a0 80       	ld	r10, Z
    692c:	b1 80       	ldd	r11, Z+1	; 0x01
    692e:	26 ff       	sbrs	r18, 6
    6930:	03 c0       	rjmp	.+6      	; 0x6938 <vfprintf+0x150>
    6932:	65 2d       	mov	r22, r5
    6934:	70 e0       	ldi	r23, 0x00	; 0
    6936:	02 c0       	rjmp	.+4      	; 0x693c <vfprintf+0x154>
    6938:	6f ef       	ldi	r22, 0xFF	; 255
    693a:	7f ef       	ldi	r23, 0xFF	; 255
    693c:	c5 01       	movw	r24, r10
    693e:	2c 87       	std	Y+12, r18	; 0x0c
    6940:	93 d2       	rcall	.+1318   	; 0x6e68 <strnlen>
    6942:	2c 01       	movw	r4, r24
    6944:	83 01       	movw	r16, r6
    6946:	2c 85       	ldd	r18, Y+12	; 0x0c
    6948:	2f 77       	andi	r18, 0x7F	; 127
    694a:	22 2e       	mov	r2, r18
    694c:	16 c0       	rjmp	.+44     	; 0x697a <vfprintf+0x192>
    694e:	38 01       	movw	r6, r16
    6950:	f2 e0       	ldi	r31, 0x02	; 2
    6952:	6f 0e       	add	r6, r31
    6954:	71 1c       	adc	r7, r1
    6956:	f8 01       	movw	r30, r16
    6958:	a0 80       	ld	r10, Z
    695a:	b1 80       	ldd	r11, Z+1	; 0x01
    695c:	26 ff       	sbrs	r18, 6
    695e:	03 c0       	rjmp	.+6      	; 0x6966 <vfprintf+0x17e>
    6960:	65 2d       	mov	r22, r5
    6962:	70 e0       	ldi	r23, 0x00	; 0
    6964:	02 c0       	rjmp	.+4      	; 0x696a <vfprintf+0x182>
    6966:	6f ef       	ldi	r22, 0xFF	; 255
    6968:	7f ef       	ldi	r23, 0xFF	; 255
    696a:	c5 01       	movw	r24, r10
    696c:	2c 87       	std	Y+12, r18	; 0x0c
    696e:	71 d2       	rcall	.+1250   	; 0x6e52 <strnlen_P>
    6970:	2c 01       	movw	r4, r24
    6972:	2c 85       	ldd	r18, Y+12	; 0x0c
    6974:	20 68       	ori	r18, 0x80	; 128
    6976:	22 2e       	mov	r2, r18
    6978:	83 01       	movw	r16, r6
    697a:	23 fc       	sbrc	r2, 3
    697c:	19 c0       	rjmp	.+50     	; 0x69b0 <vfprintf+0x1c8>
    697e:	83 2d       	mov	r24, r3
    6980:	90 e0       	ldi	r25, 0x00	; 0
    6982:	48 16       	cp	r4, r24
    6984:	59 06       	cpc	r5, r25
    6986:	a0 f4       	brcc	.+40     	; 0x69b0 <vfprintf+0x1c8>
    6988:	b7 01       	movw	r22, r14
    698a:	80 e2       	ldi	r24, 0x20	; 32
    698c:	90 e0       	ldi	r25, 0x00	; 0
    698e:	77 d2       	rcall	.+1262   	; 0x6e7e <fputc>
    6990:	3a 94       	dec	r3
    6992:	f5 cf       	rjmp	.-22     	; 0x697e <vfprintf+0x196>
    6994:	f5 01       	movw	r30, r10
    6996:	27 fc       	sbrc	r2, 7
    6998:	85 91       	lpm	r24, Z+
    699a:	27 fe       	sbrs	r2, 7
    699c:	81 91       	ld	r24, Z+
    699e:	5f 01       	movw	r10, r30
    69a0:	b7 01       	movw	r22, r14
    69a2:	90 e0       	ldi	r25, 0x00	; 0
    69a4:	6c d2       	rcall	.+1240   	; 0x6e7e <fputc>
    69a6:	31 10       	cpse	r3, r1
    69a8:	3a 94       	dec	r3
    69aa:	f1 e0       	ldi	r31, 0x01	; 1
    69ac:	4f 1a       	sub	r4, r31
    69ae:	51 08       	sbc	r5, r1
    69b0:	41 14       	cp	r4, r1
    69b2:	51 04       	cpc	r5, r1
    69b4:	79 f7       	brne	.-34     	; 0x6994 <vfprintf+0x1ac>
    69b6:	de c0       	rjmp	.+444    	; 0x6b74 <vfprintf+0x38c>
    69b8:	84 36       	cpi	r24, 0x64	; 100
    69ba:	11 f0       	breq	.+4      	; 0x69c0 <vfprintf+0x1d8>
    69bc:	89 36       	cpi	r24, 0x69	; 105
    69be:	31 f5       	brne	.+76     	; 0x6a0c <vfprintf+0x224>
    69c0:	f8 01       	movw	r30, r16
    69c2:	27 ff       	sbrs	r18, 7
    69c4:	07 c0       	rjmp	.+14     	; 0x69d4 <vfprintf+0x1ec>
    69c6:	60 81       	ld	r22, Z
    69c8:	71 81       	ldd	r23, Z+1	; 0x01
    69ca:	82 81       	ldd	r24, Z+2	; 0x02
    69cc:	93 81       	ldd	r25, Z+3	; 0x03
    69ce:	0c 5f       	subi	r16, 0xFC	; 252
    69d0:	1f 4f       	sbci	r17, 0xFF	; 255
    69d2:	08 c0       	rjmp	.+16     	; 0x69e4 <vfprintf+0x1fc>
    69d4:	60 81       	ld	r22, Z
    69d6:	71 81       	ldd	r23, Z+1	; 0x01
    69d8:	07 2e       	mov	r0, r23
    69da:	00 0c       	add	r0, r0
    69dc:	88 0b       	sbc	r24, r24
    69de:	99 0b       	sbc	r25, r25
    69e0:	0e 5f       	subi	r16, 0xFE	; 254
    69e2:	1f 4f       	sbci	r17, 0xFF	; 255
    69e4:	2f 76       	andi	r18, 0x6F	; 111
    69e6:	72 2e       	mov	r7, r18
    69e8:	97 ff       	sbrs	r25, 7
    69ea:	09 c0       	rjmp	.+18     	; 0x69fe <vfprintf+0x216>
    69ec:	90 95       	com	r25
    69ee:	80 95       	com	r24
    69f0:	70 95       	com	r23
    69f2:	61 95       	neg	r22
    69f4:	7f 4f       	sbci	r23, 0xFF	; 255
    69f6:	8f 4f       	sbci	r24, 0xFF	; 255
    69f8:	9f 4f       	sbci	r25, 0xFF	; 255
    69fa:	20 68       	ori	r18, 0x80	; 128
    69fc:	72 2e       	mov	r7, r18
    69fe:	2a e0       	ldi	r18, 0x0A	; 10
    6a00:	30 e0       	ldi	r19, 0x00	; 0
    6a02:	a4 01       	movw	r20, r8
    6a04:	74 d2       	rcall	.+1256   	; 0x6eee <__ultoa_invert>
    6a06:	a8 2e       	mov	r10, r24
    6a08:	a8 18       	sub	r10, r8
    6a0a:	43 c0       	rjmp	.+134    	; 0x6a92 <vfprintf+0x2aa>
    6a0c:	85 37       	cpi	r24, 0x75	; 117
    6a0e:	29 f4       	brne	.+10     	; 0x6a1a <vfprintf+0x232>
    6a10:	2f 7e       	andi	r18, 0xEF	; 239
    6a12:	b2 2e       	mov	r11, r18
    6a14:	2a e0       	ldi	r18, 0x0A	; 10
    6a16:	30 e0       	ldi	r19, 0x00	; 0
    6a18:	25 c0       	rjmp	.+74     	; 0x6a64 <vfprintf+0x27c>
    6a1a:	f2 2f       	mov	r31, r18
    6a1c:	f9 7f       	andi	r31, 0xF9	; 249
    6a1e:	bf 2e       	mov	r11, r31
    6a20:	8f 36       	cpi	r24, 0x6F	; 111
    6a22:	c1 f0       	breq	.+48     	; 0x6a54 <vfprintf+0x26c>
    6a24:	18 f4       	brcc	.+6      	; 0x6a2c <vfprintf+0x244>
    6a26:	88 35       	cpi	r24, 0x58	; 88
    6a28:	79 f0       	breq	.+30     	; 0x6a48 <vfprintf+0x260>
    6a2a:	ad c0       	rjmp	.+346    	; 0x6b86 <vfprintf+0x39e>
    6a2c:	80 37       	cpi	r24, 0x70	; 112
    6a2e:	19 f0       	breq	.+6      	; 0x6a36 <vfprintf+0x24e>
    6a30:	88 37       	cpi	r24, 0x78	; 120
    6a32:	21 f0       	breq	.+8      	; 0x6a3c <vfprintf+0x254>
    6a34:	a8 c0       	rjmp	.+336    	; 0x6b86 <vfprintf+0x39e>
    6a36:	2f 2f       	mov	r18, r31
    6a38:	20 61       	ori	r18, 0x10	; 16
    6a3a:	b2 2e       	mov	r11, r18
    6a3c:	b4 fe       	sbrs	r11, 4
    6a3e:	0d c0       	rjmp	.+26     	; 0x6a5a <vfprintf+0x272>
    6a40:	8b 2d       	mov	r24, r11
    6a42:	84 60       	ori	r24, 0x04	; 4
    6a44:	b8 2e       	mov	r11, r24
    6a46:	09 c0       	rjmp	.+18     	; 0x6a5a <vfprintf+0x272>
    6a48:	24 ff       	sbrs	r18, 4
    6a4a:	0a c0       	rjmp	.+20     	; 0x6a60 <vfprintf+0x278>
    6a4c:	9f 2f       	mov	r25, r31
    6a4e:	96 60       	ori	r25, 0x06	; 6
    6a50:	b9 2e       	mov	r11, r25
    6a52:	06 c0       	rjmp	.+12     	; 0x6a60 <vfprintf+0x278>
    6a54:	28 e0       	ldi	r18, 0x08	; 8
    6a56:	30 e0       	ldi	r19, 0x00	; 0
    6a58:	05 c0       	rjmp	.+10     	; 0x6a64 <vfprintf+0x27c>
    6a5a:	20 e1       	ldi	r18, 0x10	; 16
    6a5c:	30 e0       	ldi	r19, 0x00	; 0
    6a5e:	02 c0       	rjmp	.+4      	; 0x6a64 <vfprintf+0x27c>
    6a60:	20 e1       	ldi	r18, 0x10	; 16
    6a62:	32 e0       	ldi	r19, 0x02	; 2
    6a64:	f8 01       	movw	r30, r16
    6a66:	b7 fe       	sbrs	r11, 7
    6a68:	07 c0       	rjmp	.+14     	; 0x6a78 <vfprintf+0x290>
    6a6a:	60 81       	ld	r22, Z
    6a6c:	71 81       	ldd	r23, Z+1	; 0x01
    6a6e:	82 81       	ldd	r24, Z+2	; 0x02
    6a70:	93 81       	ldd	r25, Z+3	; 0x03
    6a72:	0c 5f       	subi	r16, 0xFC	; 252
    6a74:	1f 4f       	sbci	r17, 0xFF	; 255
    6a76:	06 c0       	rjmp	.+12     	; 0x6a84 <vfprintf+0x29c>
    6a78:	60 81       	ld	r22, Z
    6a7a:	71 81       	ldd	r23, Z+1	; 0x01
    6a7c:	80 e0       	ldi	r24, 0x00	; 0
    6a7e:	90 e0       	ldi	r25, 0x00	; 0
    6a80:	0e 5f       	subi	r16, 0xFE	; 254
    6a82:	1f 4f       	sbci	r17, 0xFF	; 255
    6a84:	a4 01       	movw	r20, r8
    6a86:	33 d2       	rcall	.+1126   	; 0x6eee <__ultoa_invert>
    6a88:	a8 2e       	mov	r10, r24
    6a8a:	a8 18       	sub	r10, r8
    6a8c:	fb 2d       	mov	r31, r11
    6a8e:	ff 77       	andi	r31, 0x7F	; 127
    6a90:	7f 2e       	mov	r7, r31
    6a92:	76 fe       	sbrs	r7, 6
    6a94:	0b c0       	rjmp	.+22     	; 0x6aac <vfprintf+0x2c4>
    6a96:	37 2d       	mov	r19, r7
    6a98:	3e 7f       	andi	r19, 0xFE	; 254
    6a9a:	a5 14       	cp	r10, r5
    6a9c:	50 f4       	brcc	.+20     	; 0x6ab2 <vfprintf+0x2ca>
    6a9e:	74 fe       	sbrs	r7, 4
    6aa0:	0a c0       	rjmp	.+20     	; 0x6ab6 <vfprintf+0x2ce>
    6aa2:	72 fc       	sbrc	r7, 2
    6aa4:	08 c0       	rjmp	.+16     	; 0x6ab6 <vfprintf+0x2ce>
    6aa6:	37 2d       	mov	r19, r7
    6aa8:	3e 7e       	andi	r19, 0xEE	; 238
    6aaa:	05 c0       	rjmp	.+10     	; 0x6ab6 <vfprintf+0x2ce>
    6aac:	ba 2c       	mov	r11, r10
    6aae:	37 2d       	mov	r19, r7
    6ab0:	03 c0       	rjmp	.+6      	; 0x6ab8 <vfprintf+0x2d0>
    6ab2:	ba 2c       	mov	r11, r10
    6ab4:	01 c0       	rjmp	.+2      	; 0x6ab8 <vfprintf+0x2d0>
    6ab6:	b5 2c       	mov	r11, r5
    6ab8:	34 ff       	sbrs	r19, 4
    6aba:	0d c0       	rjmp	.+26     	; 0x6ad6 <vfprintf+0x2ee>
    6abc:	fe 01       	movw	r30, r28
    6abe:	ea 0d       	add	r30, r10
    6ac0:	f1 1d       	adc	r31, r1
    6ac2:	80 81       	ld	r24, Z
    6ac4:	80 33       	cpi	r24, 0x30	; 48
    6ac6:	11 f4       	brne	.+4      	; 0x6acc <vfprintf+0x2e4>
    6ac8:	39 7e       	andi	r19, 0xE9	; 233
    6aca:	09 c0       	rjmp	.+18     	; 0x6ade <vfprintf+0x2f6>
    6acc:	32 ff       	sbrs	r19, 2
    6ace:	06 c0       	rjmp	.+12     	; 0x6adc <vfprintf+0x2f4>
    6ad0:	b3 94       	inc	r11
    6ad2:	b3 94       	inc	r11
    6ad4:	04 c0       	rjmp	.+8      	; 0x6ade <vfprintf+0x2f6>
    6ad6:	83 2f       	mov	r24, r19
    6ad8:	86 78       	andi	r24, 0x86	; 134
    6ada:	09 f0       	breq	.+2      	; 0x6ade <vfprintf+0x2f6>
    6adc:	b3 94       	inc	r11
    6ade:	33 fd       	sbrc	r19, 3
    6ae0:	12 c0       	rjmp	.+36     	; 0x6b06 <vfprintf+0x31e>
    6ae2:	30 ff       	sbrs	r19, 0
    6ae4:	06 c0       	rjmp	.+12     	; 0x6af2 <vfprintf+0x30a>
    6ae6:	5a 2c       	mov	r5, r10
    6ae8:	b3 14       	cp	r11, r3
    6aea:	18 f4       	brcc	.+6      	; 0x6af2 <vfprintf+0x30a>
    6aec:	53 0c       	add	r5, r3
    6aee:	5b 18       	sub	r5, r11
    6af0:	b3 2c       	mov	r11, r3
    6af2:	b3 14       	cp	r11, r3
    6af4:	60 f4       	brcc	.+24     	; 0x6b0e <vfprintf+0x326>
    6af6:	b7 01       	movw	r22, r14
    6af8:	80 e2       	ldi	r24, 0x20	; 32
    6afa:	90 e0       	ldi	r25, 0x00	; 0
    6afc:	3c 87       	std	Y+12, r19	; 0x0c
    6afe:	bf d1       	rcall	.+894    	; 0x6e7e <fputc>
    6b00:	b3 94       	inc	r11
    6b02:	3c 85       	ldd	r19, Y+12	; 0x0c
    6b04:	f6 cf       	rjmp	.-20     	; 0x6af2 <vfprintf+0x30a>
    6b06:	b3 14       	cp	r11, r3
    6b08:	10 f4       	brcc	.+4      	; 0x6b0e <vfprintf+0x326>
    6b0a:	3b 18       	sub	r3, r11
    6b0c:	01 c0       	rjmp	.+2      	; 0x6b10 <vfprintf+0x328>
    6b0e:	31 2c       	mov	r3, r1
    6b10:	34 ff       	sbrs	r19, 4
    6b12:	11 c0       	rjmp	.+34     	; 0x6b36 <vfprintf+0x34e>
    6b14:	b7 01       	movw	r22, r14
    6b16:	80 e3       	ldi	r24, 0x30	; 48
    6b18:	90 e0       	ldi	r25, 0x00	; 0
    6b1a:	3c 87       	std	Y+12, r19	; 0x0c
    6b1c:	b0 d1       	rcall	.+864    	; 0x6e7e <fputc>
    6b1e:	3c 85       	ldd	r19, Y+12	; 0x0c
    6b20:	32 ff       	sbrs	r19, 2
    6b22:	16 c0       	rjmp	.+44     	; 0x6b50 <vfprintf+0x368>
    6b24:	31 fd       	sbrc	r19, 1
    6b26:	03 c0       	rjmp	.+6      	; 0x6b2e <vfprintf+0x346>
    6b28:	88 e7       	ldi	r24, 0x78	; 120
    6b2a:	90 e0       	ldi	r25, 0x00	; 0
    6b2c:	02 c0       	rjmp	.+4      	; 0x6b32 <vfprintf+0x34a>
    6b2e:	88 e5       	ldi	r24, 0x58	; 88
    6b30:	90 e0       	ldi	r25, 0x00	; 0
    6b32:	b7 01       	movw	r22, r14
    6b34:	0c c0       	rjmp	.+24     	; 0x6b4e <vfprintf+0x366>
    6b36:	83 2f       	mov	r24, r19
    6b38:	86 78       	andi	r24, 0x86	; 134
    6b3a:	51 f0       	breq	.+20     	; 0x6b50 <vfprintf+0x368>
    6b3c:	31 ff       	sbrs	r19, 1
    6b3e:	02 c0       	rjmp	.+4      	; 0x6b44 <vfprintf+0x35c>
    6b40:	8b e2       	ldi	r24, 0x2B	; 43
    6b42:	01 c0       	rjmp	.+2      	; 0x6b46 <vfprintf+0x35e>
    6b44:	80 e2       	ldi	r24, 0x20	; 32
    6b46:	37 fd       	sbrc	r19, 7
    6b48:	8d e2       	ldi	r24, 0x2D	; 45
    6b4a:	b7 01       	movw	r22, r14
    6b4c:	90 e0       	ldi	r25, 0x00	; 0
    6b4e:	97 d1       	rcall	.+814    	; 0x6e7e <fputc>
    6b50:	a5 14       	cp	r10, r5
    6b52:	30 f4       	brcc	.+12     	; 0x6b60 <vfprintf+0x378>
    6b54:	b7 01       	movw	r22, r14
    6b56:	80 e3       	ldi	r24, 0x30	; 48
    6b58:	90 e0       	ldi	r25, 0x00	; 0
    6b5a:	91 d1       	rcall	.+802    	; 0x6e7e <fputc>
    6b5c:	5a 94       	dec	r5
    6b5e:	f8 cf       	rjmp	.-16     	; 0x6b50 <vfprintf+0x368>
    6b60:	aa 94       	dec	r10
    6b62:	f4 01       	movw	r30, r8
    6b64:	ea 0d       	add	r30, r10
    6b66:	f1 1d       	adc	r31, r1
    6b68:	80 81       	ld	r24, Z
    6b6a:	b7 01       	movw	r22, r14
    6b6c:	90 e0       	ldi	r25, 0x00	; 0
    6b6e:	87 d1       	rcall	.+782    	; 0x6e7e <fputc>
    6b70:	a1 10       	cpse	r10, r1
    6b72:	f6 cf       	rjmp	.-20     	; 0x6b60 <vfprintf+0x378>
    6b74:	33 20       	and	r3, r3
    6b76:	09 f4       	brne	.+2      	; 0x6b7a <vfprintf+0x392>
    6b78:	5d ce       	rjmp	.-838    	; 0x6834 <vfprintf+0x4c>
    6b7a:	b7 01       	movw	r22, r14
    6b7c:	80 e2       	ldi	r24, 0x20	; 32
    6b7e:	90 e0       	ldi	r25, 0x00	; 0
    6b80:	7e d1       	rcall	.+764    	; 0x6e7e <fputc>
    6b82:	3a 94       	dec	r3
    6b84:	f7 cf       	rjmp	.-18     	; 0x6b74 <vfprintf+0x38c>
    6b86:	f7 01       	movw	r30, r14
    6b88:	86 81       	ldd	r24, Z+6	; 0x06
    6b8a:	97 81       	ldd	r25, Z+7	; 0x07
    6b8c:	02 c0       	rjmp	.+4      	; 0x6b92 <vfprintf+0x3aa>
    6b8e:	8f ef       	ldi	r24, 0xFF	; 255
    6b90:	9f ef       	ldi	r25, 0xFF	; 255
    6b92:	2c 96       	adiw	r28, 0x0c	; 12
    6b94:	0f b6       	in	r0, 0x3f	; 63
    6b96:	f8 94       	cli
    6b98:	de bf       	out	0x3e, r29	; 62
    6b9a:	0f be       	out	0x3f, r0	; 63
    6b9c:	cd bf       	out	0x3d, r28	; 61
    6b9e:	df 91       	pop	r29
    6ba0:	cf 91       	pop	r28
    6ba2:	1f 91       	pop	r17
    6ba4:	0f 91       	pop	r16
    6ba6:	ff 90       	pop	r15
    6ba8:	ef 90       	pop	r14
    6baa:	df 90       	pop	r13
    6bac:	cf 90       	pop	r12
    6bae:	bf 90       	pop	r11
    6bb0:	af 90       	pop	r10
    6bb2:	9f 90       	pop	r9
    6bb4:	8f 90       	pop	r8
    6bb6:	7f 90       	pop	r7
    6bb8:	6f 90       	pop	r6
    6bba:	5f 90       	pop	r5
    6bbc:	4f 90       	pop	r4
    6bbe:	3f 90       	pop	r3
    6bc0:	2f 90       	pop	r2
    6bc2:	08 95       	ret

00006bc4 <calloc>:
    6bc4:	0f 93       	push	r16
    6bc6:	1f 93       	push	r17
    6bc8:	cf 93       	push	r28
    6bca:	df 93       	push	r29
    6bcc:	86 9f       	mul	r24, r22
    6bce:	80 01       	movw	r16, r0
    6bd0:	87 9f       	mul	r24, r23
    6bd2:	10 0d       	add	r17, r0
    6bd4:	96 9f       	mul	r25, r22
    6bd6:	10 0d       	add	r17, r0
    6bd8:	11 24       	eor	r1, r1
    6bda:	c8 01       	movw	r24, r16
    6bdc:	0d d0       	rcall	.+26     	; 0x6bf8 <malloc>
    6bde:	ec 01       	movw	r28, r24
    6be0:	00 97       	sbiw	r24, 0x00	; 0
    6be2:	21 f0       	breq	.+8      	; 0x6bec <calloc+0x28>
    6be4:	a8 01       	movw	r20, r16
    6be6:	60 e0       	ldi	r22, 0x00	; 0
    6be8:	70 e0       	ldi	r23, 0x00	; 0
    6bea:	3a dd       	rcall	.-1420   	; 0x6660 <memset>
    6bec:	ce 01       	movw	r24, r28
    6bee:	df 91       	pop	r29
    6bf0:	cf 91       	pop	r28
    6bf2:	1f 91       	pop	r17
    6bf4:	0f 91       	pop	r16
    6bf6:	08 95       	ret

00006bf8 <malloc>:
    6bf8:	cf 93       	push	r28
    6bfa:	df 93       	push	r29
    6bfc:	82 30       	cpi	r24, 0x02	; 2
    6bfe:	91 05       	cpc	r25, r1
    6c00:	10 f4       	brcc	.+4      	; 0x6c06 <malloc+0xe>
    6c02:	82 e0       	ldi	r24, 0x02	; 2
    6c04:	90 e0       	ldi	r25, 0x00	; 0
    6c06:	e0 91 ad 02 	lds	r30, 0x02AD
    6c0a:	f0 91 ae 02 	lds	r31, 0x02AE
    6c0e:	20 e0       	ldi	r18, 0x00	; 0
    6c10:	30 e0       	ldi	r19, 0x00	; 0
    6c12:	c0 e0       	ldi	r28, 0x00	; 0
    6c14:	d0 e0       	ldi	r29, 0x00	; 0
    6c16:	30 97       	sbiw	r30, 0x00	; 0
    6c18:	11 f1       	breq	.+68     	; 0x6c5e <malloc+0x66>
    6c1a:	40 81       	ld	r20, Z
    6c1c:	51 81       	ldd	r21, Z+1	; 0x01
    6c1e:	48 17       	cp	r20, r24
    6c20:	59 07       	cpc	r21, r25
    6c22:	c0 f0       	brcs	.+48     	; 0x6c54 <malloc+0x5c>
    6c24:	48 17       	cp	r20, r24
    6c26:	59 07       	cpc	r21, r25
    6c28:	61 f4       	brne	.+24     	; 0x6c42 <malloc+0x4a>
    6c2a:	82 81       	ldd	r24, Z+2	; 0x02
    6c2c:	93 81       	ldd	r25, Z+3	; 0x03
    6c2e:	20 97       	sbiw	r28, 0x00	; 0
    6c30:	19 f0       	breq	.+6      	; 0x6c38 <malloc+0x40>
    6c32:	9b 83       	std	Y+3, r25	; 0x03
    6c34:	8a 83       	std	Y+2, r24	; 0x02
    6c36:	2b c0       	rjmp	.+86     	; 0x6c8e <malloc+0x96>
    6c38:	90 93 ae 02 	sts	0x02AE, r25
    6c3c:	80 93 ad 02 	sts	0x02AD, r24
    6c40:	26 c0       	rjmp	.+76     	; 0x6c8e <malloc+0x96>
    6c42:	21 15       	cp	r18, r1
    6c44:	31 05       	cpc	r19, r1
    6c46:	19 f0       	breq	.+6      	; 0x6c4e <malloc+0x56>
    6c48:	42 17       	cp	r20, r18
    6c4a:	53 07       	cpc	r21, r19
    6c4c:	18 f4       	brcc	.+6      	; 0x6c54 <malloc+0x5c>
    6c4e:	9a 01       	movw	r18, r20
    6c50:	be 01       	movw	r22, r28
    6c52:	df 01       	movw	r26, r30
    6c54:	ef 01       	movw	r28, r30
    6c56:	02 80       	ldd	r0, Z+2	; 0x02
    6c58:	f3 81       	ldd	r31, Z+3	; 0x03
    6c5a:	e0 2d       	mov	r30, r0
    6c5c:	dc cf       	rjmp	.-72     	; 0x6c16 <malloc+0x1e>
    6c5e:	21 15       	cp	r18, r1
    6c60:	31 05       	cpc	r19, r1
    6c62:	09 f1       	breq	.+66     	; 0x6ca6 <malloc+0xae>
    6c64:	28 1b       	sub	r18, r24
    6c66:	39 0b       	sbc	r19, r25
    6c68:	24 30       	cpi	r18, 0x04	; 4
    6c6a:	31 05       	cpc	r19, r1
    6c6c:	90 f4       	brcc	.+36     	; 0x6c92 <malloc+0x9a>
    6c6e:	12 96       	adiw	r26, 0x02	; 2
    6c70:	8d 91       	ld	r24, X+
    6c72:	9c 91       	ld	r25, X
    6c74:	13 97       	sbiw	r26, 0x03	; 3
    6c76:	61 15       	cp	r22, r1
    6c78:	71 05       	cpc	r23, r1
    6c7a:	21 f0       	breq	.+8      	; 0x6c84 <malloc+0x8c>
    6c7c:	fb 01       	movw	r30, r22
    6c7e:	93 83       	std	Z+3, r25	; 0x03
    6c80:	82 83       	std	Z+2, r24	; 0x02
    6c82:	04 c0       	rjmp	.+8      	; 0x6c8c <malloc+0x94>
    6c84:	90 93 ae 02 	sts	0x02AE, r25
    6c88:	80 93 ad 02 	sts	0x02AD, r24
    6c8c:	fd 01       	movw	r30, r26
    6c8e:	32 96       	adiw	r30, 0x02	; 2
    6c90:	44 c0       	rjmp	.+136    	; 0x6d1a <malloc+0x122>
    6c92:	fd 01       	movw	r30, r26
    6c94:	e2 0f       	add	r30, r18
    6c96:	f3 1f       	adc	r31, r19
    6c98:	81 93       	st	Z+, r24
    6c9a:	91 93       	st	Z+, r25
    6c9c:	22 50       	subi	r18, 0x02	; 2
    6c9e:	31 09       	sbc	r19, r1
    6ca0:	2d 93       	st	X+, r18
    6ca2:	3c 93       	st	X, r19
    6ca4:	3a c0       	rjmp	.+116    	; 0x6d1a <malloc+0x122>
    6ca6:	20 91 ab 02 	lds	r18, 0x02AB
    6caa:	30 91 ac 02 	lds	r19, 0x02AC
    6cae:	23 2b       	or	r18, r19
    6cb0:	41 f4       	brne	.+16     	; 0x6cc2 <malloc+0xca>
    6cb2:	20 91 02 01 	lds	r18, 0x0102
    6cb6:	30 91 03 01 	lds	r19, 0x0103
    6cba:	30 93 ac 02 	sts	0x02AC, r19
    6cbe:	20 93 ab 02 	sts	0x02AB, r18
    6cc2:	20 91 00 01 	lds	r18, 0x0100
    6cc6:	30 91 01 01 	lds	r19, 0x0101
    6cca:	21 15       	cp	r18, r1
    6ccc:	31 05       	cpc	r19, r1
    6cce:	41 f4       	brne	.+16     	; 0x6ce0 <malloc+0xe8>
    6cd0:	2d b7       	in	r18, 0x3d	; 61
    6cd2:	3e b7       	in	r19, 0x3e	; 62
    6cd4:	40 91 04 01 	lds	r20, 0x0104
    6cd8:	50 91 05 01 	lds	r21, 0x0105
    6cdc:	24 1b       	sub	r18, r20
    6cde:	35 0b       	sbc	r19, r21
    6ce0:	e0 91 ab 02 	lds	r30, 0x02AB
    6ce4:	f0 91 ac 02 	lds	r31, 0x02AC
    6ce8:	e2 17       	cp	r30, r18
    6cea:	f3 07       	cpc	r31, r19
    6cec:	a0 f4       	brcc	.+40     	; 0x6d16 <malloc+0x11e>
    6cee:	2e 1b       	sub	r18, r30
    6cf0:	3f 0b       	sbc	r19, r31
    6cf2:	28 17       	cp	r18, r24
    6cf4:	39 07       	cpc	r19, r25
    6cf6:	78 f0       	brcs	.+30     	; 0x6d16 <malloc+0x11e>
    6cf8:	ac 01       	movw	r20, r24
    6cfa:	4e 5f       	subi	r20, 0xFE	; 254
    6cfc:	5f 4f       	sbci	r21, 0xFF	; 255
    6cfe:	24 17       	cp	r18, r20
    6d00:	35 07       	cpc	r19, r21
    6d02:	48 f0       	brcs	.+18     	; 0x6d16 <malloc+0x11e>
    6d04:	4e 0f       	add	r20, r30
    6d06:	5f 1f       	adc	r21, r31
    6d08:	50 93 ac 02 	sts	0x02AC, r21
    6d0c:	40 93 ab 02 	sts	0x02AB, r20
    6d10:	81 93       	st	Z+, r24
    6d12:	91 93       	st	Z+, r25
    6d14:	02 c0       	rjmp	.+4      	; 0x6d1a <malloc+0x122>
    6d16:	e0 e0       	ldi	r30, 0x00	; 0
    6d18:	f0 e0       	ldi	r31, 0x00	; 0
    6d1a:	cf 01       	movw	r24, r30
    6d1c:	df 91       	pop	r29
    6d1e:	cf 91       	pop	r28
    6d20:	08 95       	ret

00006d22 <free>:
    6d22:	0f 93       	push	r16
    6d24:	1f 93       	push	r17
    6d26:	cf 93       	push	r28
    6d28:	df 93       	push	r29
    6d2a:	00 97       	sbiw	r24, 0x00	; 0
    6d2c:	09 f4       	brne	.+2      	; 0x6d30 <free+0xe>
    6d2e:	8c c0       	rjmp	.+280    	; 0x6e48 <free+0x126>
    6d30:	fc 01       	movw	r30, r24
    6d32:	32 97       	sbiw	r30, 0x02	; 2
    6d34:	13 82       	std	Z+3, r1	; 0x03
    6d36:	12 82       	std	Z+2, r1	; 0x02
    6d38:	00 91 ad 02 	lds	r16, 0x02AD
    6d3c:	10 91 ae 02 	lds	r17, 0x02AE
    6d40:	01 15       	cp	r16, r1
    6d42:	11 05       	cpc	r17, r1
    6d44:	81 f4       	brne	.+32     	; 0x6d66 <free+0x44>
    6d46:	20 81       	ld	r18, Z
    6d48:	31 81       	ldd	r19, Z+1	; 0x01
    6d4a:	82 0f       	add	r24, r18
    6d4c:	93 1f       	adc	r25, r19
    6d4e:	20 91 ab 02 	lds	r18, 0x02AB
    6d52:	30 91 ac 02 	lds	r19, 0x02AC
    6d56:	28 17       	cp	r18, r24
    6d58:	39 07       	cpc	r19, r25
    6d5a:	79 f5       	brne	.+94     	; 0x6dba <free+0x98>
    6d5c:	f0 93 ac 02 	sts	0x02AC, r31
    6d60:	e0 93 ab 02 	sts	0x02AB, r30
    6d64:	71 c0       	rjmp	.+226    	; 0x6e48 <free+0x126>
    6d66:	d8 01       	movw	r26, r16
    6d68:	40 e0       	ldi	r20, 0x00	; 0
    6d6a:	50 e0       	ldi	r21, 0x00	; 0
    6d6c:	ae 17       	cp	r26, r30
    6d6e:	bf 07       	cpc	r27, r31
    6d70:	50 f4       	brcc	.+20     	; 0x6d86 <free+0x64>
    6d72:	12 96       	adiw	r26, 0x02	; 2
    6d74:	2d 91       	ld	r18, X+
    6d76:	3c 91       	ld	r19, X
    6d78:	13 97       	sbiw	r26, 0x03	; 3
    6d7a:	ad 01       	movw	r20, r26
    6d7c:	21 15       	cp	r18, r1
    6d7e:	31 05       	cpc	r19, r1
    6d80:	09 f1       	breq	.+66     	; 0x6dc4 <free+0xa2>
    6d82:	d9 01       	movw	r26, r18
    6d84:	f3 cf       	rjmp	.-26     	; 0x6d6c <free+0x4a>
    6d86:	9d 01       	movw	r18, r26
    6d88:	da 01       	movw	r26, r20
    6d8a:	33 83       	std	Z+3, r19	; 0x03
    6d8c:	22 83       	std	Z+2, r18	; 0x02
    6d8e:	60 81       	ld	r22, Z
    6d90:	71 81       	ldd	r23, Z+1	; 0x01
    6d92:	86 0f       	add	r24, r22
    6d94:	97 1f       	adc	r25, r23
    6d96:	82 17       	cp	r24, r18
    6d98:	93 07       	cpc	r25, r19
    6d9a:	69 f4       	brne	.+26     	; 0x6db6 <free+0x94>
    6d9c:	ec 01       	movw	r28, r24
    6d9e:	28 81       	ld	r18, Y
    6da0:	39 81       	ldd	r19, Y+1	; 0x01
    6da2:	26 0f       	add	r18, r22
    6da4:	37 1f       	adc	r19, r23
    6da6:	2e 5f       	subi	r18, 0xFE	; 254
    6da8:	3f 4f       	sbci	r19, 0xFF	; 255
    6daa:	31 83       	std	Z+1, r19	; 0x01
    6dac:	20 83       	st	Z, r18
    6dae:	8a 81       	ldd	r24, Y+2	; 0x02
    6db0:	9b 81       	ldd	r25, Y+3	; 0x03
    6db2:	93 83       	std	Z+3, r25	; 0x03
    6db4:	82 83       	std	Z+2, r24	; 0x02
    6db6:	45 2b       	or	r20, r21
    6db8:	29 f4       	brne	.+10     	; 0x6dc4 <free+0xa2>
    6dba:	f0 93 ae 02 	sts	0x02AE, r31
    6dbe:	e0 93 ad 02 	sts	0x02AD, r30
    6dc2:	42 c0       	rjmp	.+132    	; 0x6e48 <free+0x126>
    6dc4:	13 96       	adiw	r26, 0x03	; 3
    6dc6:	fc 93       	st	X, r31
    6dc8:	ee 93       	st	-X, r30
    6dca:	12 97       	sbiw	r26, 0x02	; 2
    6dcc:	ed 01       	movw	r28, r26
    6dce:	49 91       	ld	r20, Y+
    6dd0:	59 91       	ld	r21, Y+
    6dd2:	9e 01       	movw	r18, r28
    6dd4:	24 0f       	add	r18, r20
    6dd6:	35 1f       	adc	r19, r21
    6dd8:	e2 17       	cp	r30, r18
    6dda:	f3 07       	cpc	r31, r19
    6ddc:	71 f4       	brne	.+28     	; 0x6dfa <free+0xd8>
    6dde:	80 81       	ld	r24, Z
    6de0:	91 81       	ldd	r25, Z+1	; 0x01
    6de2:	84 0f       	add	r24, r20
    6de4:	95 1f       	adc	r25, r21
    6de6:	02 96       	adiw	r24, 0x02	; 2
    6de8:	11 96       	adiw	r26, 0x01	; 1
    6dea:	9c 93       	st	X, r25
    6dec:	8e 93       	st	-X, r24
    6dee:	82 81       	ldd	r24, Z+2	; 0x02
    6df0:	93 81       	ldd	r25, Z+3	; 0x03
    6df2:	13 96       	adiw	r26, 0x03	; 3
    6df4:	9c 93       	st	X, r25
    6df6:	8e 93       	st	-X, r24
    6df8:	12 97       	sbiw	r26, 0x02	; 2
    6dfa:	e0 e0       	ldi	r30, 0x00	; 0
    6dfc:	f0 e0       	ldi	r31, 0x00	; 0
    6dfe:	d8 01       	movw	r26, r16
    6e00:	12 96       	adiw	r26, 0x02	; 2
    6e02:	8d 91       	ld	r24, X+
    6e04:	9c 91       	ld	r25, X
    6e06:	13 97       	sbiw	r26, 0x03	; 3
    6e08:	00 97       	sbiw	r24, 0x00	; 0
    6e0a:	19 f0       	breq	.+6      	; 0x6e12 <free+0xf0>
    6e0c:	f8 01       	movw	r30, r16
    6e0e:	8c 01       	movw	r16, r24
    6e10:	f6 cf       	rjmp	.-20     	; 0x6dfe <free+0xdc>
    6e12:	8d 91       	ld	r24, X+
    6e14:	9c 91       	ld	r25, X
    6e16:	98 01       	movw	r18, r16
    6e18:	2e 5f       	subi	r18, 0xFE	; 254
    6e1a:	3f 4f       	sbci	r19, 0xFF	; 255
    6e1c:	82 0f       	add	r24, r18
    6e1e:	93 1f       	adc	r25, r19
    6e20:	20 91 ab 02 	lds	r18, 0x02AB
    6e24:	30 91 ac 02 	lds	r19, 0x02AC
    6e28:	28 17       	cp	r18, r24
    6e2a:	39 07       	cpc	r19, r25
    6e2c:	69 f4       	brne	.+26     	; 0x6e48 <free+0x126>
    6e2e:	30 97       	sbiw	r30, 0x00	; 0
    6e30:	29 f4       	brne	.+10     	; 0x6e3c <free+0x11a>
    6e32:	10 92 ae 02 	sts	0x02AE, r1
    6e36:	10 92 ad 02 	sts	0x02AD, r1
    6e3a:	02 c0       	rjmp	.+4      	; 0x6e40 <free+0x11e>
    6e3c:	13 82       	std	Z+3, r1	; 0x03
    6e3e:	12 82       	std	Z+2, r1	; 0x02
    6e40:	10 93 ac 02 	sts	0x02AC, r17
    6e44:	00 93 ab 02 	sts	0x02AB, r16
    6e48:	df 91       	pop	r29
    6e4a:	cf 91       	pop	r28
    6e4c:	1f 91       	pop	r17
    6e4e:	0f 91       	pop	r16
    6e50:	08 95       	ret

00006e52 <strnlen_P>:
    6e52:	fc 01       	movw	r30, r24
    6e54:	05 90       	lpm	r0, Z+
    6e56:	61 50       	subi	r22, 0x01	; 1
    6e58:	70 40       	sbci	r23, 0x00	; 0
    6e5a:	01 10       	cpse	r0, r1
    6e5c:	d8 f7       	brcc	.-10     	; 0x6e54 <strnlen_P+0x2>
    6e5e:	80 95       	com	r24
    6e60:	90 95       	com	r25
    6e62:	8e 0f       	add	r24, r30
    6e64:	9f 1f       	adc	r25, r31
    6e66:	08 95       	ret

00006e68 <strnlen>:
    6e68:	fc 01       	movw	r30, r24
    6e6a:	61 50       	subi	r22, 0x01	; 1
    6e6c:	70 40       	sbci	r23, 0x00	; 0
    6e6e:	01 90       	ld	r0, Z+
    6e70:	01 10       	cpse	r0, r1
    6e72:	d8 f7       	brcc	.-10     	; 0x6e6a <strnlen+0x2>
    6e74:	80 95       	com	r24
    6e76:	90 95       	com	r25
    6e78:	8e 0f       	add	r24, r30
    6e7a:	9f 1f       	adc	r25, r31
    6e7c:	08 95       	ret

00006e7e <fputc>:
    6e7e:	0f 93       	push	r16
    6e80:	1f 93       	push	r17
    6e82:	cf 93       	push	r28
    6e84:	df 93       	push	r29
    6e86:	fb 01       	movw	r30, r22
    6e88:	23 81       	ldd	r18, Z+3	; 0x03
    6e8a:	21 fd       	sbrc	r18, 1
    6e8c:	03 c0       	rjmp	.+6      	; 0x6e94 <fputc+0x16>
    6e8e:	8f ef       	ldi	r24, 0xFF	; 255
    6e90:	9f ef       	ldi	r25, 0xFF	; 255
    6e92:	28 c0       	rjmp	.+80     	; 0x6ee4 <fputc+0x66>
    6e94:	22 ff       	sbrs	r18, 2
    6e96:	16 c0       	rjmp	.+44     	; 0x6ec4 <fputc+0x46>
    6e98:	46 81       	ldd	r20, Z+6	; 0x06
    6e9a:	57 81       	ldd	r21, Z+7	; 0x07
    6e9c:	24 81       	ldd	r18, Z+4	; 0x04
    6e9e:	35 81       	ldd	r19, Z+5	; 0x05
    6ea0:	42 17       	cp	r20, r18
    6ea2:	53 07       	cpc	r21, r19
    6ea4:	44 f4       	brge	.+16     	; 0x6eb6 <fputc+0x38>
    6ea6:	a0 81       	ld	r26, Z
    6ea8:	b1 81       	ldd	r27, Z+1	; 0x01
    6eaa:	9d 01       	movw	r18, r26
    6eac:	2f 5f       	subi	r18, 0xFF	; 255
    6eae:	3f 4f       	sbci	r19, 0xFF	; 255
    6eb0:	31 83       	std	Z+1, r19	; 0x01
    6eb2:	20 83       	st	Z, r18
    6eb4:	8c 93       	st	X, r24
    6eb6:	26 81       	ldd	r18, Z+6	; 0x06
    6eb8:	37 81       	ldd	r19, Z+7	; 0x07
    6eba:	2f 5f       	subi	r18, 0xFF	; 255
    6ebc:	3f 4f       	sbci	r19, 0xFF	; 255
    6ebe:	37 83       	std	Z+7, r19	; 0x07
    6ec0:	26 83       	std	Z+6, r18	; 0x06
    6ec2:	10 c0       	rjmp	.+32     	; 0x6ee4 <fputc+0x66>
    6ec4:	eb 01       	movw	r28, r22
    6ec6:	09 2f       	mov	r16, r25
    6ec8:	18 2f       	mov	r17, r24
    6eca:	00 84       	ldd	r0, Z+8	; 0x08
    6ecc:	f1 85       	ldd	r31, Z+9	; 0x09
    6ece:	e0 2d       	mov	r30, r0
    6ed0:	09 95       	icall
    6ed2:	89 2b       	or	r24, r25
    6ed4:	e1 f6       	brne	.-72     	; 0x6e8e <fputc+0x10>
    6ed6:	8e 81       	ldd	r24, Y+6	; 0x06
    6ed8:	9f 81       	ldd	r25, Y+7	; 0x07
    6eda:	01 96       	adiw	r24, 0x01	; 1
    6edc:	9f 83       	std	Y+7, r25	; 0x07
    6ede:	8e 83       	std	Y+6, r24	; 0x06
    6ee0:	81 2f       	mov	r24, r17
    6ee2:	90 2f       	mov	r25, r16
    6ee4:	df 91       	pop	r29
    6ee6:	cf 91       	pop	r28
    6ee8:	1f 91       	pop	r17
    6eea:	0f 91       	pop	r16
    6eec:	08 95       	ret

00006eee <__ultoa_invert>:
    6eee:	fa 01       	movw	r30, r20
    6ef0:	aa 27       	eor	r26, r26
    6ef2:	28 30       	cpi	r18, 0x08	; 8
    6ef4:	51 f1       	breq	.+84     	; 0x6f4a <__ultoa_invert+0x5c>
    6ef6:	20 31       	cpi	r18, 0x10	; 16
    6ef8:	81 f1       	breq	.+96     	; 0x6f5a <__ultoa_invert+0x6c>
    6efa:	e8 94       	clt
    6efc:	6f 93       	push	r22
    6efe:	6e 7f       	andi	r22, 0xFE	; 254
    6f00:	6e 5f       	subi	r22, 0xFE	; 254
    6f02:	7f 4f       	sbci	r23, 0xFF	; 255
    6f04:	8f 4f       	sbci	r24, 0xFF	; 255
    6f06:	9f 4f       	sbci	r25, 0xFF	; 255
    6f08:	af 4f       	sbci	r26, 0xFF	; 255
    6f0a:	b1 e0       	ldi	r27, 0x01	; 1
    6f0c:	3e d0       	rcall	.+124    	; 0x6f8a <__ultoa_invert+0x9c>
    6f0e:	b4 e0       	ldi	r27, 0x04	; 4
    6f10:	3c d0       	rcall	.+120    	; 0x6f8a <__ultoa_invert+0x9c>
    6f12:	67 0f       	add	r22, r23
    6f14:	78 1f       	adc	r23, r24
    6f16:	89 1f       	adc	r24, r25
    6f18:	9a 1f       	adc	r25, r26
    6f1a:	a1 1d       	adc	r26, r1
    6f1c:	68 0f       	add	r22, r24
    6f1e:	79 1f       	adc	r23, r25
    6f20:	8a 1f       	adc	r24, r26
    6f22:	91 1d       	adc	r25, r1
    6f24:	a1 1d       	adc	r26, r1
    6f26:	6a 0f       	add	r22, r26
    6f28:	71 1d       	adc	r23, r1
    6f2a:	81 1d       	adc	r24, r1
    6f2c:	91 1d       	adc	r25, r1
    6f2e:	a1 1d       	adc	r26, r1
    6f30:	20 d0       	rcall	.+64     	; 0x6f72 <__ultoa_invert+0x84>
    6f32:	09 f4       	brne	.+2      	; 0x6f36 <__ultoa_invert+0x48>
    6f34:	68 94       	set
    6f36:	3f 91       	pop	r19
    6f38:	2a e0       	ldi	r18, 0x0A	; 10
    6f3a:	26 9f       	mul	r18, r22
    6f3c:	11 24       	eor	r1, r1
    6f3e:	30 19       	sub	r19, r0
    6f40:	30 5d       	subi	r19, 0xD0	; 208
    6f42:	31 93       	st	Z+, r19
    6f44:	de f6       	brtc	.-74     	; 0x6efc <__ultoa_invert+0xe>
    6f46:	cf 01       	movw	r24, r30
    6f48:	08 95       	ret
    6f4a:	46 2f       	mov	r20, r22
    6f4c:	47 70       	andi	r20, 0x07	; 7
    6f4e:	40 5d       	subi	r20, 0xD0	; 208
    6f50:	41 93       	st	Z+, r20
    6f52:	b3 e0       	ldi	r27, 0x03	; 3
    6f54:	0f d0       	rcall	.+30     	; 0x6f74 <__ultoa_invert+0x86>
    6f56:	c9 f7       	brne	.-14     	; 0x6f4a <__ultoa_invert+0x5c>
    6f58:	f6 cf       	rjmp	.-20     	; 0x6f46 <__ultoa_invert+0x58>
    6f5a:	46 2f       	mov	r20, r22
    6f5c:	4f 70       	andi	r20, 0x0F	; 15
    6f5e:	40 5d       	subi	r20, 0xD0	; 208
    6f60:	4a 33       	cpi	r20, 0x3A	; 58
    6f62:	18 f0       	brcs	.+6      	; 0x6f6a <__ultoa_invert+0x7c>
    6f64:	49 5d       	subi	r20, 0xD9	; 217
    6f66:	31 fd       	sbrc	r19, 1
    6f68:	40 52       	subi	r20, 0x20	; 32
    6f6a:	41 93       	st	Z+, r20
    6f6c:	02 d0       	rcall	.+4      	; 0x6f72 <__ultoa_invert+0x84>
    6f6e:	a9 f7       	brne	.-22     	; 0x6f5a <__ultoa_invert+0x6c>
    6f70:	ea cf       	rjmp	.-44     	; 0x6f46 <__ultoa_invert+0x58>
    6f72:	b4 e0       	ldi	r27, 0x04	; 4
    6f74:	a6 95       	lsr	r26
    6f76:	97 95       	ror	r25
    6f78:	87 95       	ror	r24
    6f7a:	77 95       	ror	r23
    6f7c:	67 95       	ror	r22
    6f7e:	ba 95       	dec	r27
    6f80:	c9 f7       	brne	.-14     	; 0x6f74 <__ultoa_invert+0x86>
    6f82:	00 97       	sbiw	r24, 0x00	; 0
    6f84:	61 05       	cpc	r22, r1
    6f86:	71 05       	cpc	r23, r1
    6f88:	08 95       	ret
    6f8a:	9b 01       	movw	r18, r22
    6f8c:	ac 01       	movw	r20, r24
    6f8e:	0a 2e       	mov	r0, r26
    6f90:	06 94       	lsr	r0
    6f92:	57 95       	ror	r21
    6f94:	47 95       	ror	r20
    6f96:	37 95       	ror	r19
    6f98:	27 95       	ror	r18
    6f9a:	ba 95       	dec	r27
    6f9c:	c9 f7       	brne	.-14     	; 0x6f90 <__ultoa_invert+0xa2>
    6f9e:	62 0f       	add	r22, r18
    6fa0:	73 1f       	adc	r23, r19
    6fa2:	84 1f       	adc	r24, r20
    6fa4:	95 1f       	adc	r25, r21
    6fa6:	a0 1d       	adc	r26, r0
    6fa8:	08 95       	ret

00006faa <eeprom_read_block>:
    6faa:	dc 01       	movw	r26, r24
    6fac:	cb 01       	movw	r24, r22

00006fae <eeprom_read_blraw>:
    6fae:	fc 01       	movw	r30, r24
    6fb0:	e1 99       	sbic	0x1c, 1	; 28
    6fb2:	fe cf       	rjmp	.-4      	; 0x6fb0 <eeprom_read_blraw+0x2>
    6fb4:	06 c0       	rjmp	.+12     	; 0x6fc2 <eeprom_read_blraw+0x14>
    6fb6:	ff bb       	out	0x1f, r31	; 31
    6fb8:	ee bb       	out	0x1e, r30	; 30
    6fba:	e0 9a       	sbi	0x1c, 0	; 28
    6fbc:	31 96       	adiw	r30, 0x01	; 1
    6fbe:	0d b2       	in	r0, 0x1d	; 29
    6fc0:	0d 92       	st	X+, r0
    6fc2:	41 50       	subi	r20, 0x01	; 1
    6fc4:	50 40       	sbci	r21, 0x00	; 0
    6fc6:	b8 f7       	brcc	.-18     	; 0x6fb6 <eeprom_read_blraw+0x8>
    6fc8:	08 95       	ret

00006fca <eeprom_read_byte>:
    6fca:	e1 99       	sbic	0x1c, 1	; 28
    6fcc:	fe cf       	rjmp	.-4      	; 0x6fca <eeprom_read_byte>
    6fce:	9f bb       	out	0x1f, r25	; 31
    6fd0:	8e bb       	out	0x1e, r24	; 30
    6fd2:	e0 9a       	sbi	0x1c, 0	; 28
    6fd4:	99 27       	eor	r25, r25
    6fd6:	8d b3       	in	r24, 0x1d	; 29
    6fd8:	08 95       	ret

00006fda <eeprom_read_word>:
    6fda:	a8 e1       	ldi	r26, 0x18	; 24
    6fdc:	b0 e0       	ldi	r27, 0x00	; 0
    6fde:	42 e0       	ldi	r20, 0x02	; 2
    6fe0:	50 e0       	ldi	r21, 0x00	; 0
    6fe2:	e5 cf       	rjmp	.-54     	; 0x6fae <eeprom_read_blraw>

00006fe4 <eeprom_write_block>:
    6fe4:	dc 01       	movw	r26, r24
    6fe6:	cb 01       	movw	r24, r22
    6fe8:	02 c0       	rjmp	.+4      	; 0x6fee <eeprom_write_block+0xa>
    6fea:	2d 91       	ld	r18, X+
    6fec:	05 d0       	rcall	.+10     	; 0x6ff8 <eeprom_write_r18>
    6fee:	41 50       	subi	r20, 0x01	; 1
    6ff0:	50 40       	sbci	r21, 0x00	; 0
    6ff2:	d8 f7       	brcc	.-10     	; 0x6fea <eeprom_write_block+0x6>
    6ff4:	08 95       	ret

00006ff6 <eeprom_write_byte>:
    6ff6:	26 2f       	mov	r18, r22

00006ff8 <eeprom_write_r18>:
    6ff8:	e1 99       	sbic	0x1c, 1	; 28
    6ffa:	fe cf       	rjmp	.-4      	; 0x6ff8 <eeprom_write_r18>
    6ffc:	9f bb       	out	0x1f, r25	; 31
    6ffe:	8e bb       	out	0x1e, r24	; 30
    7000:	2d bb       	out	0x1d, r18	; 29
    7002:	0f b6       	in	r0, 0x3f	; 63
    7004:	f8 94       	cli
    7006:	e2 9a       	sbi	0x1c, 2	; 28
    7008:	e1 9a       	sbi	0x1c, 1	; 28
    700a:	0f be       	out	0x3f, r0	; 63
    700c:	01 96       	adiw	r24, 0x01	; 1
    700e:	08 95       	ret

00007010 <eeprom_write_word>:
    7010:	f2 df       	rcall	.-28     	; 0x6ff6 <eeprom_write_byte>
    7012:	27 2f       	mov	r18, r23
    7014:	f1 cf       	rjmp	.-30     	; 0x6ff8 <eeprom_write_r18>

00007016 <_exit>:
    7016:	f8 94       	cli

00007018 <__stop_program>:
    7018:	ff cf       	rjmp	.-2      	; 0x7018 <__stop_program>
